ARM GAS  C:\Users\carlos\AppData\Local\Temp\ccaMGGVT.s 			page 1


   1              		.cpu cortex-m33
   2              		.eabi_attribute 27, 1
   3              		.eabi_attribute 28, 1
   4              		.eabi_attribute 20, 1
   5              		.eabi_attribute 21, 1
   6              		.eabi_attribute 23, 3
   7              		.eabi_attribute 24, 1
   8              		.eabi_attribute 25, 1
   9              		.eabi_attribute 26, 1
  10              		.eabi_attribute 30, 1
  11              		.eabi_attribute 34, 1
  12              		.eabi_attribute 18, 4
  13              		.file	"stm32l5xx_hal_rtc_ex.c"
  14              		.text
  15              	.Ltext0:
  16              		.cfi_sections	.debug_frame
  17              		.section	.text.HAL_RTCEx_SetTimeStamp,"ax",%progbits
  18              		.align	1
  19              		.global	HAL_RTCEx_SetTimeStamp
  20              		.arch armv8-m.main
  21              		.arch_extension dsp
  22              		.syntax unified
  23              		.thumb
  24              		.thumb_func
  25              		.fpu fpv4-sp-d16
  27              	HAL_RTCEx_SetTimeStamp:
  28              	.LVL0:
  29              	.LFB202:
  30              		.file 1 "../../Drivers/STM32L5xx_HAL_Driver/Src/stm32l5xx_hal_rtc_ex.c"
   1:../../Drivers/STM32L5xx_HAL_Driver/Src/stm32l5xx_hal_rtc_ex.c **** /**
   2:../../Drivers/STM32L5xx_HAL_Driver/Src/stm32l5xx_hal_rtc_ex.c ****   ******************************************************************************
   3:../../Drivers/STM32L5xx_HAL_Driver/Src/stm32l5xx_hal_rtc_ex.c ****   * @file    stm32l5xx_hal_rtc_ex.c
   4:../../Drivers/STM32L5xx_HAL_Driver/Src/stm32l5xx_hal_rtc_ex.c ****   * @author  MCD Application Team
   5:../../Drivers/STM32L5xx_HAL_Driver/Src/stm32l5xx_hal_rtc_ex.c ****   * @brief   Extended RTC HAL module driver.
   6:../../Drivers/STM32L5xx_HAL_Driver/Src/stm32l5xx_hal_rtc_ex.c ****   *          This file provides firmware functions to manage the following
   7:../../Drivers/STM32L5xx_HAL_Driver/Src/stm32l5xx_hal_rtc_ex.c ****   *          functionalities of the Real Time Clock (RTC) Extended peripheral:
   8:../../Drivers/STM32L5xx_HAL_Driver/Src/stm32l5xx_hal_rtc_ex.c ****   *           + RTC Time Stamp functions
   9:../../Drivers/STM32L5xx_HAL_Driver/Src/stm32l5xx_hal_rtc_ex.c ****   *           + RTC Tamper functions
  10:../../Drivers/STM32L5xx_HAL_Driver/Src/stm32l5xx_hal_rtc_ex.c ****   *           + RTC Wake-up functions
  11:../../Drivers/STM32L5xx_HAL_Driver/Src/stm32l5xx_hal_rtc_ex.c ****   *           + Extended Control functions
  12:../../Drivers/STM32L5xx_HAL_Driver/Src/stm32l5xx_hal_rtc_ex.c ****   *           + Extended RTC features functions
  13:../../Drivers/STM32L5xx_HAL_Driver/Src/stm32l5xx_hal_rtc_ex.c ****   *
  14:../../Drivers/STM32L5xx_HAL_Driver/Src/stm32l5xx_hal_rtc_ex.c ****   ******************************************************************************
  15:../../Drivers/STM32L5xx_HAL_Driver/Src/stm32l5xx_hal_rtc_ex.c ****   * @attention
  16:../../Drivers/STM32L5xx_HAL_Driver/Src/stm32l5xx_hal_rtc_ex.c ****   *
  17:../../Drivers/STM32L5xx_HAL_Driver/Src/stm32l5xx_hal_rtc_ex.c ****   * Copyright (c) 2019 STMicroelectronics.
  18:../../Drivers/STM32L5xx_HAL_Driver/Src/stm32l5xx_hal_rtc_ex.c ****   * All rights reserved.
  19:../../Drivers/STM32L5xx_HAL_Driver/Src/stm32l5xx_hal_rtc_ex.c ****   *
  20:../../Drivers/STM32L5xx_HAL_Driver/Src/stm32l5xx_hal_rtc_ex.c ****   * This software is licensed under terms that can be found in the LICENSE file
  21:../../Drivers/STM32L5xx_HAL_Driver/Src/stm32l5xx_hal_rtc_ex.c ****   * in the root directory of this software component.
  22:../../Drivers/STM32L5xx_HAL_Driver/Src/stm32l5xx_hal_rtc_ex.c ****   * If no LICENSE file comes with this software, it is provided AS-IS.
  23:../../Drivers/STM32L5xx_HAL_Driver/Src/stm32l5xx_hal_rtc_ex.c ****   *
  24:../../Drivers/STM32L5xx_HAL_Driver/Src/stm32l5xx_hal_rtc_ex.c ****   ******************************************************************************
  25:../../Drivers/STM32L5xx_HAL_Driver/Src/stm32l5xx_hal_rtc_ex.c ****   @verbatim
  26:../../Drivers/STM32L5xx_HAL_Driver/Src/stm32l5xx_hal_rtc_ex.c ****   ==============================================================================
  27:../../Drivers/STM32L5xx_HAL_Driver/Src/stm32l5xx_hal_rtc_ex.c ****                   ##### How to use this driver #####
  28:../../Drivers/STM32L5xx_HAL_Driver/Src/stm32l5xx_hal_rtc_ex.c ****   ==============================================================================
ARM GAS  C:\Users\carlos\AppData\Local\Temp\ccaMGGVT.s 			page 2


  29:../../Drivers/STM32L5xx_HAL_Driver/Src/stm32l5xx_hal_rtc_ex.c ****   [..]
  30:../../Drivers/STM32L5xx_HAL_Driver/Src/stm32l5xx_hal_rtc_ex.c ****     (+) Enable the RTC domain access.
  31:../../Drivers/STM32L5xx_HAL_Driver/Src/stm32l5xx_hal_rtc_ex.c ****     (+) Configure the RTC Prescaler (Asynchronous and Synchronous) and RTC hour
  32:../../Drivers/STM32L5xx_HAL_Driver/Src/stm32l5xx_hal_rtc_ex.c ****         format using the HAL_RTC_Init() function.
  33:../../Drivers/STM32L5xx_HAL_Driver/Src/stm32l5xx_hal_rtc_ex.c **** 
  34:../../Drivers/STM32L5xx_HAL_Driver/Src/stm32l5xx_hal_rtc_ex.c ****   *** RTC Wakeup configuration ***
  35:../../Drivers/STM32L5xx_HAL_Driver/Src/stm32l5xx_hal_rtc_ex.c ****   ================================
  36:../../Drivers/STM32L5xx_HAL_Driver/Src/stm32l5xx_hal_rtc_ex.c ****   [..]
  37:../../Drivers/STM32L5xx_HAL_Driver/Src/stm32l5xx_hal_rtc_ex.c ****     (+) To configure the RTC Wakeup Clock source and Counter use the HAL_RTCEx_SetWakeUpTimer()
  38:../../Drivers/STM32L5xx_HAL_Driver/Src/stm32l5xx_hal_rtc_ex.c ****         function. You can also configure the RTC Wakeup timer with interrupt mode
  39:../../Drivers/STM32L5xx_HAL_Driver/Src/stm32l5xx_hal_rtc_ex.c ****         using the HAL_RTCEx_SetWakeUpTimer_IT() function.
  40:../../Drivers/STM32L5xx_HAL_Driver/Src/stm32l5xx_hal_rtc_ex.c ****     (+) To read the RTC WakeUp Counter register, use the HAL_RTCEx_GetWakeUpTimer()
  41:../../Drivers/STM32L5xx_HAL_Driver/Src/stm32l5xx_hal_rtc_ex.c ****         function.
  42:../../Drivers/STM32L5xx_HAL_Driver/Src/stm32l5xx_hal_rtc_ex.c **** 
  43:../../Drivers/STM32L5xx_HAL_Driver/Src/stm32l5xx_hal_rtc_ex.c ****   *** Outputs configuration ***
  44:../../Drivers/STM32L5xx_HAL_Driver/Src/stm32l5xx_hal_rtc_ex.c ****   =============================
  45:../../Drivers/STM32L5xx_HAL_Driver/Src/stm32l5xx_hal_rtc_ex.c ****   [..]  The RTC has 2 different outputs:
  46:../../Drivers/STM32L5xx_HAL_Driver/Src/stm32l5xx_hal_rtc_ex.c ****     (+) RTC_ALARM: this output is used to manage the RTC Alarm A, Alarm B
  47:../../Drivers/STM32L5xx_HAL_Driver/Src/stm32l5xx_hal_rtc_ex.c ****         and WaKeUp signals.
  48:../../Drivers/STM32L5xx_HAL_Driver/Src/stm32l5xx_hal_rtc_ex.c ****         To output the selected RTC signal, use the HAL_RTC_Init() function.
  49:../../Drivers/STM32L5xx_HAL_Driver/Src/stm32l5xx_hal_rtc_ex.c ****     (+) RTC_CALIB: this output is 512Hz signal or 1Hz.
  50:../../Drivers/STM32L5xx_HAL_Driver/Src/stm32l5xx_hal_rtc_ex.c ****         To enable the RTC_CALIB, use the HAL_RTCEx_SetCalibrationOutPut() function.
  51:../../Drivers/STM32L5xx_HAL_Driver/Src/stm32l5xx_hal_rtc_ex.c ****     (+) Two pins can be used as RTC_ALARM or RTC_CALIB (PC13, PB2) managed on
  52:../../Drivers/STM32L5xx_HAL_Driver/Src/stm32l5xx_hal_rtc_ex.c ****         the RTC_OR register.
  53:../../Drivers/STM32L5xx_HAL_Driver/Src/stm32l5xx_hal_rtc_ex.c ****     (+) When the RTC_CALIB or RTC_ALARM output is selected, the RTC_OUT pin is
  54:../../Drivers/STM32L5xx_HAL_Driver/Src/stm32l5xx_hal_rtc_ex.c ****         automatically configured in output alternate function.
  55:../../Drivers/STM32L5xx_HAL_Driver/Src/stm32l5xx_hal_rtc_ex.c **** 
  56:../../Drivers/STM32L5xx_HAL_Driver/Src/stm32l5xx_hal_rtc_ex.c ****   *** Smooth digital Calibration configuration ***
  57:../../Drivers/STM32L5xx_HAL_Driver/Src/stm32l5xx_hal_rtc_ex.c ****   ================================================
  58:../../Drivers/STM32L5xx_HAL_Driver/Src/stm32l5xx_hal_rtc_ex.c ****   [..]
  59:../../Drivers/STM32L5xx_HAL_Driver/Src/stm32l5xx_hal_rtc_ex.c ****     (+) Configure the RTC Original Digital Calibration Value and the corresponding
  60:../../Drivers/STM32L5xx_HAL_Driver/Src/stm32l5xx_hal_rtc_ex.c ****         calibration cycle period (32s,16s and 8s) using the HAL_RTCEx_SetSmoothCalib()
  61:../../Drivers/STM32L5xx_HAL_Driver/Src/stm32l5xx_hal_rtc_ex.c ****         function.
  62:../../Drivers/STM32L5xx_HAL_Driver/Src/stm32l5xx_hal_rtc_ex.c **** 
  63:../../Drivers/STM32L5xx_HAL_Driver/Src/stm32l5xx_hal_rtc_ex.c ****   *** TimeStamp configuration ***
  64:../../Drivers/STM32L5xx_HAL_Driver/Src/stm32l5xx_hal_rtc_ex.c ****   ===============================
  65:../../Drivers/STM32L5xx_HAL_Driver/Src/stm32l5xx_hal_rtc_ex.c ****   [..]
  66:../../Drivers/STM32L5xx_HAL_Driver/Src/stm32l5xx_hal_rtc_ex.c ****     (+) Enable the RTC TimeStamp using the HAL_RTCEx_SetTimeStamp() function.
  67:../../Drivers/STM32L5xx_HAL_Driver/Src/stm32l5xx_hal_rtc_ex.c ****         You can also configure the RTC TimeStamp with interrupt mode using the
  68:../../Drivers/STM32L5xx_HAL_Driver/Src/stm32l5xx_hal_rtc_ex.c ****         HAL_RTCEx_SetTimeStamp_IT() function.
  69:../../Drivers/STM32L5xx_HAL_Driver/Src/stm32l5xx_hal_rtc_ex.c ****     (+) To read the RTC TimeStamp Time and Date register, use the HAL_RTCEx_GetTimeStamp()
  70:../../Drivers/STM32L5xx_HAL_Driver/Src/stm32l5xx_hal_rtc_ex.c ****         function.
  71:../../Drivers/STM32L5xx_HAL_Driver/Src/stm32l5xx_hal_rtc_ex.c **** 
  72:../../Drivers/STM32L5xx_HAL_Driver/Src/stm32l5xx_hal_rtc_ex.c ****   *** Internal TimeStamp configuration ***
  73:../../Drivers/STM32L5xx_HAL_Driver/Src/stm32l5xx_hal_rtc_ex.c ****   ===============================
  74:../../Drivers/STM32L5xx_HAL_Driver/Src/stm32l5xx_hal_rtc_ex.c ****   [..]
  75:../../Drivers/STM32L5xx_HAL_Driver/Src/stm32l5xx_hal_rtc_ex.c ****     (+) Enable the RTC internal TimeStamp using the HAL_RTCEx_SetInternalTimeStamp() function.
  76:../../Drivers/STM32L5xx_HAL_Driver/Src/stm32l5xx_hal_rtc_ex.c ****         User has to check internal timestamp occurrence using __HAL_RTC_INTERNAL_TIMESTAMP_GET_FLAG
  77:../../Drivers/STM32L5xx_HAL_Driver/Src/stm32l5xx_hal_rtc_ex.c ****     (+) To read the RTC TimeStamp Time and Date register, use the HAL_RTCEx_GetTimeStamp()
  78:../../Drivers/STM32L5xx_HAL_Driver/Src/stm32l5xx_hal_rtc_ex.c ****         function.
  79:../../Drivers/STM32L5xx_HAL_Driver/Src/stm32l5xx_hal_rtc_ex.c **** 
  80:../../Drivers/STM32L5xx_HAL_Driver/Src/stm32l5xx_hal_rtc_ex.c ****    *** Tamper configuration ***
  81:../../Drivers/STM32L5xx_HAL_Driver/Src/stm32l5xx_hal_rtc_ex.c ****    ============================
  82:../../Drivers/STM32L5xx_HAL_Driver/Src/stm32l5xx_hal_rtc_ex.c ****    [..]
  83:../../Drivers/STM32L5xx_HAL_Driver/Src/stm32l5xx_hal_rtc_ex.c ****      (+) Enable the RTC Tamper and configure the Tamper filter count, trigger Edge
  84:../../Drivers/STM32L5xx_HAL_Driver/Src/stm32l5xx_hal_rtc_ex.c ****          or Level according to the Tamper filter (if equal to 0 Edge else Level)
  85:../../Drivers/STM32L5xx_HAL_Driver/Src/stm32l5xx_hal_rtc_ex.c ****          value, sampling frequency, NoErase, MaskFlag,  precharge or discharge and
ARM GAS  C:\Users\carlos\AppData\Local\Temp\ccaMGGVT.s 			page 3


  86:../../Drivers/STM32L5xx_HAL_Driver/Src/stm32l5xx_hal_rtc_ex.c ****          Pull-UP using the HAL_RTCEx_SetTamper() function. You can configure RTC Tamper
  87:../../Drivers/STM32L5xx_HAL_Driver/Src/stm32l5xx_hal_rtc_ex.c ****          with interrupt mode using HAL_RTCEx_SetTamper_IT() function.
  88:../../Drivers/STM32L5xx_HAL_Driver/Src/stm32l5xx_hal_rtc_ex.c ****      (+) The default configuration of the Tamper erases the backup registers. To avoid
  89:../../Drivers/STM32L5xx_HAL_Driver/Src/stm32l5xx_hal_rtc_ex.c ****          erase, enable the NoErase field on the RTC_TAMPCR register.
  90:../../Drivers/STM32L5xx_HAL_Driver/Src/stm32l5xx_hal_rtc_ex.c ****      (+) With new RTC tamper configuration, you have to call HAL_RTC_Init() in order to
  91:../../Drivers/STM32L5xx_HAL_Driver/Src/stm32l5xx_hal_rtc_ex.c ****          perform TAMP base address offset calculation.
  92:../../Drivers/STM32L5xx_HAL_Driver/Src/stm32l5xx_hal_rtc_ex.c ****      (+) If you do not intend to have tamper using RTC clock, you can bypass its initialization
  93:../../Drivers/STM32L5xx_HAL_Driver/Src/stm32l5xx_hal_rtc_ex.c ****          by setting ClockEnable inti field to RTC_CLOCK_DISABLE.
  94:../../Drivers/STM32L5xx_HAL_Driver/Src/stm32l5xx_hal_rtc_ex.c ****      (+) Enable Internal tamper using HAL_RTCEx_SetInternalTamper. IT mode can be chosen using
  95:../../Drivers/STM32L5xx_HAL_Driver/Src/stm32l5xx_hal_rtc_ex.c ****          setting Interrupt field.
  96:../../Drivers/STM32L5xx_HAL_Driver/Src/stm32l5xx_hal_rtc_ex.c **** 
  97:../../Drivers/STM32L5xx_HAL_Driver/Src/stm32l5xx_hal_rtc_ex.c ****    *** Backup Data Registers configuration ***
  98:../../Drivers/STM32L5xx_HAL_Driver/Src/stm32l5xx_hal_rtc_ex.c ****    ===========================================
  99:../../Drivers/STM32L5xx_HAL_Driver/Src/stm32l5xx_hal_rtc_ex.c ****    [..]
 100:../../Drivers/STM32L5xx_HAL_Driver/Src/stm32l5xx_hal_rtc_ex.c ****      (+) To write to the RTC Backup Data registers, use the HAL_RTCEx_BKUPWrite()
 101:../../Drivers/STM32L5xx_HAL_Driver/Src/stm32l5xx_hal_rtc_ex.c ****          function.
 102:../../Drivers/STM32L5xx_HAL_Driver/Src/stm32l5xx_hal_rtc_ex.c ****      (+) To read the RTC Backup Data registers, use the HAL_RTCEx_BKUPRead()
 103:../../Drivers/STM32L5xx_HAL_Driver/Src/stm32l5xx_hal_rtc_ex.c ****          function.
 104:../../Drivers/STM32L5xx_HAL_Driver/Src/stm32l5xx_hal_rtc_ex.c ****      (+) Before calling these functions you have to call HAL_RTC_Init() in order to
 105:../../Drivers/STM32L5xx_HAL_Driver/Src/stm32l5xx_hal_rtc_ex.c ****          perform TAMP base address offset calculation.
 106:../../Drivers/STM32L5xx_HAL_Driver/Src/stm32l5xx_hal_rtc_ex.c **** 
 107:../../Drivers/STM32L5xx_HAL_Driver/Src/stm32l5xx_hal_rtc_ex.c ****    @endverbatim
 108:../../Drivers/STM32L5xx_HAL_Driver/Src/stm32l5xx_hal_rtc_ex.c ****   ******************************************************************************
 109:../../Drivers/STM32L5xx_HAL_Driver/Src/stm32l5xx_hal_rtc_ex.c ****   */
 110:../../Drivers/STM32L5xx_HAL_Driver/Src/stm32l5xx_hal_rtc_ex.c **** 
 111:../../Drivers/STM32L5xx_HAL_Driver/Src/stm32l5xx_hal_rtc_ex.c **** /* Includes ------------------------------------------------------------------*/
 112:../../Drivers/STM32L5xx_HAL_Driver/Src/stm32l5xx_hal_rtc_ex.c **** #include "stm32l5xx_hal.h"
 113:../../Drivers/STM32L5xx_HAL_Driver/Src/stm32l5xx_hal_rtc_ex.c **** 
 114:../../Drivers/STM32L5xx_HAL_Driver/Src/stm32l5xx_hal_rtc_ex.c **** /** @addtogroup STM32L5xx_HAL_Driver
 115:../../Drivers/STM32L5xx_HAL_Driver/Src/stm32l5xx_hal_rtc_ex.c ****   * @{
 116:../../Drivers/STM32L5xx_HAL_Driver/Src/stm32l5xx_hal_rtc_ex.c ****   */
 117:../../Drivers/STM32L5xx_HAL_Driver/Src/stm32l5xx_hal_rtc_ex.c **** 
 118:../../Drivers/STM32L5xx_HAL_Driver/Src/stm32l5xx_hal_rtc_ex.c **** /** @addtogroup RTCEx
 119:../../Drivers/STM32L5xx_HAL_Driver/Src/stm32l5xx_hal_rtc_ex.c ****   * @brief RTC Extended HAL module driver
 120:../../Drivers/STM32L5xx_HAL_Driver/Src/stm32l5xx_hal_rtc_ex.c ****   * @{
 121:../../Drivers/STM32L5xx_HAL_Driver/Src/stm32l5xx_hal_rtc_ex.c ****   */
 122:../../Drivers/STM32L5xx_HAL_Driver/Src/stm32l5xx_hal_rtc_ex.c **** 
 123:../../Drivers/STM32L5xx_HAL_Driver/Src/stm32l5xx_hal_rtc_ex.c **** #ifdef HAL_RTC_MODULE_ENABLED
 124:../../Drivers/STM32L5xx_HAL_Driver/Src/stm32l5xx_hal_rtc_ex.c **** 
 125:../../Drivers/STM32L5xx_HAL_Driver/Src/stm32l5xx_hal_rtc_ex.c **** /* Private typedef -----------------------------------------------------------*/
 126:../../Drivers/STM32L5xx_HAL_Driver/Src/stm32l5xx_hal_rtc_ex.c **** /* Private define ------------------------------------------------------------*/
 127:../../Drivers/STM32L5xx_HAL_Driver/Src/stm32l5xx_hal_rtc_ex.c **** #define TAMP_ALL (TAMP_CR1_TAMP1E | TAMP_CR1_TAMP2E | TAMP_CR1_TAMP3E | TAMP_CR1_TAMP4E | \
 128:../../Drivers/STM32L5xx_HAL_Driver/Src/stm32l5xx_hal_rtc_ex.c ****                   TAMP_CR1_TAMP5E | TAMP_CR1_TAMP6E | TAMP_CR1_TAMP7E | TAMP_CR1_TAMP8E)
 129:../../Drivers/STM32L5xx_HAL_Driver/Src/stm32l5xx_hal_rtc_ex.c **** 
 130:../../Drivers/STM32L5xx_HAL_Driver/Src/stm32l5xx_hal_rtc_ex.c **** 
 131:../../Drivers/STM32L5xx_HAL_Driver/Src/stm32l5xx_hal_rtc_ex.c **** /* Private macro -------------------------------------------------------------*/
 132:../../Drivers/STM32L5xx_HAL_Driver/Src/stm32l5xx_hal_rtc_ex.c **** /* Private variables ---------------------------------------------------------*/
 133:../../Drivers/STM32L5xx_HAL_Driver/Src/stm32l5xx_hal_rtc_ex.c **** /* Private function prototypes -----------------------------------------------*/
 134:../../Drivers/STM32L5xx_HAL_Driver/Src/stm32l5xx_hal_rtc_ex.c **** /* Exported functions --------------------------------------------------------*/
 135:../../Drivers/STM32L5xx_HAL_Driver/Src/stm32l5xx_hal_rtc_ex.c **** 
 136:../../Drivers/STM32L5xx_HAL_Driver/Src/stm32l5xx_hal_rtc_ex.c **** /** @addtogroup RTCEx_Exported_Functions
 137:../../Drivers/STM32L5xx_HAL_Driver/Src/stm32l5xx_hal_rtc_ex.c ****   * @{
 138:../../Drivers/STM32L5xx_HAL_Driver/Src/stm32l5xx_hal_rtc_ex.c ****   */
 139:../../Drivers/STM32L5xx_HAL_Driver/Src/stm32l5xx_hal_rtc_ex.c **** 
 140:../../Drivers/STM32L5xx_HAL_Driver/Src/stm32l5xx_hal_rtc_ex.c **** 
 141:../../Drivers/STM32L5xx_HAL_Driver/Src/stm32l5xx_hal_rtc_ex.c **** /** @addtogroup RTCEx_Exported_Functions_Group1
 142:../../Drivers/STM32L5xx_HAL_Driver/Src/stm32l5xx_hal_rtc_ex.c ****  *  @brief   RTC TimeStamp and Tamper functions
ARM GAS  C:\Users\carlos\AppData\Local\Temp\ccaMGGVT.s 			page 4


 143:../../Drivers/STM32L5xx_HAL_Driver/Src/stm32l5xx_hal_rtc_ex.c ****   *
 144:../../Drivers/STM32L5xx_HAL_Driver/Src/stm32l5xx_hal_rtc_ex.c **** @verbatim
 145:../../Drivers/STM32L5xx_HAL_Driver/Src/stm32l5xx_hal_rtc_ex.c ****  ===============================================================================
 146:../../Drivers/STM32L5xx_HAL_Driver/Src/stm32l5xx_hal_rtc_ex.c ****                  ##### RTC TimeStamp and Tamper functions #####
 147:../../Drivers/STM32L5xx_HAL_Driver/Src/stm32l5xx_hal_rtc_ex.c ****  ===============================================================================
 148:../../Drivers/STM32L5xx_HAL_Driver/Src/stm32l5xx_hal_rtc_ex.c **** 
 149:../../Drivers/STM32L5xx_HAL_Driver/Src/stm32l5xx_hal_rtc_ex.c ****  [..] This section provides functions allowing to configure TimeStamp feature
 150:../../Drivers/STM32L5xx_HAL_Driver/Src/stm32l5xx_hal_rtc_ex.c **** 
 151:../../Drivers/STM32L5xx_HAL_Driver/Src/stm32l5xx_hal_rtc_ex.c **** @endverbatim
 152:../../Drivers/STM32L5xx_HAL_Driver/Src/stm32l5xx_hal_rtc_ex.c ****   * @{
 153:../../Drivers/STM32L5xx_HAL_Driver/Src/stm32l5xx_hal_rtc_ex.c ****   */
 154:../../Drivers/STM32L5xx_HAL_Driver/Src/stm32l5xx_hal_rtc_ex.c **** 
 155:../../Drivers/STM32L5xx_HAL_Driver/Src/stm32l5xx_hal_rtc_ex.c **** /**
 156:../../Drivers/STM32L5xx_HAL_Driver/Src/stm32l5xx_hal_rtc_ex.c ****   * @brief  Set TimeStamp.
 157:../../Drivers/STM32L5xx_HAL_Driver/Src/stm32l5xx_hal_rtc_ex.c ****   * @note   This API must be called before enabling the TimeStamp feature.
 158:../../Drivers/STM32L5xx_HAL_Driver/Src/stm32l5xx_hal_rtc_ex.c ****   * @param  hrtc RTC handle
 159:../../Drivers/STM32L5xx_HAL_Driver/Src/stm32l5xx_hal_rtc_ex.c ****   * @param  TimeStampEdge Specifies the pin edge on which the TimeStamp is
 160:../../Drivers/STM32L5xx_HAL_Driver/Src/stm32l5xx_hal_rtc_ex.c ****   *         activated.
 161:../../Drivers/STM32L5xx_HAL_Driver/Src/stm32l5xx_hal_rtc_ex.c ****   *          This parameter can be one of the following values:
 162:../../Drivers/STM32L5xx_HAL_Driver/Src/stm32l5xx_hal_rtc_ex.c ****   *             @arg RTC_TIMESTAMPEDGE_RISING: the Time stamp event occurs on the
 163:../../Drivers/STM32L5xx_HAL_Driver/Src/stm32l5xx_hal_rtc_ex.c ****   *                                        rising edge of the related pin.
 164:../../Drivers/STM32L5xx_HAL_Driver/Src/stm32l5xx_hal_rtc_ex.c ****   *             @arg RTC_TIMESTAMPEDGE_FALLING: the Time stamp event occurs on the
 165:../../Drivers/STM32L5xx_HAL_Driver/Src/stm32l5xx_hal_rtc_ex.c ****   *                                         falling edge of the related pin.
 166:../../Drivers/STM32L5xx_HAL_Driver/Src/stm32l5xx_hal_rtc_ex.c ****   * @param  RTC_TimeStampPin specifies the RTC TimeStamp Pin.
 167:../../Drivers/STM32L5xx_HAL_Driver/Src/stm32l5xx_hal_rtc_ex.c ****   *          This parameter can be one of the following values:
 168:../../Drivers/STM32L5xx_HAL_Driver/Src/stm32l5xx_hal_rtc_ex.c ****   *             @arg RTC_TIMESTAMPPIN_DEFAULT: PC13 is selected as RTC TimeStamp Pin.
 169:../../Drivers/STM32L5xx_HAL_Driver/Src/stm32l5xx_hal_rtc_ex.c ****   *               The RTC TimeStamp Pin is per default PC13, but for reasons of
 170:../../Drivers/STM32L5xx_HAL_Driver/Src/stm32l5xx_hal_rtc_ex.c ****   *               compatibility, this parameter is required.
 171:../../Drivers/STM32L5xx_HAL_Driver/Src/stm32l5xx_hal_rtc_ex.c ****   * @retval HAL status
 172:../../Drivers/STM32L5xx_HAL_Driver/Src/stm32l5xx_hal_rtc_ex.c ****   */
 173:../../Drivers/STM32L5xx_HAL_Driver/Src/stm32l5xx_hal_rtc_ex.c **** HAL_StatusTypeDef HAL_RTCEx_SetTimeStamp(RTC_HandleTypeDef *hrtc, uint32_t TimeStampEdge, uint32_t 
 174:../../Drivers/STM32L5xx_HAL_Driver/Src/stm32l5xx_hal_rtc_ex.c **** {
  31              		.loc 1 174 1 view -0
  32              		.cfi_startproc
  33              		@ args = 0, pretend = 0, frame = 0
  34              		@ frame_needed = 0, uses_anonymous_args = 0
  35              		@ link register save eliminated.
 175:../../Drivers/STM32L5xx_HAL_Driver/Src/stm32l5xx_hal_rtc_ex.c ****   /* Check the parameters */
 176:../../Drivers/STM32L5xx_HAL_Driver/Src/stm32l5xx_hal_rtc_ex.c ****   assert_param(IS_TIMESTAMP_EDGE(TimeStampEdge));
  36              		.loc 1 176 3 view .LVU1
 177:../../Drivers/STM32L5xx_HAL_Driver/Src/stm32l5xx_hal_rtc_ex.c ****   assert_param(IS_RTC_TIMESTAMP_PIN(RTC_TimeStampPin));
  37              		.loc 1 177 3 view .LVU2
 178:../../Drivers/STM32L5xx_HAL_Driver/Src/stm32l5xx_hal_rtc_ex.c ****   UNUSED(RTC_TimeStampPin);
  38              		.loc 1 178 3 view .LVU3
 179:../../Drivers/STM32L5xx_HAL_Driver/Src/stm32l5xx_hal_rtc_ex.c **** 
 180:../../Drivers/STM32L5xx_HAL_Driver/Src/stm32l5xx_hal_rtc_ex.c ****   /* Process Locked */
 181:../../Drivers/STM32L5xx_HAL_Driver/Src/stm32l5xx_hal_rtc_ex.c ****   __HAL_LOCK(hrtc);
  39              		.loc 1 181 3 view .LVU4
  40              		.loc 1 181 3 view .LVU5
  41 0000 90F82430 		ldrb	r3, [r0, #36]	@ zero_extendqisi2
  42 0004 012B     		cmp	r3, #1
  43 0006 1FD0     		beq	.L3
  44              		.loc 1 181 3 discriminator 2 view .LVU6
  45 0008 4FF0010C 		mov	ip, #1
  46 000c 80F824C0 		strb	ip, [r0, #36]
  47              		.loc 1 181 3 discriminator 2 view .LVU7
 182:../../Drivers/STM32L5xx_HAL_Driver/Src/stm32l5xx_hal_rtc_ex.c **** 
ARM GAS  C:\Users\carlos\AppData\Local\Temp\ccaMGGVT.s 			page 5


 183:../../Drivers/STM32L5xx_HAL_Driver/Src/stm32l5xx_hal_rtc_ex.c ****   hrtc->State = HAL_RTC_STATE_BUSY;
  48              		.loc 1 183 3 discriminator 2 view .LVU8
  49              		.loc 1 183 15 is_stmt 0 discriminator 2 view .LVU9
  50 0010 0223     		movs	r3, #2
  51 0012 80F82530 		strb	r3, [r0, #37]
 184:../../Drivers/STM32L5xx_HAL_Driver/Src/stm32l5xx_hal_rtc_ex.c **** 
 185:../../Drivers/STM32L5xx_HAL_Driver/Src/stm32l5xx_hal_rtc_ex.c ****   /* Get the RTC_CR register and clear the bits to be configured */
 186:../../Drivers/STM32L5xx_HAL_Driver/Src/stm32l5xx_hal_rtc_ex.c ****   CLEAR_BIT(RTC->CR, (RTC_CR_TSEDGE | RTC_CR_TSE));
  52              		.loc 1 186 3 is_stmt 1 discriminator 2 view .LVU10
  53 0016 0D4B     		ldr	r3, .L4
  54 0018 9A69     		ldr	r2, [r3, #24]
  55              	.LVL1:
  56              		.loc 1 186 3 is_stmt 0 discriminator 2 view .LVU11
  57 001a 22F40062 		bic	r2, r2, #2048
  58 001e 22F00802 		bic	r2, r2, #8
  59 0022 9A61     		str	r2, [r3, #24]
 187:../../Drivers/STM32L5xx_HAL_Driver/Src/stm32l5xx_hal_rtc_ex.c **** 
 188:../../Drivers/STM32L5xx_HAL_Driver/Src/stm32l5xx_hal_rtc_ex.c ****   /* Disable the write protection for RTC registers */
 189:../../Drivers/STM32L5xx_HAL_Driver/Src/stm32l5xx_hal_rtc_ex.c ****   __HAL_RTC_WRITEPROTECTION_DISABLE(hrtc);
  60              		.loc 1 189 3 is_stmt 1 discriminator 2 view .LVU12
  61              		.loc 1 189 3 discriminator 2 view .LVU13
  62 0024 CA22     		movs	r2, #202
  63 0026 5A62     		str	r2, [r3, #36]
  64              		.loc 1 189 3 discriminator 2 view .LVU14
  65 0028 5322     		movs	r2, #83
  66 002a 5A62     		str	r2, [r3, #36]
  67              		.loc 1 189 3 discriminator 2 view .LVU15
 190:../../Drivers/STM32L5xx_HAL_Driver/Src/stm32l5xx_hal_rtc_ex.c **** 
 191:../../Drivers/STM32L5xx_HAL_Driver/Src/stm32l5xx_hal_rtc_ex.c ****   /* Configure the Time Stamp TSEDGE and Enable bits */
 192:../../Drivers/STM32L5xx_HAL_Driver/Src/stm32l5xx_hal_rtc_ex.c ****   SET_BIT(RTC->CR, (uint32_t)TimeStampEdge | RTC_CR_TSE);
  68              		.loc 1 192 3 discriminator 2 view .LVU16
  69 002c 9A69     		ldr	r2, [r3, #24]
  70 002e 1143     		orrs	r1, r1, r2
  71              	.LVL2:
  72              		.loc 1 192 3 is_stmt 0 discriminator 2 view .LVU17
  73 0030 41F40061 		orr	r1, r1, #2048
  74 0034 9961     		str	r1, [r3, #24]
 193:../../Drivers/STM32L5xx_HAL_Driver/Src/stm32l5xx_hal_rtc_ex.c **** 
 194:../../Drivers/STM32L5xx_HAL_Driver/Src/stm32l5xx_hal_rtc_ex.c ****   /* Enable the write protection for RTC registers */
 195:../../Drivers/STM32L5xx_HAL_Driver/Src/stm32l5xx_hal_rtc_ex.c ****   __HAL_RTC_WRITEPROTECTION_ENABLE(hrtc);
  75              		.loc 1 195 3 is_stmt 1 discriminator 2 view .LVU18
  76              		.loc 1 195 3 discriminator 2 view .LVU19
  77 0036 FF22     		movs	r2, #255
  78 0038 5A62     		str	r2, [r3, #36]
  79              		.loc 1 195 3 discriminator 2 view .LVU20
 196:../../Drivers/STM32L5xx_HAL_Driver/Src/stm32l5xx_hal_rtc_ex.c **** 
 197:../../Drivers/STM32L5xx_HAL_Driver/Src/stm32l5xx_hal_rtc_ex.c ****   /* Change RTC state */
 198:../../Drivers/STM32L5xx_HAL_Driver/Src/stm32l5xx_hal_rtc_ex.c ****   hrtc->State = HAL_RTC_STATE_READY;
  80              		.loc 1 198 3 discriminator 2 view .LVU21
  81              		.loc 1 198 15 is_stmt 0 discriminator 2 view .LVU22
  82 003a 80F825C0 		strb	ip, [r0, #37]
 199:../../Drivers/STM32L5xx_HAL_Driver/Src/stm32l5xx_hal_rtc_ex.c **** 
 200:../../Drivers/STM32L5xx_HAL_Driver/Src/stm32l5xx_hal_rtc_ex.c ****   /* Process Unlocked */
 201:../../Drivers/STM32L5xx_HAL_Driver/Src/stm32l5xx_hal_rtc_ex.c ****   __HAL_UNLOCK(hrtc);
  83              		.loc 1 201 3 is_stmt 1 discriminator 2 view .LVU23
  84              		.loc 1 201 3 discriminator 2 view .LVU24
  85 003e 0023     		movs	r3, #0
ARM GAS  C:\Users\carlos\AppData\Local\Temp\ccaMGGVT.s 			page 6


  86 0040 80F82430 		strb	r3, [r0, #36]
  87              		.loc 1 201 3 discriminator 2 view .LVU25
 202:../../Drivers/STM32L5xx_HAL_Driver/Src/stm32l5xx_hal_rtc_ex.c **** 
 203:../../Drivers/STM32L5xx_HAL_Driver/Src/stm32l5xx_hal_rtc_ex.c ****   return HAL_OK;
  88              		.loc 1 203 3 discriminator 2 view .LVU26
  89              		.loc 1 203 10 is_stmt 0 discriminator 2 view .LVU27
  90 0044 1846     		mov	r0, r3
  91              	.LVL3:
  92              		.loc 1 203 10 discriminator 2 view .LVU28
  93 0046 7047     		bx	lr
  94              	.LVL4:
  95              	.L3:
 181:../../Drivers/STM32L5xx_HAL_Driver/Src/stm32l5xx_hal_rtc_ex.c **** 
  96              		.loc 1 181 3 view .LVU29
  97 0048 0220     		movs	r0, #2
  98              	.LVL5:
 204:../../Drivers/STM32L5xx_HAL_Driver/Src/stm32l5xx_hal_rtc_ex.c **** }
  99              		.loc 1 204 1 view .LVU30
 100 004a 7047     		bx	lr
 101              	.L5:
 102              		.align	2
 103              	.L4:
 104 004c 00280050 		.word	1342187520
 105              		.cfi_endproc
 106              	.LFE202:
 108              		.section	.text.HAL_RTCEx_SetTimeStamp_IT,"ax",%progbits
 109              		.align	1
 110              		.global	HAL_RTCEx_SetTimeStamp_IT
 111              		.syntax unified
 112              		.thumb
 113              		.thumb_func
 114              		.fpu fpv4-sp-d16
 116              	HAL_RTCEx_SetTimeStamp_IT:
 117              	.LVL6:
 118              	.LFB203:
 205:../../Drivers/STM32L5xx_HAL_Driver/Src/stm32l5xx_hal_rtc_ex.c **** 
 206:../../Drivers/STM32L5xx_HAL_Driver/Src/stm32l5xx_hal_rtc_ex.c **** /**
 207:../../Drivers/STM32L5xx_HAL_Driver/Src/stm32l5xx_hal_rtc_ex.c ****   * @brief  Set TimeStamp with Interrupt.
 208:../../Drivers/STM32L5xx_HAL_Driver/Src/stm32l5xx_hal_rtc_ex.c ****   * @note   This API must be called before enabling the TimeStamp feature.
 209:../../Drivers/STM32L5xx_HAL_Driver/Src/stm32l5xx_hal_rtc_ex.c ****   * @param  hrtc RTC handle
 210:../../Drivers/STM32L5xx_HAL_Driver/Src/stm32l5xx_hal_rtc_ex.c ****   * @param  TimeStampEdge Specifies the pin edge on which the TimeStamp is
 211:../../Drivers/STM32L5xx_HAL_Driver/Src/stm32l5xx_hal_rtc_ex.c ****   *         activated.
 212:../../Drivers/STM32L5xx_HAL_Driver/Src/stm32l5xx_hal_rtc_ex.c ****   *          This parameter can be one of the following values:
 213:../../Drivers/STM32L5xx_HAL_Driver/Src/stm32l5xx_hal_rtc_ex.c ****   *             @arg RTC_TIMESTAMPEDGE_RISING: the Time stamp event occurs on the
 214:../../Drivers/STM32L5xx_HAL_Driver/Src/stm32l5xx_hal_rtc_ex.c ****   *                                        rising edge of the related pin.
 215:../../Drivers/STM32L5xx_HAL_Driver/Src/stm32l5xx_hal_rtc_ex.c ****   *             @arg RTC_TIMESTAMPEDGE_FALLING: the Time stamp event occurs on the
 216:../../Drivers/STM32L5xx_HAL_Driver/Src/stm32l5xx_hal_rtc_ex.c ****   *                                         falling edge of the related pin.
 217:../../Drivers/STM32L5xx_HAL_Driver/Src/stm32l5xx_hal_rtc_ex.c ****   * @param  RTC_TimeStampPin Specifies the RTC TimeStamp Pin.
 218:../../Drivers/STM32L5xx_HAL_Driver/Src/stm32l5xx_hal_rtc_ex.c ****   *          This parameter can be one of the following values:
 219:../../Drivers/STM32L5xx_HAL_Driver/Src/stm32l5xx_hal_rtc_ex.c ****   *             @arg RTC_TIMESTAMPPIN_DEFAULT: PC13 is selected as RTC TimeStamp Pin.
 220:../../Drivers/STM32L5xx_HAL_Driver/Src/stm32l5xx_hal_rtc_ex.c ****   *               The RTC TimeStamp Pin is per default PC13, but for reasons of
 221:../../Drivers/STM32L5xx_HAL_Driver/Src/stm32l5xx_hal_rtc_ex.c ****   *               compatibility, this parameter is required.
 222:../../Drivers/STM32L5xx_HAL_Driver/Src/stm32l5xx_hal_rtc_ex.c ****   * @retval HAL status
 223:../../Drivers/STM32L5xx_HAL_Driver/Src/stm32l5xx_hal_rtc_ex.c ****   */
 224:../../Drivers/STM32L5xx_HAL_Driver/Src/stm32l5xx_hal_rtc_ex.c **** HAL_StatusTypeDef HAL_RTCEx_SetTimeStamp_IT(RTC_HandleTypeDef *hrtc, uint32_t TimeStampEdge, uint32
 225:../../Drivers/STM32L5xx_HAL_Driver/Src/stm32l5xx_hal_rtc_ex.c **** {
 119              		.loc 1 225 1 is_stmt 1 view -0
ARM GAS  C:\Users\carlos\AppData\Local\Temp\ccaMGGVT.s 			page 7


 120              		.cfi_startproc
 121              		@ args = 0, pretend = 0, frame = 0
 122              		@ frame_needed = 0, uses_anonymous_args = 0
 123              		@ link register save eliminated.
 226:../../Drivers/STM32L5xx_HAL_Driver/Src/stm32l5xx_hal_rtc_ex.c ****   /* Check the parameters */
 227:../../Drivers/STM32L5xx_HAL_Driver/Src/stm32l5xx_hal_rtc_ex.c ****   assert_param(IS_TIMESTAMP_EDGE(TimeStampEdge));
 124              		.loc 1 227 3 view .LVU32
 228:../../Drivers/STM32L5xx_HAL_Driver/Src/stm32l5xx_hal_rtc_ex.c ****   assert_param(IS_RTC_TIMESTAMP_PIN(RTC_TimeStampPin));
 125              		.loc 1 228 3 view .LVU33
 229:../../Drivers/STM32L5xx_HAL_Driver/Src/stm32l5xx_hal_rtc_ex.c ****   UNUSED(RTC_TimeStampPin);
 126              		.loc 1 229 3 view .LVU34
 230:../../Drivers/STM32L5xx_HAL_Driver/Src/stm32l5xx_hal_rtc_ex.c **** 
 231:../../Drivers/STM32L5xx_HAL_Driver/Src/stm32l5xx_hal_rtc_ex.c ****   /* Process Locked */
 232:../../Drivers/STM32L5xx_HAL_Driver/Src/stm32l5xx_hal_rtc_ex.c ****   __HAL_LOCK(hrtc);
 127              		.loc 1 232 3 view .LVU35
 128              		.loc 1 232 3 view .LVU36
 129 0000 90F82430 		ldrb	r3, [r0, #36]	@ zero_extendqisi2
 130 0004 012B     		cmp	r3, #1
 131 0006 28D0     		beq	.L8
 132              		.loc 1 232 3 discriminator 2 view .LVU37
 133 0008 4FF0010C 		mov	ip, #1
 134 000c 80F824C0 		strb	ip, [r0, #36]
 135              		.loc 1 232 3 discriminator 2 view .LVU38
 233:../../Drivers/STM32L5xx_HAL_Driver/Src/stm32l5xx_hal_rtc_ex.c **** 
 234:../../Drivers/STM32L5xx_HAL_Driver/Src/stm32l5xx_hal_rtc_ex.c ****   hrtc->State = HAL_RTC_STATE_BUSY;
 136              		.loc 1 234 3 discriminator 2 view .LVU39
 137              		.loc 1 234 15 is_stmt 0 discriminator 2 view .LVU40
 138 0010 0223     		movs	r3, #2
 139 0012 80F82530 		strb	r3, [r0, #37]
 235:../../Drivers/STM32L5xx_HAL_Driver/Src/stm32l5xx_hal_rtc_ex.c **** 
 236:../../Drivers/STM32L5xx_HAL_Driver/Src/stm32l5xx_hal_rtc_ex.c ****   /* Disable the write protection for RTC registers */
 237:../../Drivers/STM32L5xx_HAL_Driver/Src/stm32l5xx_hal_rtc_ex.c ****   __HAL_RTC_WRITEPROTECTION_DISABLE(hrtc);
 140              		.loc 1 237 3 is_stmt 1 discriminator 2 view .LVU41
 141              		.loc 1 237 3 discriminator 2 view .LVU42
 142 0016 124B     		ldr	r3, .L9
 143 0018 CA22     		movs	r2, #202
 144              	.LVL7:
 145              		.loc 1 237 3 is_stmt 0 discriminator 2 view .LVU43
 146 001a 5A62     		str	r2, [r3, #36]
 147              		.loc 1 237 3 is_stmt 1 discriminator 2 view .LVU44
 148 001c 5322     		movs	r2, #83
 149 001e 5A62     		str	r2, [r3, #36]
 150              		.loc 1 237 3 discriminator 2 view .LVU45
 238:../../Drivers/STM32L5xx_HAL_Driver/Src/stm32l5xx_hal_rtc_ex.c **** 
 239:../../Drivers/STM32L5xx_HAL_Driver/Src/stm32l5xx_hal_rtc_ex.c ****   /* Get the RTC_CR register and clear the bits to be configured */
 240:../../Drivers/STM32L5xx_HAL_Driver/Src/stm32l5xx_hal_rtc_ex.c ****   CLEAR_BIT(RTC->CR, (RTC_CR_TSEDGE | RTC_CR_TSE | RTC_CR_TSIE));
 151              		.loc 1 240 3 discriminator 2 view .LVU46
 152 0020 9A69     		ldr	r2, [r3, #24]
 153 0022 22F40842 		bic	r2, r2, #34816
 154 0026 22F00802 		bic	r2, r2, #8
 155 002a 9A61     		str	r2, [r3, #24]
 241:../../Drivers/STM32L5xx_HAL_Driver/Src/stm32l5xx_hal_rtc_ex.c **** 
 242:../../Drivers/STM32L5xx_HAL_Driver/Src/stm32l5xx_hal_rtc_ex.c ****   /* Configure the Time Stamp TSEDGE before Enable bit to avoid unwanted TSF setting. */
 243:../../Drivers/STM32L5xx_HAL_Driver/Src/stm32l5xx_hal_rtc_ex.c ****   SET_BIT(RTC->CR, (uint32_t)TimeStampEdge);
 156              		.loc 1 243 3 discriminator 2 view .LVU47
 157 002c 9A69     		ldr	r2, [r3, #24]
 158 002e 1143     		orrs	r1, r1, r2
ARM GAS  C:\Users\carlos\AppData\Local\Temp\ccaMGGVT.s 			page 8


 159              	.LVL8:
 160              		.loc 1 243 3 is_stmt 0 discriminator 2 view .LVU48
 161 0030 9961     		str	r1, [r3, #24]
 244:../../Drivers/STM32L5xx_HAL_Driver/Src/stm32l5xx_hal_rtc_ex.c **** 
 245:../../Drivers/STM32L5xx_HAL_Driver/Src/stm32l5xx_hal_rtc_ex.c ****   /* Enable timestamp and IT */
 246:../../Drivers/STM32L5xx_HAL_Driver/Src/stm32l5xx_hal_rtc_ex.c ****   SET_BIT(RTC->CR, RTC_CR_TSE | RTC_CR_TSIE);
 162              		.loc 1 246 3 is_stmt 1 discriminator 2 view .LVU49
 163 0032 9A69     		ldr	r2, [r3, #24]
 164 0034 42F40842 		orr	r2, r2, #34816
 165 0038 9A61     		str	r2, [r3, #24]
 247:../../Drivers/STM32L5xx_HAL_Driver/Src/stm32l5xx_hal_rtc_ex.c **** 
 248:../../Drivers/STM32L5xx_HAL_Driver/Src/stm32l5xx_hal_rtc_ex.c ****   /* Enable the write protection for RTC registers */
 249:../../Drivers/STM32L5xx_HAL_Driver/Src/stm32l5xx_hal_rtc_ex.c ****   __HAL_RTC_WRITEPROTECTION_ENABLE(hrtc);
 166              		.loc 1 249 3 discriminator 2 view .LVU50
 167              		.loc 1 249 3 discriminator 2 view .LVU51
 168 003a FF22     		movs	r2, #255
 169 003c 5A62     		str	r2, [r3, #36]
 170              		.loc 1 249 3 discriminator 2 view .LVU52
 250:../../Drivers/STM32L5xx_HAL_Driver/Src/stm32l5xx_hal_rtc_ex.c **** 
 251:../../Drivers/STM32L5xx_HAL_Driver/Src/stm32l5xx_hal_rtc_ex.c ****   /* RTC timestamp Interrupt Configuration: EXTI configuration */
 252:../../Drivers/STM32L5xx_HAL_Driver/Src/stm32l5xx_hal_rtc_ex.c ****   __HAL_RTC_TIMESTAMP_EXTI_ENABLE_IT();
 171              		.loc 1 252 3 discriminator 2 view .LVU53
 172 003e 094A     		ldr	r2, .L9+4
 173 0040 D2F88030 		ldr	r3, [r2, #128]
 174 0044 43F48023 		orr	r3, r3, #262144
 175 0048 C2F88030 		str	r3, [r2, #128]
 253:../../Drivers/STM32L5xx_HAL_Driver/Src/stm32l5xx_hal_rtc_ex.c **** 
 254:../../Drivers/STM32L5xx_HAL_Driver/Src/stm32l5xx_hal_rtc_ex.c ****   hrtc->State = HAL_RTC_STATE_READY;
 176              		.loc 1 254 3 discriminator 2 view .LVU54
 177              		.loc 1 254 15 is_stmt 0 discriminator 2 view .LVU55
 178 004c 80F825C0 		strb	ip, [r0, #37]
 255:../../Drivers/STM32L5xx_HAL_Driver/Src/stm32l5xx_hal_rtc_ex.c **** 
 256:../../Drivers/STM32L5xx_HAL_Driver/Src/stm32l5xx_hal_rtc_ex.c ****   /* Process Unlocked */
 257:../../Drivers/STM32L5xx_HAL_Driver/Src/stm32l5xx_hal_rtc_ex.c ****   __HAL_UNLOCK(hrtc);
 179              		.loc 1 257 3 is_stmt 1 discriminator 2 view .LVU56
 180              		.loc 1 257 3 discriminator 2 view .LVU57
 181 0050 0023     		movs	r3, #0
 182 0052 80F82430 		strb	r3, [r0, #36]
 183              		.loc 1 257 3 discriminator 2 view .LVU58
 258:../../Drivers/STM32L5xx_HAL_Driver/Src/stm32l5xx_hal_rtc_ex.c **** 
 259:../../Drivers/STM32L5xx_HAL_Driver/Src/stm32l5xx_hal_rtc_ex.c ****   return HAL_OK;
 184              		.loc 1 259 3 discriminator 2 view .LVU59
 185              		.loc 1 259 10 is_stmt 0 discriminator 2 view .LVU60
 186 0056 1846     		mov	r0, r3
 187              	.LVL9:
 188              		.loc 1 259 10 discriminator 2 view .LVU61
 189 0058 7047     		bx	lr
 190              	.LVL10:
 191              	.L8:
 232:../../Drivers/STM32L5xx_HAL_Driver/Src/stm32l5xx_hal_rtc_ex.c **** 
 192              		.loc 1 232 3 view .LVU62
 193 005a 0220     		movs	r0, #2
 194              	.LVL11:
 260:../../Drivers/STM32L5xx_HAL_Driver/Src/stm32l5xx_hal_rtc_ex.c **** }
 195              		.loc 1 260 1 view .LVU63
 196 005c 7047     		bx	lr
 197              	.L10:
ARM GAS  C:\Users\carlos\AppData\Local\Temp\ccaMGGVT.s 			page 9


 198 005e 00BF     		.align	2
 199              	.L9:
 200 0060 00280050 		.word	1342187520
 201 0064 00F40250 		.word	1342370816
 202              		.cfi_endproc
 203              	.LFE203:
 205              		.section	.text.HAL_RTCEx_DeactivateTimeStamp,"ax",%progbits
 206              		.align	1
 207              		.global	HAL_RTCEx_DeactivateTimeStamp
 208              		.syntax unified
 209              		.thumb
 210              		.thumb_func
 211              		.fpu fpv4-sp-d16
 213              	HAL_RTCEx_DeactivateTimeStamp:
 214              	.LVL12:
 215              	.LFB204:
 261:../../Drivers/STM32L5xx_HAL_Driver/Src/stm32l5xx_hal_rtc_ex.c **** 
 262:../../Drivers/STM32L5xx_HAL_Driver/Src/stm32l5xx_hal_rtc_ex.c **** /**
 263:../../Drivers/STM32L5xx_HAL_Driver/Src/stm32l5xx_hal_rtc_ex.c ****   * @brief  Deactivate TimeStamp.
 264:../../Drivers/STM32L5xx_HAL_Driver/Src/stm32l5xx_hal_rtc_ex.c ****   * @param  hrtc RTC handle
 265:../../Drivers/STM32L5xx_HAL_Driver/Src/stm32l5xx_hal_rtc_ex.c ****   * @retval HAL status
 266:../../Drivers/STM32L5xx_HAL_Driver/Src/stm32l5xx_hal_rtc_ex.c ****   */
 267:../../Drivers/STM32L5xx_HAL_Driver/Src/stm32l5xx_hal_rtc_ex.c **** HAL_StatusTypeDef HAL_RTCEx_DeactivateTimeStamp(RTC_HandleTypeDef *hrtc)
 268:../../Drivers/STM32L5xx_HAL_Driver/Src/stm32l5xx_hal_rtc_ex.c **** {
 216              		.loc 1 268 1 is_stmt 1 view -0
 217              		.cfi_startproc
 218              		@ args = 0, pretend = 0, frame = 0
 219              		@ frame_needed = 0, uses_anonymous_args = 0
 220              		@ link register save eliminated.
 269:../../Drivers/STM32L5xx_HAL_Driver/Src/stm32l5xx_hal_rtc_ex.c ****   /* Process Locked */
 270:../../Drivers/STM32L5xx_HAL_Driver/Src/stm32l5xx_hal_rtc_ex.c ****   __HAL_LOCK(hrtc);
 221              		.loc 1 270 3 view .LVU65
 222              		.loc 1 270 3 view .LVU66
 223 0000 90F82430 		ldrb	r3, [r0, #36]	@ zero_extendqisi2
 224 0004 012B     		cmp	r3, #1
 225 0006 19D0     		beq	.L13
 226              		.loc 1 270 3 discriminator 2 view .LVU67
 227 0008 0121     		movs	r1, #1
 228 000a 80F82410 		strb	r1, [r0, #36]
 229              		.loc 1 270 3 discriminator 2 view .LVU68
 271:../../Drivers/STM32L5xx_HAL_Driver/Src/stm32l5xx_hal_rtc_ex.c **** 
 272:../../Drivers/STM32L5xx_HAL_Driver/Src/stm32l5xx_hal_rtc_ex.c ****   hrtc->State = HAL_RTC_STATE_BUSY;
 230              		.loc 1 272 3 discriminator 2 view .LVU69
 231              		.loc 1 272 15 is_stmt 0 discriminator 2 view .LVU70
 232 000e 0223     		movs	r3, #2
 233 0010 80F82530 		strb	r3, [r0, #37]
 273:../../Drivers/STM32L5xx_HAL_Driver/Src/stm32l5xx_hal_rtc_ex.c **** 
 274:../../Drivers/STM32L5xx_HAL_Driver/Src/stm32l5xx_hal_rtc_ex.c ****   /* Disable the write protection for RTC registers */
 275:../../Drivers/STM32L5xx_HAL_Driver/Src/stm32l5xx_hal_rtc_ex.c ****   __HAL_RTC_WRITEPROTECTION_DISABLE(hrtc);
 234              		.loc 1 275 3 is_stmt 1 discriminator 2 view .LVU71
 235              		.loc 1 275 3 discriminator 2 view .LVU72
 236 0014 0A4B     		ldr	r3, .L14
 237 0016 CA22     		movs	r2, #202
 238 0018 5A62     		str	r2, [r3, #36]
 239              		.loc 1 275 3 discriminator 2 view .LVU73
 240 001a 5322     		movs	r2, #83
 241 001c 5A62     		str	r2, [r3, #36]
ARM GAS  C:\Users\carlos\AppData\Local\Temp\ccaMGGVT.s 			page 10


 242              		.loc 1 275 3 discriminator 2 view .LVU74
 276:../../Drivers/STM32L5xx_HAL_Driver/Src/stm32l5xx_hal_rtc_ex.c **** 
 277:../../Drivers/STM32L5xx_HAL_Driver/Src/stm32l5xx_hal_rtc_ex.c ****   /* In case of interrupt mode is used, the interrupt source must disabled */
 278:../../Drivers/STM32L5xx_HAL_Driver/Src/stm32l5xx_hal_rtc_ex.c ****   CLEAR_BIT(RTC->CR, (RTC_CR_TSEDGE | RTC_CR_TSE | RTC_CR_TSIE));
 243              		.loc 1 278 3 discriminator 2 view .LVU75
 244 001e 9A69     		ldr	r2, [r3, #24]
 245 0020 22F40842 		bic	r2, r2, #34816
 246 0024 22F00802 		bic	r2, r2, #8
 247 0028 9A61     		str	r2, [r3, #24]
 279:../../Drivers/STM32L5xx_HAL_Driver/Src/stm32l5xx_hal_rtc_ex.c **** 
 280:../../Drivers/STM32L5xx_HAL_Driver/Src/stm32l5xx_hal_rtc_ex.c ****   /* Enable the write protection for RTC registers */
 281:../../Drivers/STM32L5xx_HAL_Driver/Src/stm32l5xx_hal_rtc_ex.c ****   __HAL_RTC_WRITEPROTECTION_ENABLE(hrtc);
 248              		.loc 1 281 3 discriminator 2 view .LVU76
 249              		.loc 1 281 3 discriminator 2 view .LVU77
 250 002a FF22     		movs	r2, #255
 251 002c 5A62     		str	r2, [r3, #36]
 252              		.loc 1 281 3 discriminator 2 view .LVU78
 282:../../Drivers/STM32L5xx_HAL_Driver/Src/stm32l5xx_hal_rtc_ex.c **** 
 283:../../Drivers/STM32L5xx_HAL_Driver/Src/stm32l5xx_hal_rtc_ex.c ****   hrtc->State = HAL_RTC_STATE_READY;
 253              		.loc 1 283 3 discriminator 2 view .LVU79
 254              		.loc 1 283 15 is_stmt 0 discriminator 2 view .LVU80
 255 002e 80F82510 		strb	r1, [r0, #37]
 284:../../Drivers/STM32L5xx_HAL_Driver/Src/stm32l5xx_hal_rtc_ex.c **** 
 285:../../Drivers/STM32L5xx_HAL_Driver/Src/stm32l5xx_hal_rtc_ex.c ****   /* Process Unlocked */
 286:../../Drivers/STM32L5xx_HAL_Driver/Src/stm32l5xx_hal_rtc_ex.c ****   __HAL_UNLOCK(hrtc);
 256              		.loc 1 286 3 is_stmt 1 discriminator 2 view .LVU81
 257              		.loc 1 286 3 discriminator 2 view .LVU82
 258 0032 0023     		movs	r3, #0
 259 0034 80F82430 		strb	r3, [r0, #36]
 260              		.loc 1 286 3 discriminator 2 view .LVU83
 287:../../Drivers/STM32L5xx_HAL_Driver/Src/stm32l5xx_hal_rtc_ex.c **** 
 288:../../Drivers/STM32L5xx_HAL_Driver/Src/stm32l5xx_hal_rtc_ex.c ****   return HAL_OK;
 261              		.loc 1 288 3 discriminator 2 view .LVU84
 262              		.loc 1 288 10 is_stmt 0 discriminator 2 view .LVU85
 263 0038 1846     		mov	r0, r3
 264              	.LVL13:
 265              		.loc 1 288 10 discriminator 2 view .LVU86
 266 003a 7047     		bx	lr
 267              	.LVL14:
 268              	.L13:
 270:../../Drivers/STM32L5xx_HAL_Driver/Src/stm32l5xx_hal_rtc_ex.c **** 
 269              		.loc 1 270 3 view .LVU87
 270 003c 0220     		movs	r0, #2
 271              	.LVL15:
 289:../../Drivers/STM32L5xx_HAL_Driver/Src/stm32l5xx_hal_rtc_ex.c **** }
 272              		.loc 1 289 1 view .LVU88
 273 003e 7047     		bx	lr
 274              	.L15:
 275              		.align	2
 276              	.L14:
 277 0040 00280050 		.word	1342187520
 278              		.cfi_endproc
 279              	.LFE204:
 281              		.section	.text.HAL_RTCEx_SetInternalTimeStamp,"ax",%progbits
 282              		.align	1
 283              		.global	HAL_RTCEx_SetInternalTimeStamp
 284              		.syntax unified
ARM GAS  C:\Users\carlos\AppData\Local\Temp\ccaMGGVT.s 			page 11


 285              		.thumb
 286              		.thumb_func
 287              		.fpu fpv4-sp-d16
 289              	HAL_RTCEx_SetInternalTimeStamp:
 290              	.LVL16:
 291              	.LFB205:
 290:../../Drivers/STM32L5xx_HAL_Driver/Src/stm32l5xx_hal_rtc_ex.c **** 
 291:../../Drivers/STM32L5xx_HAL_Driver/Src/stm32l5xx_hal_rtc_ex.c **** /**
 292:../../Drivers/STM32L5xx_HAL_Driver/Src/stm32l5xx_hal_rtc_ex.c ****   * @brief  Set Internal TimeStamp.
 293:../../Drivers/STM32L5xx_HAL_Driver/Src/stm32l5xx_hal_rtc_ex.c ****   * @note   This API must be called before enabling the internal TimeStamp feature.
 294:../../Drivers/STM32L5xx_HAL_Driver/Src/stm32l5xx_hal_rtc_ex.c ****   * @param  hrtc RTC handle
 295:../../Drivers/STM32L5xx_HAL_Driver/Src/stm32l5xx_hal_rtc_ex.c ****   * @retval HAL status
 296:../../Drivers/STM32L5xx_HAL_Driver/Src/stm32l5xx_hal_rtc_ex.c ****   */
 297:../../Drivers/STM32L5xx_HAL_Driver/Src/stm32l5xx_hal_rtc_ex.c **** HAL_StatusTypeDef HAL_RTCEx_SetInternalTimeStamp(RTC_HandleTypeDef *hrtc)
 298:../../Drivers/STM32L5xx_HAL_Driver/Src/stm32l5xx_hal_rtc_ex.c **** {
 292              		.loc 1 298 1 is_stmt 1 view -0
 293              		.cfi_startproc
 294              		@ args = 0, pretend = 0, frame = 0
 295              		@ frame_needed = 0, uses_anonymous_args = 0
 296              		@ link register save eliminated.
 299:../../Drivers/STM32L5xx_HAL_Driver/Src/stm32l5xx_hal_rtc_ex.c ****   /* Process Locked */
 300:../../Drivers/STM32L5xx_HAL_Driver/Src/stm32l5xx_hal_rtc_ex.c ****   __HAL_LOCK(hrtc);
 297              		.loc 1 300 3 view .LVU90
 298              		.loc 1 300 3 view .LVU91
 299 0000 90F82430 		ldrb	r3, [r0, #36]	@ zero_extendqisi2
 300 0004 012B     		cmp	r3, #1
 301 0006 17D0     		beq	.L18
 302              		.loc 1 300 3 discriminator 2 view .LVU92
 303 0008 0121     		movs	r1, #1
 304 000a 80F82410 		strb	r1, [r0, #36]
 305              		.loc 1 300 3 discriminator 2 view .LVU93
 301:../../Drivers/STM32L5xx_HAL_Driver/Src/stm32l5xx_hal_rtc_ex.c **** 
 302:../../Drivers/STM32L5xx_HAL_Driver/Src/stm32l5xx_hal_rtc_ex.c ****   hrtc->State = HAL_RTC_STATE_BUSY;
 306              		.loc 1 302 3 discriminator 2 view .LVU94
 307              		.loc 1 302 15 is_stmt 0 discriminator 2 view .LVU95
 308 000e 0223     		movs	r3, #2
 309 0010 80F82530 		strb	r3, [r0, #37]
 303:../../Drivers/STM32L5xx_HAL_Driver/Src/stm32l5xx_hal_rtc_ex.c **** 
 304:../../Drivers/STM32L5xx_HAL_Driver/Src/stm32l5xx_hal_rtc_ex.c ****   /* Disable the write protection for RTC registers */
 305:../../Drivers/STM32L5xx_HAL_Driver/Src/stm32l5xx_hal_rtc_ex.c ****   __HAL_RTC_WRITEPROTECTION_DISABLE(hrtc);
 310              		.loc 1 305 3 is_stmt 1 discriminator 2 view .LVU96
 311              		.loc 1 305 3 discriminator 2 view .LVU97
 312 0014 094B     		ldr	r3, .L19
 313 0016 CA22     		movs	r2, #202
 314 0018 5A62     		str	r2, [r3, #36]
 315              		.loc 1 305 3 discriminator 2 view .LVU98
 316 001a 5322     		movs	r2, #83
 317 001c 5A62     		str	r2, [r3, #36]
 318              		.loc 1 305 3 discriminator 2 view .LVU99
 306:../../Drivers/STM32L5xx_HAL_Driver/Src/stm32l5xx_hal_rtc_ex.c **** 
 307:../../Drivers/STM32L5xx_HAL_Driver/Src/stm32l5xx_hal_rtc_ex.c ****   /* Configure the internal Time Stamp Enable bits */
 308:../../Drivers/STM32L5xx_HAL_Driver/Src/stm32l5xx_hal_rtc_ex.c ****   SET_BIT(RTC->CR, RTC_CR_ITSE);
 319              		.loc 1 308 3 discriminator 2 view .LVU100
 320 001e 9A69     		ldr	r2, [r3, #24]
 321 0020 42F08072 		orr	r2, r2, #16777216
 322 0024 9A61     		str	r2, [r3, #24]
 309:../../Drivers/STM32L5xx_HAL_Driver/Src/stm32l5xx_hal_rtc_ex.c **** 
ARM GAS  C:\Users\carlos\AppData\Local\Temp\ccaMGGVT.s 			page 12


 310:../../Drivers/STM32L5xx_HAL_Driver/Src/stm32l5xx_hal_rtc_ex.c ****   /* Enable the write protection for RTC registers */
 311:../../Drivers/STM32L5xx_HAL_Driver/Src/stm32l5xx_hal_rtc_ex.c ****   __HAL_RTC_WRITEPROTECTION_ENABLE(hrtc);
 323              		.loc 1 311 3 discriminator 2 view .LVU101
 324              		.loc 1 311 3 discriminator 2 view .LVU102
 325 0026 FF22     		movs	r2, #255
 326 0028 5A62     		str	r2, [r3, #36]
 327              		.loc 1 311 3 discriminator 2 view .LVU103
 312:../../Drivers/STM32L5xx_HAL_Driver/Src/stm32l5xx_hal_rtc_ex.c **** 
 313:../../Drivers/STM32L5xx_HAL_Driver/Src/stm32l5xx_hal_rtc_ex.c ****   /* Change RTC state */
 314:../../Drivers/STM32L5xx_HAL_Driver/Src/stm32l5xx_hal_rtc_ex.c ****   hrtc->State = HAL_RTC_STATE_READY;
 328              		.loc 1 314 3 discriminator 2 view .LVU104
 329              		.loc 1 314 15 is_stmt 0 discriminator 2 view .LVU105
 330 002a 80F82510 		strb	r1, [r0, #37]
 315:../../Drivers/STM32L5xx_HAL_Driver/Src/stm32l5xx_hal_rtc_ex.c **** 
 316:../../Drivers/STM32L5xx_HAL_Driver/Src/stm32l5xx_hal_rtc_ex.c ****   /* Process Unlocked */
 317:../../Drivers/STM32L5xx_HAL_Driver/Src/stm32l5xx_hal_rtc_ex.c ****   __HAL_UNLOCK(hrtc);
 331              		.loc 1 317 3 is_stmt 1 discriminator 2 view .LVU106
 332              		.loc 1 317 3 discriminator 2 view .LVU107
 333 002e 0023     		movs	r3, #0
 334 0030 80F82430 		strb	r3, [r0, #36]
 335              		.loc 1 317 3 discriminator 2 view .LVU108
 318:../../Drivers/STM32L5xx_HAL_Driver/Src/stm32l5xx_hal_rtc_ex.c **** 
 319:../../Drivers/STM32L5xx_HAL_Driver/Src/stm32l5xx_hal_rtc_ex.c ****   return HAL_OK;
 336              		.loc 1 319 3 discriminator 2 view .LVU109
 337              		.loc 1 319 10 is_stmt 0 discriminator 2 view .LVU110
 338 0034 1846     		mov	r0, r3
 339              	.LVL17:
 340              		.loc 1 319 10 discriminator 2 view .LVU111
 341 0036 7047     		bx	lr
 342              	.LVL18:
 343              	.L18:
 300:../../Drivers/STM32L5xx_HAL_Driver/Src/stm32l5xx_hal_rtc_ex.c **** 
 344              		.loc 1 300 3 view .LVU112
 345 0038 0220     		movs	r0, #2
 346              	.LVL19:
 320:../../Drivers/STM32L5xx_HAL_Driver/Src/stm32l5xx_hal_rtc_ex.c **** }
 347              		.loc 1 320 1 view .LVU113
 348 003a 7047     		bx	lr
 349              	.L20:
 350              		.align	2
 351              	.L19:
 352 003c 00280050 		.word	1342187520
 353              		.cfi_endproc
 354              	.LFE205:
 356              		.section	.text.HAL_RTCEx_DeactivateInternalTimeStamp,"ax",%progbits
 357              		.align	1
 358              		.global	HAL_RTCEx_DeactivateInternalTimeStamp
 359              		.syntax unified
 360              		.thumb
 361              		.thumb_func
 362              		.fpu fpv4-sp-d16
 364              	HAL_RTCEx_DeactivateInternalTimeStamp:
 365              	.LVL20:
 366              	.LFB206:
 321:../../Drivers/STM32L5xx_HAL_Driver/Src/stm32l5xx_hal_rtc_ex.c **** 
 322:../../Drivers/STM32L5xx_HAL_Driver/Src/stm32l5xx_hal_rtc_ex.c **** /**
 323:../../Drivers/STM32L5xx_HAL_Driver/Src/stm32l5xx_hal_rtc_ex.c ****   * @brief  Deactivate Internal TimeStamp.
ARM GAS  C:\Users\carlos\AppData\Local\Temp\ccaMGGVT.s 			page 13


 324:../../Drivers/STM32L5xx_HAL_Driver/Src/stm32l5xx_hal_rtc_ex.c ****   * @param  hrtc RTC handle
 325:../../Drivers/STM32L5xx_HAL_Driver/Src/stm32l5xx_hal_rtc_ex.c ****   * @retval HAL status
 326:../../Drivers/STM32L5xx_HAL_Driver/Src/stm32l5xx_hal_rtc_ex.c ****   */
 327:../../Drivers/STM32L5xx_HAL_Driver/Src/stm32l5xx_hal_rtc_ex.c **** HAL_StatusTypeDef HAL_RTCEx_DeactivateInternalTimeStamp(RTC_HandleTypeDef *hrtc)
 328:../../Drivers/STM32L5xx_HAL_Driver/Src/stm32l5xx_hal_rtc_ex.c **** {
 367              		.loc 1 328 1 is_stmt 1 view -0
 368              		.cfi_startproc
 369              		@ args = 0, pretend = 0, frame = 0
 370              		@ frame_needed = 0, uses_anonymous_args = 0
 371              		@ link register save eliminated.
 329:../../Drivers/STM32L5xx_HAL_Driver/Src/stm32l5xx_hal_rtc_ex.c ****   /* Process Locked */
 330:../../Drivers/STM32L5xx_HAL_Driver/Src/stm32l5xx_hal_rtc_ex.c ****   __HAL_LOCK(hrtc);
 372              		.loc 1 330 3 view .LVU115
 373              		.loc 1 330 3 view .LVU116
 374 0000 90F82430 		ldrb	r3, [r0, #36]	@ zero_extendqisi2
 375 0004 012B     		cmp	r3, #1
 376 0006 17D0     		beq	.L23
 377              		.loc 1 330 3 discriminator 2 view .LVU117
 378 0008 0121     		movs	r1, #1
 379 000a 80F82410 		strb	r1, [r0, #36]
 380              		.loc 1 330 3 discriminator 2 view .LVU118
 331:../../Drivers/STM32L5xx_HAL_Driver/Src/stm32l5xx_hal_rtc_ex.c **** 
 332:../../Drivers/STM32L5xx_HAL_Driver/Src/stm32l5xx_hal_rtc_ex.c ****   hrtc->State = HAL_RTC_STATE_BUSY;
 381              		.loc 1 332 3 discriminator 2 view .LVU119
 382              		.loc 1 332 15 is_stmt 0 discriminator 2 view .LVU120
 383 000e 0223     		movs	r3, #2
 384 0010 80F82530 		strb	r3, [r0, #37]
 333:../../Drivers/STM32L5xx_HAL_Driver/Src/stm32l5xx_hal_rtc_ex.c **** 
 334:../../Drivers/STM32L5xx_HAL_Driver/Src/stm32l5xx_hal_rtc_ex.c ****   /* Disable the write protection for RTC registers */
 335:../../Drivers/STM32L5xx_HAL_Driver/Src/stm32l5xx_hal_rtc_ex.c ****   __HAL_RTC_WRITEPROTECTION_DISABLE(hrtc);
 385              		.loc 1 335 3 is_stmt 1 discriminator 2 view .LVU121
 386              		.loc 1 335 3 discriminator 2 view .LVU122
 387 0014 094B     		ldr	r3, .L24
 388 0016 CA22     		movs	r2, #202
 389 0018 5A62     		str	r2, [r3, #36]
 390              		.loc 1 335 3 discriminator 2 view .LVU123
 391 001a 5322     		movs	r2, #83
 392 001c 5A62     		str	r2, [r3, #36]
 393              		.loc 1 335 3 discriminator 2 view .LVU124
 336:../../Drivers/STM32L5xx_HAL_Driver/Src/stm32l5xx_hal_rtc_ex.c **** 
 337:../../Drivers/STM32L5xx_HAL_Driver/Src/stm32l5xx_hal_rtc_ex.c ****   /* Configure the internal Time Stamp Enable bits */
 338:../../Drivers/STM32L5xx_HAL_Driver/Src/stm32l5xx_hal_rtc_ex.c ****   CLEAR_BIT(RTC->CR, RTC_CR_ITSE);
 394              		.loc 1 338 3 discriminator 2 view .LVU125
 395 001e 9A69     		ldr	r2, [r3, #24]
 396 0020 22F08072 		bic	r2, r2, #16777216
 397 0024 9A61     		str	r2, [r3, #24]
 339:../../Drivers/STM32L5xx_HAL_Driver/Src/stm32l5xx_hal_rtc_ex.c **** 
 340:../../Drivers/STM32L5xx_HAL_Driver/Src/stm32l5xx_hal_rtc_ex.c ****   /* Enable the write protection for RTC registers */
 341:../../Drivers/STM32L5xx_HAL_Driver/Src/stm32l5xx_hal_rtc_ex.c ****   __HAL_RTC_WRITEPROTECTION_ENABLE(hrtc);
 398              		.loc 1 341 3 discriminator 2 view .LVU126
 399              		.loc 1 341 3 discriminator 2 view .LVU127
 400 0026 FF22     		movs	r2, #255
 401 0028 5A62     		str	r2, [r3, #36]
 402              		.loc 1 341 3 discriminator 2 view .LVU128
 342:../../Drivers/STM32L5xx_HAL_Driver/Src/stm32l5xx_hal_rtc_ex.c **** 
 343:../../Drivers/STM32L5xx_HAL_Driver/Src/stm32l5xx_hal_rtc_ex.c ****   hrtc->State = HAL_RTC_STATE_READY;
 403              		.loc 1 343 3 discriminator 2 view .LVU129
ARM GAS  C:\Users\carlos\AppData\Local\Temp\ccaMGGVT.s 			page 14


 404              		.loc 1 343 15 is_stmt 0 discriminator 2 view .LVU130
 405 002a 80F82510 		strb	r1, [r0, #37]
 344:../../Drivers/STM32L5xx_HAL_Driver/Src/stm32l5xx_hal_rtc_ex.c **** 
 345:../../Drivers/STM32L5xx_HAL_Driver/Src/stm32l5xx_hal_rtc_ex.c ****   /* Process Unlocked */
 346:../../Drivers/STM32L5xx_HAL_Driver/Src/stm32l5xx_hal_rtc_ex.c ****   __HAL_UNLOCK(hrtc);
 406              		.loc 1 346 3 is_stmt 1 discriminator 2 view .LVU131
 407              		.loc 1 346 3 discriminator 2 view .LVU132
 408 002e 0023     		movs	r3, #0
 409 0030 80F82430 		strb	r3, [r0, #36]
 410              		.loc 1 346 3 discriminator 2 view .LVU133
 347:../../Drivers/STM32L5xx_HAL_Driver/Src/stm32l5xx_hal_rtc_ex.c **** 
 348:../../Drivers/STM32L5xx_HAL_Driver/Src/stm32l5xx_hal_rtc_ex.c ****   return HAL_OK;
 411              		.loc 1 348 3 discriminator 2 view .LVU134
 412              		.loc 1 348 10 is_stmt 0 discriminator 2 view .LVU135
 413 0034 1846     		mov	r0, r3
 414              	.LVL21:
 415              		.loc 1 348 10 discriminator 2 view .LVU136
 416 0036 7047     		bx	lr
 417              	.LVL22:
 418              	.L23:
 330:../../Drivers/STM32L5xx_HAL_Driver/Src/stm32l5xx_hal_rtc_ex.c **** 
 419              		.loc 1 330 3 view .LVU137
 420 0038 0220     		movs	r0, #2
 421              	.LVL23:
 349:../../Drivers/STM32L5xx_HAL_Driver/Src/stm32l5xx_hal_rtc_ex.c **** }
 422              		.loc 1 349 1 view .LVU138
 423 003a 7047     		bx	lr
 424              	.L25:
 425              		.align	2
 426              	.L24:
 427 003c 00280050 		.word	1342187520
 428              		.cfi_endproc
 429              	.LFE206:
 431              		.section	.text.HAL_RTCEx_GetTimeStamp,"ax",%progbits
 432              		.align	1
 433              		.global	HAL_RTCEx_GetTimeStamp
 434              		.syntax unified
 435              		.thumb
 436              		.thumb_func
 437              		.fpu fpv4-sp-d16
 439              	HAL_RTCEx_GetTimeStamp:
 440              	.LVL24:
 441              	.LFB207:
 350:../../Drivers/STM32L5xx_HAL_Driver/Src/stm32l5xx_hal_rtc_ex.c **** 
 351:../../Drivers/STM32L5xx_HAL_Driver/Src/stm32l5xx_hal_rtc_ex.c **** /**
 352:../../Drivers/STM32L5xx_HAL_Driver/Src/stm32l5xx_hal_rtc_ex.c ****   * @brief  Get the RTC TimeStamp value.
 353:../../Drivers/STM32L5xx_HAL_Driver/Src/stm32l5xx_hal_rtc_ex.c ****   * @param  hrtc RTC handle
 354:../../Drivers/STM32L5xx_HAL_Driver/Src/stm32l5xx_hal_rtc_ex.c ****   * @param  sTimeStamp Pointer to Time structure
 355:../../Drivers/STM32L5xx_HAL_Driver/Src/stm32l5xx_hal_rtc_ex.c ****   * @param  sTimeStampDate Pointer to Date structure
 356:../../Drivers/STM32L5xx_HAL_Driver/Src/stm32l5xx_hal_rtc_ex.c ****   * @param  Format specifies the format of the entered parameters.
 357:../../Drivers/STM32L5xx_HAL_Driver/Src/stm32l5xx_hal_rtc_ex.c ****   *          This parameter can be one of the following values:
 358:../../Drivers/STM32L5xx_HAL_Driver/Src/stm32l5xx_hal_rtc_ex.c ****   *             @arg RTC_FORMAT_BIN: Binary data format
 359:../../Drivers/STM32L5xx_HAL_Driver/Src/stm32l5xx_hal_rtc_ex.c ****   *             @arg RTC_FORMAT_BCD: BCD data format
 360:../../Drivers/STM32L5xx_HAL_Driver/Src/stm32l5xx_hal_rtc_ex.c ****   * @retval HAL status
 361:../../Drivers/STM32L5xx_HAL_Driver/Src/stm32l5xx_hal_rtc_ex.c ****   */
 362:../../Drivers/STM32L5xx_HAL_Driver/Src/stm32l5xx_hal_rtc_ex.c **** HAL_StatusTypeDef HAL_RTCEx_GetTimeStamp(RTC_HandleTypeDef *hrtc, RTC_TimeTypeDef *sTimeStamp, RTC_
 363:../../Drivers/STM32L5xx_HAL_Driver/Src/stm32l5xx_hal_rtc_ex.c **** {
ARM GAS  C:\Users\carlos\AppData\Local\Temp\ccaMGGVT.s 			page 15


 442              		.loc 1 363 1 is_stmt 1 view -0
 443              		.cfi_startproc
 444              		@ args = 0, pretend = 0, frame = 0
 445              		@ frame_needed = 0, uses_anonymous_args = 0
 446              		.loc 1 363 1 is_stmt 0 view .LVU140
 447 0000 38B5     		push	{r3, r4, r5, lr}
 448              	.LCFI0:
 449              		.cfi_def_cfa_offset 16
 450              		.cfi_offset 3, -16
 451              		.cfi_offset 4, -12
 452              		.cfi_offset 5, -8
 453              		.cfi_offset 14, -4
 454 0002 0C46     		mov	r4, r1
 455 0004 1546     		mov	r5, r2
 364:../../Drivers/STM32L5xx_HAL_Driver/Src/stm32l5xx_hal_rtc_ex.c ****   uint32_t tmptime, tmpdate;
 456              		.loc 1 364 3 is_stmt 1 view .LVU141
 365:../../Drivers/STM32L5xx_HAL_Driver/Src/stm32l5xx_hal_rtc_ex.c **** 
 366:../../Drivers/STM32L5xx_HAL_Driver/Src/stm32l5xx_hal_rtc_ex.c ****   UNUSED(hrtc);
 457              		.loc 1 366 3 view .LVU142
 367:../../Drivers/STM32L5xx_HAL_Driver/Src/stm32l5xx_hal_rtc_ex.c ****   /* Check the parameters */
 368:../../Drivers/STM32L5xx_HAL_Driver/Src/stm32l5xx_hal_rtc_ex.c ****   assert_param(IS_RTC_FORMAT(Format));
 458              		.loc 1 368 3 view .LVU143
 369:../../Drivers/STM32L5xx_HAL_Driver/Src/stm32l5xx_hal_rtc_ex.c **** 
 370:../../Drivers/STM32L5xx_HAL_Driver/Src/stm32l5xx_hal_rtc_ex.c ****   /* Get the TimeStamp time and date registers values */
 371:../../Drivers/STM32L5xx_HAL_Driver/Src/stm32l5xx_hal_rtc_ex.c ****   tmptime = READ_BIT(RTC->TSTR, RTC_TR_RESERVED_MASK);
 459              		.loc 1 371 3 view .LVU144
 460              		.loc 1 371 13 is_stmt 0 view .LVU145
 461 0006 1F48     		ldr	r0, .L30
 462              	.LVL25:
 463              		.loc 1 371 13 view .LVU146
 464 0008 026B     		ldr	r2, [r0, #48]
 465              	.LVL26:
 372:../../Drivers/STM32L5xx_HAL_Driver/Src/stm32l5xx_hal_rtc_ex.c ****   tmpdate = READ_BIT(RTC->TSDR, RTC_DR_RESERVED_MASK);
 466              		.loc 1 372 3 is_stmt 1 view .LVU147
 467              		.loc 1 372 13 is_stmt 0 view .LVU148
 468 000a 416B     		ldr	r1, [r0, #52]
 469              	.LVL27:
 373:../../Drivers/STM32L5xx_HAL_Driver/Src/stm32l5xx_hal_rtc_ex.c **** 
 374:../../Drivers/STM32L5xx_HAL_Driver/Src/stm32l5xx_hal_rtc_ex.c ****   /* Fill the Time structure fields with the read parameters */
 375:../../Drivers/STM32L5xx_HAL_Driver/Src/stm32l5xx_hal_rtc_ex.c ****   sTimeStamp->Hours = (uint8_t)((tmptime & (RTC_TSTR_HT | RTC_TSTR_HU)) >> RTC_TSTR_HU_Pos);
 470              		.loc 1 375 3 is_stmt 1 view .LVU149
 471              		.loc 1 375 23 is_stmt 0 view .LVU150
 472 000c C2F3054C 		ubfx	ip, r2, #16, #6
 473              		.loc 1 375 21 view .LVU151
 474 0010 84F800C0 		strb	ip, [r4]
 376:../../Drivers/STM32L5xx_HAL_Driver/Src/stm32l5xx_hal_rtc_ex.c ****   sTimeStamp->Minutes = (uint8_t)((tmptime & (RTC_TSTR_MNT | RTC_TSTR_MNU)) >> RTC_TSTR_MNU_Pos);
 475              		.loc 1 376 3 is_stmt 1 view .LVU152
 476              		.loc 1 376 25 is_stmt 0 view .LVU153
 477 0014 C2F3062C 		ubfx	ip, r2, #8, #7
 478              		.loc 1 376 23 view .LVU154
 479 0018 84F801C0 		strb	ip, [r4, #1]
 377:../../Drivers/STM32L5xx_HAL_Driver/Src/stm32l5xx_hal_rtc_ex.c ****   sTimeStamp->Seconds = (uint8_t)((tmptime & (RTC_TSTR_ST | RTC_TSTR_SU)) >> RTC_TSTR_SU_Pos);
 480              		.loc 1 377 3 is_stmt 1 view .LVU155
 481              		.loc 1 377 25 is_stmt 0 view .LVU156
 482 001c 02F07F0C 		and	ip, r2, #127
 483              		.loc 1 377 23 view .LVU157
 484 0020 84F802C0 		strb	ip, [r4, #2]
ARM GAS  C:\Users\carlos\AppData\Local\Temp\ccaMGGVT.s 			page 16


 378:../../Drivers/STM32L5xx_HAL_Driver/Src/stm32l5xx_hal_rtc_ex.c ****   sTimeStamp->TimeFormat = (uint8_t)((tmptime & (RTC_TSTR_PM)) >> RTC_TSTR_PM_Pos);
 485              		.loc 1 378 3 is_stmt 1 view .LVU158
 486              		.loc 1 378 28 is_stmt 0 view .LVU159
 487 0024 C2F38052 		ubfx	r2, r2, #22, #1
 488              	.LVL28:
 489              		.loc 1 378 26 view .LVU160
 490 0028 E270     		strb	r2, [r4, #3]
 379:../../Drivers/STM32L5xx_HAL_Driver/Src/stm32l5xx_hal_rtc_ex.c ****   sTimeStamp->SubSeconds = READ_BIT(RTC->TSSSR, RTC_TSSSR_SS);
 491              		.loc 1 379 3 is_stmt 1 view .LVU161
 492              		.loc 1 379 28 is_stmt 0 view .LVU162
 493 002a 826B     		ldr	r2, [r0, #56]
 494 002c 92B2     		uxth	r2, r2
 495              		.loc 1 379 26 view .LVU163
 496 002e 6260     		str	r2, [r4, #4]
 380:../../Drivers/STM32L5xx_HAL_Driver/Src/stm32l5xx_hal_rtc_ex.c **** 
 381:../../Drivers/STM32L5xx_HAL_Driver/Src/stm32l5xx_hal_rtc_ex.c ****   /* Fill the Date structure fields with the read parameters */
 382:../../Drivers/STM32L5xx_HAL_Driver/Src/stm32l5xx_hal_rtc_ex.c ****   sTimeStampDate->Year = 0U;
 497              		.loc 1 382 3 is_stmt 1 view .LVU164
 498              		.loc 1 382 24 is_stmt 0 view .LVU165
 499 0030 0022     		movs	r2, #0
 500 0032 EA70     		strb	r2, [r5, #3]
 383:../../Drivers/STM32L5xx_HAL_Driver/Src/stm32l5xx_hal_rtc_ex.c ****   sTimeStampDate->Month = (uint8_t)((tmpdate & (RTC_TSDR_MT | RTC_TSDR_MU)) >> RTC_TSDR_MU_Pos);
 501              		.loc 1 383 3 is_stmt 1 view .LVU166
 502              		.loc 1 383 27 is_stmt 0 view .LVU167
 503 0034 C1F30422 		ubfx	r2, r1, #8, #5
 504              		.loc 1 383 25 view .LVU168
 505 0038 6A70     		strb	r2, [r5, #1]
 384:../../Drivers/STM32L5xx_HAL_Driver/Src/stm32l5xx_hal_rtc_ex.c ****   sTimeStampDate->Date = (uint8_t)(tmpdate & (RTC_TSDR_DT | RTC_TSDR_DU));
 506              		.loc 1 384 3 is_stmt 1 view .LVU169
 507              		.loc 1 384 26 is_stmt 0 view .LVU170
 508 003a 01F03F02 		and	r2, r1, #63
 509              		.loc 1 384 24 view .LVU171
 510 003e AA70     		strb	r2, [r5, #2]
 385:../../Drivers/STM32L5xx_HAL_Driver/Src/stm32l5xx_hal_rtc_ex.c ****   sTimeStampDate->WeekDay = (uint8_t)((tmpdate & (RTC_TSDR_WDU)) >> RTC_TSDR_WDU_Pos);
 511              		.loc 1 385 3 is_stmt 1 view .LVU172
 512              		.loc 1 385 29 is_stmt 0 view .LVU173
 513 0040 C1F34231 		ubfx	r1, r1, #13, #3
 514              	.LVL29:
 515              		.loc 1 385 27 view .LVU174
 516 0044 2970     		strb	r1, [r5]
 386:../../Drivers/STM32L5xx_HAL_Driver/Src/stm32l5xx_hal_rtc_ex.c **** 
 387:../../Drivers/STM32L5xx_HAL_Driver/Src/stm32l5xx_hal_rtc_ex.c ****   /* Check the input parameters format */
 388:../../Drivers/STM32L5xx_HAL_Driver/Src/stm32l5xx_hal_rtc_ex.c ****   if (Format == RTC_FORMAT_BIN)
 517              		.loc 1 388 3 is_stmt 1 view .LVU175
 518              		.loc 1 388 6 is_stmt 0 view .LVU176
 519 0046 23B1     		cbz	r3, .L29
 520              	.LVL30:
 521              	.L27:
 389:../../Drivers/STM32L5xx_HAL_Driver/Src/stm32l5xx_hal_rtc_ex.c ****   {
 390:../../Drivers/STM32L5xx_HAL_Driver/Src/stm32l5xx_hal_rtc_ex.c ****     /* Convert the TimeStamp structure parameters to Binary format */
 391:../../Drivers/STM32L5xx_HAL_Driver/Src/stm32l5xx_hal_rtc_ex.c ****     sTimeStamp->Hours = (uint8_t)RTC_Bcd2ToByte(sTimeStamp->Hours);
 392:../../Drivers/STM32L5xx_HAL_Driver/Src/stm32l5xx_hal_rtc_ex.c ****     sTimeStamp->Minutes = (uint8_t)RTC_Bcd2ToByte(sTimeStamp->Minutes);
 393:../../Drivers/STM32L5xx_HAL_Driver/Src/stm32l5xx_hal_rtc_ex.c ****     sTimeStamp->Seconds = (uint8_t)RTC_Bcd2ToByte(sTimeStamp->Seconds);
 394:../../Drivers/STM32L5xx_HAL_Driver/Src/stm32l5xx_hal_rtc_ex.c **** 
 395:../../Drivers/STM32L5xx_HAL_Driver/Src/stm32l5xx_hal_rtc_ex.c ****     /* Convert the DateTimeStamp structure parameters to Binary format */
 396:../../Drivers/STM32L5xx_HAL_Driver/Src/stm32l5xx_hal_rtc_ex.c ****     sTimeStampDate->Month = (uint8_t)RTC_Bcd2ToByte(sTimeStampDate->Month);
 397:../../Drivers/STM32L5xx_HAL_Driver/Src/stm32l5xx_hal_rtc_ex.c ****     sTimeStampDate->Date = (uint8_t)RTC_Bcd2ToByte(sTimeStampDate->Date);
ARM GAS  C:\Users\carlos\AppData\Local\Temp\ccaMGGVT.s 			page 17


 398:../../Drivers/STM32L5xx_HAL_Driver/Src/stm32l5xx_hal_rtc_ex.c ****     sTimeStampDate->WeekDay = (uint8_t)RTC_Bcd2ToByte(sTimeStampDate->WeekDay);
 399:../../Drivers/STM32L5xx_HAL_Driver/Src/stm32l5xx_hal_rtc_ex.c ****   }
 400:../../Drivers/STM32L5xx_HAL_Driver/Src/stm32l5xx_hal_rtc_ex.c **** 
 401:../../Drivers/STM32L5xx_HAL_Driver/Src/stm32l5xx_hal_rtc_ex.c ****   /* Clear the TIMESTAMP Flags */
 402:../../Drivers/STM32L5xx_HAL_Driver/Src/stm32l5xx_hal_rtc_ex.c ****   WRITE_REG(RTC->SCR, (RTC_SCR_CITSF | RTC_SCR_CTSF));
 522              		.loc 1 402 3 is_stmt 1 view .LVU177
 523 0048 0E4B     		ldr	r3, .L30
 524 004a 2822     		movs	r2, #40
 525 004c DA65     		str	r2, [r3, #92]
 403:../../Drivers/STM32L5xx_HAL_Driver/Src/stm32l5xx_hal_rtc_ex.c **** 
 404:../../Drivers/STM32L5xx_HAL_Driver/Src/stm32l5xx_hal_rtc_ex.c ****   return HAL_OK;
 526              		.loc 1 404 3 view .LVU178
 405:../../Drivers/STM32L5xx_HAL_Driver/Src/stm32l5xx_hal_rtc_ex.c **** }
 527              		.loc 1 405 1 is_stmt 0 view .LVU179
 528 004e 0020     		movs	r0, #0
 529 0050 38BD     		pop	{r3, r4, r5, pc}
 530              	.LVL31:
 531              	.L29:
 391:../../Drivers/STM32L5xx_HAL_Driver/Src/stm32l5xx_hal_rtc_ex.c ****     sTimeStamp->Minutes = (uint8_t)RTC_Bcd2ToByte(sTimeStamp->Minutes);
 532              		.loc 1 391 5 is_stmt 1 view .LVU180
 391:../../Drivers/STM32L5xx_HAL_Driver/Src/stm32l5xx_hal_rtc_ex.c ****     sTimeStamp->Minutes = (uint8_t)RTC_Bcd2ToByte(sTimeStamp->Minutes);
 533              		.loc 1 391 34 is_stmt 0 view .LVU181
 534 0052 2078     		ldrb	r0, [r4]	@ zero_extendqisi2
 535 0054 FFF7FEFF 		bl	RTC_Bcd2ToByte
 536              	.LVL32:
 391:../../Drivers/STM32L5xx_HAL_Driver/Src/stm32l5xx_hal_rtc_ex.c ****     sTimeStamp->Minutes = (uint8_t)RTC_Bcd2ToByte(sTimeStamp->Minutes);
 537              		.loc 1 391 23 view .LVU182
 538 0058 2070     		strb	r0, [r4]
 392:../../Drivers/STM32L5xx_HAL_Driver/Src/stm32l5xx_hal_rtc_ex.c ****     sTimeStamp->Seconds = (uint8_t)RTC_Bcd2ToByte(sTimeStamp->Seconds);
 539              		.loc 1 392 5 is_stmt 1 view .LVU183
 392:../../Drivers/STM32L5xx_HAL_Driver/Src/stm32l5xx_hal_rtc_ex.c ****     sTimeStamp->Seconds = (uint8_t)RTC_Bcd2ToByte(sTimeStamp->Seconds);
 540              		.loc 1 392 36 is_stmt 0 view .LVU184
 541 005a 6078     		ldrb	r0, [r4, #1]	@ zero_extendqisi2
 542 005c FFF7FEFF 		bl	RTC_Bcd2ToByte
 543              	.LVL33:
 392:../../Drivers/STM32L5xx_HAL_Driver/Src/stm32l5xx_hal_rtc_ex.c ****     sTimeStamp->Seconds = (uint8_t)RTC_Bcd2ToByte(sTimeStamp->Seconds);
 544              		.loc 1 392 25 view .LVU185
 545 0060 6070     		strb	r0, [r4, #1]
 393:../../Drivers/STM32L5xx_HAL_Driver/Src/stm32l5xx_hal_rtc_ex.c **** 
 546              		.loc 1 393 5 is_stmt 1 view .LVU186
 393:../../Drivers/STM32L5xx_HAL_Driver/Src/stm32l5xx_hal_rtc_ex.c **** 
 547              		.loc 1 393 36 is_stmt 0 view .LVU187
 548 0062 A078     		ldrb	r0, [r4, #2]	@ zero_extendqisi2
 549 0064 FFF7FEFF 		bl	RTC_Bcd2ToByte
 550              	.LVL34:
 393:../../Drivers/STM32L5xx_HAL_Driver/Src/stm32l5xx_hal_rtc_ex.c **** 
 551              		.loc 1 393 25 view .LVU188
 552 0068 A070     		strb	r0, [r4, #2]
 396:../../Drivers/STM32L5xx_HAL_Driver/Src/stm32l5xx_hal_rtc_ex.c ****     sTimeStampDate->Date = (uint8_t)RTC_Bcd2ToByte(sTimeStampDate->Date);
 553              		.loc 1 396 5 is_stmt 1 view .LVU189
 396:../../Drivers/STM32L5xx_HAL_Driver/Src/stm32l5xx_hal_rtc_ex.c ****     sTimeStampDate->Date = (uint8_t)RTC_Bcd2ToByte(sTimeStampDate->Date);
 554              		.loc 1 396 38 is_stmt 0 view .LVU190
 555 006a 6878     		ldrb	r0, [r5, #1]	@ zero_extendqisi2
 556 006c FFF7FEFF 		bl	RTC_Bcd2ToByte
 557              	.LVL35:
 396:../../Drivers/STM32L5xx_HAL_Driver/Src/stm32l5xx_hal_rtc_ex.c ****     sTimeStampDate->Date = (uint8_t)RTC_Bcd2ToByte(sTimeStampDate->Date);
 558              		.loc 1 396 27 view .LVU191
ARM GAS  C:\Users\carlos\AppData\Local\Temp\ccaMGGVT.s 			page 18


 559 0070 6870     		strb	r0, [r5, #1]
 397:../../Drivers/STM32L5xx_HAL_Driver/Src/stm32l5xx_hal_rtc_ex.c ****     sTimeStampDate->WeekDay = (uint8_t)RTC_Bcd2ToByte(sTimeStampDate->WeekDay);
 560              		.loc 1 397 5 is_stmt 1 view .LVU192
 397:../../Drivers/STM32L5xx_HAL_Driver/Src/stm32l5xx_hal_rtc_ex.c ****     sTimeStampDate->WeekDay = (uint8_t)RTC_Bcd2ToByte(sTimeStampDate->WeekDay);
 561              		.loc 1 397 37 is_stmt 0 view .LVU193
 562 0072 A878     		ldrb	r0, [r5, #2]	@ zero_extendqisi2
 563 0074 FFF7FEFF 		bl	RTC_Bcd2ToByte
 564              	.LVL36:
 397:../../Drivers/STM32L5xx_HAL_Driver/Src/stm32l5xx_hal_rtc_ex.c ****     sTimeStampDate->WeekDay = (uint8_t)RTC_Bcd2ToByte(sTimeStampDate->WeekDay);
 565              		.loc 1 397 26 view .LVU194
 566 0078 A870     		strb	r0, [r5, #2]
 398:../../Drivers/STM32L5xx_HAL_Driver/Src/stm32l5xx_hal_rtc_ex.c ****   }
 567              		.loc 1 398 5 is_stmt 1 view .LVU195
 398:../../Drivers/STM32L5xx_HAL_Driver/Src/stm32l5xx_hal_rtc_ex.c ****   }
 568              		.loc 1 398 40 is_stmt 0 view .LVU196
 569 007a 2878     		ldrb	r0, [r5]	@ zero_extendqisi2
 570 007c FFF7FEFF 		bl	RTC_Bcd2ToByte
 571              	.LVL37:
 398:../../Drivers/STM32L5xx_HAL_Driver/Src/stm32l5xx_hal_rtc_ex.c ****   }
 572              		.loc 1 398 29 view .LVU197
 573 0080 2870     		strb	r0, [r5]
 574 0082 E1E7     		b	.L27
 575              	.L31:
 576              		.align	2
 577              	.L30:
 578 0084 00280050 		.word	1342187520
 579              		.cfi_endproc
 580              	.LFE207:
 582              		.section	.text.HAL_RTCEx_TimeStampEventCallback,"ax",%progbits
 583              		.align	1
 584              		.weak	HAL_RTCEx_TimeStampEventCallback
 585              		.syntax unified
 586              		.thumb
 587              		.thumb_func
 588              		.fpu fpv4-sp-d16
 590              	HAL_RTCEx_TimeStampEventCallback:
 591              	.LVL38:
 592              	.LFB209:
 406:../../Drivers/STM32L5xx_HAL_Driver/Src/stm32l5xx_hal_rtc_ex.c **** 
 407:../../Drivers/STM32L5xx_HAL_Driver/Src/stm32l5xx_hal_rtc_ex.c **** #if defined (__ARM_FEATURE_CMSE) && (__ARM_FEATURE_CMSE == 3U)
 408:../../Drivers/STM32L5xx_HAL_Driver/Src/stm32l5xx_hal_rtc_ex.c **** /**
 409:../../Drivers/STM32L5xx_HAL_Driver/Src/stm32l5xx_hal_rtc_ex.c ****   * @brief  Handle TimeStamp secure interrupt request.
 410:../../Drivers/STM32L5xx_HAL_Driver/Src/stm32l5xx_hal_rtc_ex.c ****   * @param  hrtc RTC handle
 411:../../Drivers/STM32L5xx_HAL_Driver/Src/stm32l5xx_hal_rtc_ex.c ****   * @retval None
 412:../../Drivers/STM32L5xx_HAL_Driver/Src/stm32l5xx_hal_rtc_ex.c ****   */
 413:../../Drivers/STM32L5xx_HAL_Driver/Src/stm32l5xx_hal_rtc_ex.c **** void HAL_RTCEx_TimeStampIRQHandler(RTC_HandleTypeDef *hrtc)
 414:../../Drivers/STM32L5xx_HAL_Driver/Src/stm32l5xx_hal_rtc_ex.c **** {
 415:../../Drivers/STM32L5xx_HAL_Driver/Src/stm32l5xx_hal_rtc_ex.c ****   if (READ_BIT(RTC->SMISR, RTC_SMISR_TSMF) != 0U)
 416:../../Drivers/STM32L5xx_HAL_Driver/Src/stm32l5xx_hal_rtc_ex.c ****   {
 417:../../Drivers/STM32L5xx_HAL_Driver/Src/stm32l5xx_hal_rtc_ex.c **** #if (USE_HAL_RTC_REGISTER_CALLBACKS == 1)
 418:../../Drivers/STM32L5xx_HAL_Driver/Src/stm32l5xx_hal_rtc_ex.c ****     /* Call TimeStampEvent registered Callback */
 419:../../Drivers/STM32L5xx_HAL_Driver/Src/stm32l5xx_hal_rtc_ex.c ****     hrtc->TimeStampEventCallback(hrtc);
 420:../../Drivers/STM32L5xx_HAL_Driver/Src/stm32l5xx_hal_rtc_ex.c **** #else
 421:../../Drivers/STM32L5xx_HAL_Driver/Src/stm32l5xx_hal_rtc_ex.c ****     HAL_RTCEx_TimeStampEventCallback(hrtc);
 422:../../Drivers/STM32L5xx_HAL_Driver/Src/stm32l5xx_hal_rtc_ex.c **** #endif
 423:../../Drivers/STM32L5xx_HAL_Driver/Src/stm32l5xx_hal_rtc_ex.c ****     /* Clearing flags after the Callback because the content of RTC_TSTR and RTC_TSDR are cleared w
 424:../../Drivers/STM32L5xx_HAL_Driver/Src/stm32l5xx_hal_rtc_ex.c ****     WRITE_REG(RTC->SCR, RTC_SCR_CITSF | RTC_SCR_CTSF);
ARM GAS  C:\Users\carlos\AppData\Local\Temp\ccaMGGVT.s 			page 19


 425:../../Drivers/STM32L5xx_HAL_Driver/Src/stm32l5xx_hal_rtc_ex.c ****   }
 426:../../Drivers/STM32L5xx_HAL_Driver/Src/stm32l5xx_hal_rtc_ex.c **** 
 427:../../Drivers/STM32L5xx_HAL_Driver/Src/stm32l5xx_hal_rtc_ex.c ****   /* Change RTC state */
 428:../../Drivers/STM32L5xx_HAL_Driver/Src/stm32l5xx_hal_rtc_ex.c ****   hrtc->State = HAL_RTC_STATE_READY;
 429:../../Drivers/STM32L5xx_HAL_Driver/Src/stm32l5xx_hal_rtc_ex.c **** }
 430:../../Drivers/STM32L5xx_HAL_Driver/Src/stm32l5xx_hal_rtc_ex.c **** 
 431:../../Drivers/STM32L5xx_HAL_Driver/Src/stm32l5xx_hal_rtc_ex.c **** #else /* #if defined (__ARM_FEATURE_CMSE) && (__ARM_FEATURE_CMSE == 3U) */
 432:../../Drivers/STM32L5xx_HAL_Driver/Src/stm32l5xx_hal_rtc_ex.c **** 
 433:../../Drivers/STM32L5xx_HAL_Driver/Src/stm32l5xx_hal_rtc_ex.c **** /**
 434:../../Drivers/STM32L5xx_HAL_Driver/Src/stm32l5xx_hal_rtc_ex.c ****   * @brief  Handle TimeStamp non-secure interrupt request.
 435:../../Drivers/STM32L5xx_HAL_Driver/Src/stm32l5xx_hal_rtc_ex.c ****   * @param  hrtc RTC handle
 436:../../Drivers/STM32L5xx_HAL_Driver/Src/stm32l5xx_hal_rtc_ex.c ****   * @retval None
 437:../../Drivers/STM32L5xx_HAL_Driver/Src/stm32l5xx_hal_rtc_ex.c ****   */
 438:../../Drivers/STM32L5xx_HAL_Driver/Src/stm32l5xx_hal_rtc_ex.c **** void HAL_RTCEx_TimeStampIRQHandler(RTC_HandleTypeDef *hrtc)
 439:../../Drivers/STM32L5xx_HAL_Driver/Src/stm32l5xx_hal_rtc_ex.c **** {
 440:../../Drivers/STM32L5xx_HAL_Driver/Src/stm32l5xx_hal_rtc_ex.c ****   if (READ_BIT(RTC->MISR, RTC_MISR_TSMF) != 0U)
 441:../../Drivers/STM32L5xx_HAL_Driver/Src/stm32l5xx_hal_rtc_ex.c ****   {
 442:../../Drivers/STM32L5xx_HAL_Driver/Src/stm32l5xx_hal_rtc_ex.c **** #if (USE_HAL_RTC_REGISTER_CALLBACKS == 1)
 443:../../Drivers/STM32L5xx_HAL_Driver/Src/stm32l5xx_hal_rtc_ex.c ****     /* Call TimeStampEvent registered Callback */
 444:../../Drivers/STM32L5xx_HAL_Driver/Src/stm32l5xx_hal_rtc_ex.c ****     hrtc->TimeStampEventCallback(hrtc);
 445:../../Drivers/STM32L5xx_HAL_Driver/Src/stm32l5xx_hal_rtc_ex.c **** #else
 446:../../Drivers/STM32L5xx_HAL_Driver/Src/stm32l5xx_hal_rtc_ex.c ****     HAL_RTCEx_TimeStampEventCallback(hrtc);
 447:../../Drivers/STM32L5xx_HAL_Driver/Src/stm32l5xx_hal_rtc_ex.c **** #endif
 448:../../Drivers/STM32L5xx_HAL_Driver/Src/stm32l5xx_hal_rtc_ex.c ****     /* Clearing flags after the Callback because the content of RTC_TSTR and RTC_TSDR are cleared w
 449:../../Drivers/STM32L5xx_HAL_Driver/Src/stm32l5xx_hal_rtc_ex.c ****     WRITE_REG(RTC->SCR, RTC_SCR_CITSF | RTC_SCR_CTSF);
 450:../../Drivers/STM32L5xx_HAL_Driver/Src/stm32l5xx_hal_rtc_ex.c ****   }
 451:../../Drivers/STM32L5xx_HAL_Driver/Src/stm32l5xx_hal_rtc_ex.c **** 
 452:../../Drivers/STM32L5xx_HAL_Driver/Src/stm32l5xx_hal_rtc_ex.c ****   /* Change RTC state */
 453:../../Drivers/STM32L5xx_HAL_Driver/Src/stm32l5xx_hal_rtc_ex.c ****   hrtc->State = HAL_RTC_STATE_READY;
 454:../../Drivers/STM32L5xx_HAL_Driver/Src/stm32l5xx_hal_rtc_ex.c **** }
 455:../../Drivers/STM32L5xx_HAL_Driver/Src/stm32l5xx_hal_rtc_ex.c **** #endif /* #if defined (__ARM_FEATURE_CMSE) && (__ARM_FEATURE_CMSE == 3U) */
 456:../../Drivers/STM32L5xx_HAL_Driver/Src/stm32l5xx_hal_rtc_ex.c **** 
 457:../../Drivers/STM32L5xx_HAL_Driver/Src/stm32l5xx_hal_rtc_ex.c **** /**
 458:../../Drivers/STM32L5xx_HAL_Driver/Src/stm32l5xx_hal_rtc_ex.c ****   * @brief  TimeStamp callback.
 459:../../Drivers/STM32L5xx_HAL_Driver/Src/stm32l5xx_hal_rtc_ex.c ****   * @param  hrtc RTC handle
 460:../../Drivers/STM32L5xx_HAL_Driver/Src/stm32l5xx_hal_rtc_ex.c ****   * @retval None
 461:../../Drivers/STM32L5xx_HAL_Driver/Src/stm32l5xx_hal_rtc_ex.c ****   */
 462:../../Drivers/STM32L5xx_HAL_Driver/Src/stm32l5xx_hal_rtc_ex.c **** __weak void HAL_RTCEx_TimeStampEventCallback(RTC_HandleTypeDef *hrtc)
 463:../../Drivers/STM32L5xx_HAL_Driver/Src/stm32l5xx_hal_rtc_ex.c **** {
 593              		.loc 1 463 1 is_stmt 1 view -0
 594              		.cfi_startproc
 595              		@ args = 0, pretend = 0, frame = 0
 596              		@ frame_needed = 0, uses_anonymous_args = 0
 597              		@ link register save eliminated.
 464:../../Drivers/STM32L5xx_HAL_Driver/Src/stm32l5xx_hal_rtc_ex.c ****   /* Prevent unused argument(s) compilation warning */
 465:../../Drivers/STM32L5xx_HAL_Driver/Src/stm32l5xx_hal_rtc_ex.c ****   UNUSED(hrtc);
 598              		.loc 1 465 3 view .LVU199
 466:../../Drivers/STM32L5xx_HAL_Driver/Src/stm32l5xx_hal_rtc_ex.c **** 
 467:../../Drivers/STM32L5xx_HAL_Driver/Src/stm32l5xx_hal_rtc_ex.c ****   /* NOTE : This function should not be modified, when the callback is needed,
 468:../../Drivers/STM32L5xx_HAL_Driver/Src/stm32l5xx_hal_rtc_ex.c ****             the HAL_RTCEx_TimeStampEventCallback could be implemented in the user file
 469:../../Drivers/STM32L5xx_HAL_Driver/Src/stm32l5xx_hal_rtc_ex.c ****   */
 470:../../Drivers/STM32L5xx_HAL_Driver/Src/stm32l5xx_hal_rtc_ex.c **** }
 599              		.loc 1 470 1 is_stmt 0 view .LVU200
 600 0000 7047     		bx	lr
 601              		.cfi_endproc
 602              	.LFE209:
 604              		.section	.text.HAL_RTCEx_TimeStampIRQHandler,"ax",%progbits
ARM GAS  C:\Users\carlos\AppData\Local\Temp\ccaMGGVT.s 			page 20


 605              		.align	1
 606              		.global	HAL_RTCEx_TimeStampIRQHandler
 607              		.syntax unified
 608              		.thumb
 609              		.thumb_func
 610              		.fpu fpv4-sp-d16
 612              	HAL_RTCEx_TimeStampIRQHandler:
 613              	.LVL39:
 614              	.LFB208:
 414:../../Drivers/STM32L5xx_HAL_Driver/Src/stm32l5xx_hal_rtc_ex.c ****   if (READ_BIT(RTC->SMISR, RTC_SMISR_TSMF) != 0U)
 615              		.loc 1 414 1 is_stmt 1 view -0
 616              		.cfi_startproc
 617              		@ args = 0, pretend = 0, frame = 0
 618              		@ frame_needed = 0, uses_anonymous_args = 0
 414:../../Drivers/STM32L5xx_HAL_Driver/Src/stm32l5xx_hal_rtc_ex.c ****   if (READ_BIT(RTC->SMISR, RTC_SMISR_TSMF) != 0U)
 619              		.loc 1 414 1 is_stmt 0 view .LVU202
 620 0000 10B5     		push	{r4, lr}
 621              	.LCFI1:
 622              		.cfi_def_cfa_offset 8
 623              		.cfi_offset 4, -8
 624              		.cfi_offset 14, -4
 625 0002 0446     		mov	r4, r0
 415:../../Drivers/STM32L5xx_HAL_Driver/Src/stm32l5xx_hal_rtc_ex.c ****   {
 626              		.loc 1 415 3 is_stmt 1 view .LVU203
 415:../../Drivers/STM32L5xx_HAL_Driver/Src/stm32l5xx_hal_rtc_ex.c ****   {
 627              		.loc 1 415 7 is_stmt 0 view .LVU204
 628 0004 074B     		ldr	r3, .L37
 629 0006 9B6D     		ldr	r3, [r3, #88]
 415:../../Drivers/STM32L5xx_HAL_Driver/Src/stm32l5xx_hal_rtc_ex.c ****   {
 630              		.loc 1 415 6 view .LVU205
 631 0008 13F0080F 		tst	r3, #8
 632 000c 03D1     		bne	.L36
 633              	.LVL40:
 634              	.L34:
 428:../../Drivers/STM32L5xx_HAL_Driver/Src/stm32l5xx_hal_rtc_ex.c **** }
 635              		.loc 1 428 3 is_stmt 1 view .LVU206
 428:../../Drivers/STM32L5xx_HAL_Driver/Src/stm32l5xx_hal_rtc_ex.c **** }
 636              		.loc 1 428 15 is_stmt 0 view .LVU207
 637 000e 0123     		movs	r3, #1
 638 0010 84F82530 		strb	r3, [r4, #37]
 429:../../Drivers/STM32L5xx_HAL_Driver/Src/stm32l5xx_hal_rtc_ex.c **** 
 639              		.loc 1 429 1 view .LVU208
 640 0014 10BD     		pop	{r4, pc}
 641              	.LVL41:
 642              	.L36:
 421:../../Drivers/STM32L5xx_HAL_Driver/Src/stm32l5xx_hal_rtc_ex.c **** #endif
 643              		.loc 1 421 5 is_stmt 1 view .LVU209
 644 0016 FFF7FEFF 		bl	HAL_RTCEx_TimeStampEventCallback
 645              	.LVL42:
 424:../../Drivers/STM32L5xx_HAL_Driver/Src/stm32l5xx_hal_rtc_ex.c ****   }
 646              		.loc 1 424 5 view .LVU210
 647 001a 024B     		ldr	r3, .L37
 648 001c 2822     		movs	r2, #40
 649 001e DA65     		str	r2, [r3, #92]
 650 0020 F5E7     		b	.L34
 651              	.L38:
 652 0022 00BF     		.align	2
ARM GAS  C:\Users\carlos\AppData\Local\Temp\ccaMGGVT.s 			page 21


 653              	.L37:
 654 0024 00280050 		.word	1342187520
 655              		.cfi_endproc
 656              	.LFE208:
 658              		.section	.text.HAL_RTCEx_PollForTimeStampEvent,"ax",%progbits
 659              		.align	1
 660              		.global	HAL_RTCEx_PollForTimeStampEvent
 661              		.syntax unified
 662              		.thumb
 663              		.thumb_func
 664              		.fpu fpv4-sp-d16
 666              	HAL_RTCEx_PollForTimeStampEvent:
 667              	.LVL43:
 668              	.LFB210:
 471:../../Drivers/STM32L5xx_HAL_Driver/Src/stm32l5xx_hal_rtc_ex.c **** 
 472:../../Drivers/STM32L5xx_HAL_Driver/Src/stm32l5xx_hal_rtc_ex.c **** /**
 473:../../Drivers/STM32L5xx_HAL_Driver/Src/stm32l5xx_hal_rtc_ex.c ****   * @brief  Handle TimeStamp polling request.
 474:../../Drivers/STM32L5xx_HAL_Driver/Src/stm32l5xx_hal_rtc_ex.c ****   * @param  hrtc RTC handle
 475:../../Drivers/STM32L5xx_HAL_Driver/Src/stm32l5xx_hal_rtc_ex.c ****   * @param  Timeout Timeout duration
 476:../../Drivers/STM32L5xx_HAL_Driver/Src/stm32l5xx_hal_rtc_ex.c ****   * @retval HAL status
 477:../../Drivers/STM32L5xx_HAL_Driver/Src/stm32l5xx_hal_rtc_ex.c ****   */
 478:../../Drivers/STM32L5xx_HAL_Driver/Src/stm32l5xx_hal_rtc_ex.c **** HAL_StatusTypeDef HAL_RTCEx_PollForTimeStampEvent(RTC_HandleTypeDef *hrtc, uint32_t Timeout)
 479:../../Drivers/STM32L5xx_HAL_Driver/Src/stm32l5xx_hal_rtc_ex.c **** {
 669              		.loc 1 479 1 view -0
 670              		.cfi_startproc
 671              		@ args = 0, pretend = 0, frame = 0
 672              		@ frame_needed = 0, uses_anonymous_args = 0
 673              		.loc 1 479 1 is_stmt 0 view .LVU212
 674 0000 70B5     		push	{r4, r5, r6, lr}
 675              	.LCFI2:
 676              		.cfi_def_cfa_offset 16
 677              		.cfi_offset 4, -16
 678              		.cfi_offset 5, -12
 679              		.cfi_offset 6, -8
 680              		.cfi_offset 14, -4
 681 0002 0546     		mov	r5, r0
 682 0004 0C46     		mov	r4, r1
 480:../../Drivers/STM32L5xx_HAL_Driver/Src/stm32l5xx_hal_rtc_ex.c ****   uint32_t tickstart = HAL_GetTick();
 683              		.loc 1 480 3 is_stmt 1 view .LVU213
 684              		.loc 1 480 24 is_stmt 0 view .LVU214
 685 0006 FFF7FEFF 		bl	HAL_GetTick
 686              	.LVL44:
 687              		.loc 1 480 24 view .LVU215
 688 000a 0646     		mov	r6, r0
 689              	.LVL45:
 481:../../Drivers/STM32L5xx_HAL_Driver/Src/stm32l5xx_hal_rtc_ex.c **** 
 482:../../Drivers/STM32L5xx_HAL_Driver/Src/stm32l5xx_hal_rtc_ex.c ****   while (READ_BIT(RTC->SR, RTC_SR_TSF) == 0U)
 690              		.loc 1 482 3 is_stmt 1 view .LVU216
 691              	.L43:
 692              		.loc 1 482 9 view .LVU217
 693              		.loc 1 482 10 is_stmt 0 view .LVU218
 694 000c 124B     		ldr	r3, .L49
 695 000e 1B6D     		ldr	r3, [r3, #80]
 696              		.loc 1 482 9 view .LVU219
 697 0010 13F0080F 		tst	r3, #8
 698 0014 1AD1     		bne	.L47
 483:../../Drivers/STM32L5xx_HAL_Driver/Src/stm32l5xx_hal_rtc_ex.c ****   {
ARM GAS  C:\Users\carlos\AppData\Local\Temp\ccaMGGVT.s 			page 22


 484:../../Drivers/STM32L5xx_HAL_Driver/Src/stm32l5xx_hal_rtc_ex.c ****     if (READ_BIT(RTC->SR, RTC_SR_TSOVF) != 0U)
 699              		.loc 1 484 5 is_stmt 1 view .LVU220
 700              		.loc 1 484 9 is_stmt 0 view .LVU221
 701 0016 104B     		ldr	r3, .L49
 702 0018 1B6D     		ldr	r3, [r3, #80]
 703              		.loc 1 484 8 view .LVU222
 704 001a 13F0100F 		tst	r3, #16
 705 001e 0DD1     		bne	.L48
 485:../../Drivers/STM32L5xx_HAL_Driver/Src/stm32l5xx_hal_rtc_ex.c ****     {
 486:../../Drivers/STM32L5xx_HAL_Driver/Src/stm32l5xx_hal_rtc_ex.c ****       /* Clear the TIMESTAMP OverRun Flag */
 487:../../Drivers/STM32L5xx_HAL_Driver/Src/stm32l5xx_hal_rtc_ex.c ****       WRITE_REG(RTC->SCR, RTC_SCR_CTSOVF);
 488:../../Drivers/STM32L5xx_HAL_Driver/Src/stm32l5xx_hal_rtc_ex.c **** 
 489:../../Drivers/STM32L5xx_HAL_Driver/Src/stm32l5xx_hal_rtc_ex.c ****       /* Change TIMESTAMP state */
 490:../../Drivers/STM32L5xx_HAL_Driver/Src/stm32l5xx_hal_rtc_ex.c ****       hrtc->State = HAL_RTC_STATE_ERROR;
 491:../../Drivers/STM32L5xx_HAL_Driver/Src/stm32l5xx_hal_rtc_ex.c **** 
 492:../../Drivers/STM32L5xx_HAL_Driver/Src/stm32l5xx_hal_rtc_ex.c ****       return HAL_ERROR;
 493:../../Drivers/STM32L5xx_HAL_Driver/Src/stm32l5xx_hal_rtc_ex.c ****     }
 494:../../Drivers/STM32L5xx_HAL_Driver/Src/stm32l5xx_hal_rtc_ex.c **** 
 495:../../Drivers/STM32L5xx_HAL_Driver/Src/stm32l5xx_hal_rtc_ex.c ****     if (Timeout != HAL_MAX_DELAY)
 706              		.loc 1 495 5 is_stmt 1 view .LVU223
 707              		.loc 1 495 8 is_stmt 0 view .LVU224
 708 0020 B4F1FF3F 		cmp	r4, #-1
 709 0024 F2D0     		beq	.L43
 496:../../Drivers/STM32L5xx_HAL_Driver/Src/stm32l5xx_hal_rtc_ex.c ****     {
 497:../../Drivers/STM32L5xx_HAL_Driver/Src/stm32l5xx_hal_rtc_ex.c ****       if (((HAL_GetTick() - tickstart) > Timeout) || (Timeout == 0U))
 710              		.loc 1 497 7 is_stmt 1 view .LVU225
 711              		.loc 1 497 13 is_stmt 0 view .LVU226
 712 0026 FFF7FEFF 		bl	HAL_GetTick
 713              	.LVL46:
 714              		.loc 1 497 27 view .LVU227
 715 002a 801B     		subs	r0, r0, r6
 716              		.loc 1 497 10 view .LVU228
 717 002c A042     		cmp	r0, r4
 718 002e 01D8     		bhi	.L44
 719              		.loc 1 497 51 discriminator 1 view .LVU229
 720 0030 002C     		cmp	r4, #0
 721 0032 EBD1     		bne	.L43
 722              	.L44:
 498:../../Drivers/STM32L5xx_HAL_Driver/Src/stm32l5xx_hal_rtc_ex.c ****       {
 499:../../Drivers/STM32L5xx_HAL_Driver/Src/stm32l5xx_hal_rtc_ex.c ****         hrtc->State = HAL_RTC_STATE_TIMEOUT;
 723              		.loc 1 499 9 is_stmt 1 view .LVU230
 724              		.loc 1 499 21 is_stmt 0 view .LVU231
 725 0034 0320     		movs	r0, #3
 726 0036 85F82500 		strb	r0, [r5, #37]
 500:../../Drivers/STM32L5xx_HAL_Driver/Src/stm32l5xx_hal_rtc_ex.c ****         return HAL_TIMEOUT;
 727              		.loc 1 500 9 is_stmt 1 view .LVU232
 728              		.loc 1 500 16 is_stmt 0 view .LVU233
 729 003a 0BE0     		b	.L42
 730              	.L48:
 487:../../Drivers/STM32L5xx_HAL_Driver/Src/stm32l5xx_hal_rtc_ex.c **** 
 731              		.loc 1 487 7 is_stmt 1 view .LVU234
 732 003c 064B     		ldr	r3, .L49
 733 003e 1022     		movs	r2, #16
 734 0040 DA65     		str	r2, [r3, #92]
 490:../../Drivers/STM32L5xx_HAL_Driver/Src/stm32l5xx_hal_rtc_ex.c **** 
 735              		.loc 1 490 7 view .LVU235
 490:../../Drivers/STM32L5xx_HAL_Driver/Src/stm32l5xx_hal_rtc_ex.c **** 
ARM GAS  C:\Users\carlos\AppData\Local\Temp\ccaMGGVT.s 			page 23


 736              		.loc 1 490 19 is_stmt 0 view .LVU236
 737 0042 0423     		movs	r3, #4
 738 0044 85F82530 		strb	r3, [r5, #37]
 492:../../Drivers/STM32L5xx_HAL_Driver/Src/stm32l5xx_hal_rtc_ex.c ****     }
 739              		.loc 1 492 7 is_stmt 1 view .LVU237
 492:../../Drivers/STM32L5xx_HAL_Driver/Src/stm32l5xx_hal_rtc_ex.c ****     }
 740              		.loc 1 492 14 is_stmt 0 view .LVU238
 741 0048 0120     		movs	r0, #1
 742 004a 03E0     		b	.L42
 743              	.L47:
 501:../../Drivers/STM32L5xx_HAL_Driver/Src/stm32l5xx_hal_rtc_ex.c ****       }
 502:../../Drivers/STM32L5xx_HAL_Driver/Src/stm32l5xx_hal_rtc_ex.c ****     }
 503:../../Drivers/STM32L5xx_HAL_Driver/Src/stm32l5xx_hal_rtc_ex.c ****   }
 504:../../Drivers/STM32L5xx_HAL_Driver/Src/stm32l5xx_hal_rtc_ex.c **** 
 505:../../Drivers/STM32L5xx_HAL_Driver/Src/stm32l5xx_hal_rtc_ex.c ****   /* Change RTC state */
 506:../../Drivers/STM32L5xx_HAL_Driver/Src/stm32l5xx_hal_rtc_ex.c ****   hrtc->State = HAL_RTC_STATE_READY;
 744              		.loc 1 506 3 is_stmt 1 view .LVU239
 745              		.loc 1 506 15 is_stmt 0 view .LVU240
 746 004c 0123     		movs	r3, #1
 747 004e 85F82530 		strb	r3, [r5, #37]
 507:../../Drivers/STM32L5xx_HAL_Driver/Src/stm32l5xx_hal_rtc_ex.c **** 
 508:../../Drivers/STM32L5xx_HAL_Driver/Src/stm32l5xx_hal_rtc_ex.c ****   return HAL_OK;
 748              		.loc 1 508 3 is_stmt 1 view .LVU241
 749              		.loc 1 508 10 is_stmt 0 view .LVU242
 750 0052 0020     		movs	r0, #0
 751              	.L42:
 509:../../Drivers/STM32L5xx_HAL_Driver/Src/stm32l5xx_hal_rtc_ex.c **** }
 752              		.loc 1 509 1 view .LVU243
 753 0054 70BD     		pop	{r4, r5, r6, pc}
 754              	.LVL47:
 755              	.L50:
 756              		.loc 1 509 1 view .LVU244
 757 0056 00BF     		.align	2
 758              	.L49:
 759 0058 00280050 		.word	1342187520
 760              		.cfi_endproc
 761              	.LFE210:
 763              		.section	.text.HAL_RTCEx_SetWakeUpTimer,"ax",%progbits
 764              		.align	1
 765              		.global	HAL_RTCEx_SetWakeUpTimer
 766              		.syntax unified
 767              		.thumb
 768              		.thumb_func
 769              		.fpu fpv4-sp-d16
 771              	HAL_RTCEx_SetWakeUpTimer:
 772              	.LVL48:
 773              	.LFB211:
 510:../../Drivers/STM32L5xx_HAL_Driver/Src/stm32l5xx_hal_rtc_ex.c **** 
 511:../../Drivers/STM32L5xx_HAL_Driver/Src/stm32l5xx_hal_rtc_ex.c **** /**
 512:../../Drivers/STM32L5xx_HAL_Driver/Src/stm32l5xx_hal_rtc_ex.c ****   * @}
 513:../../Drivers/STM32L5xx_HAL_Driver/Src/stm32l5xx_hal_rtc_ex.c ****   */
 514:../../Drivers/STM32L5xx_HAL_Driver/Src/stm32l5xx_hal_rtc_ex.c **** 
 515:../../Drivers/STM32L5xx_HAL_Driver/Src/stm32l5xx_hal_rtc_ex.c **** /** @addtogroup RTCEx_Exported_Functions_Group2
 516:../../Drivers/STM32L5xx_HAL_Driver/Src/stm32l5xx_hal_rtc_ex.c ****   * @brief    RTC Wake-up functions
 517:../../Drivers/STM32L5xx_HAL_Driver/Src/stm32l5xx_hal_rtc_ex.c ****   *
 518:../../Drivers/STM32L5xx_HAL_Driver/Src/stm32l5xx_hal_rtc_ex.c **** @verbatim
 519:../../Drivers/STM32L5xx_HAL_Driver/Src/stm32l5xx_hal_rtc_ex.c ****  ===============================================================================
ARM GAS  C:\Users\carlos\AppData\Local\Temp\ccaMGGVT.s 			page 24


 520:../../Drivers/STM32L5xx_HAL_Driver/Src/stm32l5xx_hal_rtc_ex.c ****                         ##### RTC Wake-up functions #####
 521:../../Drivers/STM32L5xx_HAL_Driver/Src/stm32l5xx_hal_rtc_ex.c ****  ===============================================================================
 522:../../Drivers/STM32L5xx_HAL_Driver/Src/stm32l5xx_hal_rtc_ex.c **** 
 523:../../Drivers/STM32L5xx_HAL_Driver/Src/stm32l5xx_hal_rtc_ex.c ****  [..] This section provides functions allowing to configure Wake-up feature
 524:../../Drivers/STM32L5xx_HAL_Driver/Src/stm32l5xx_hal_rtc_ex.c **** 
 525:../../Drivers/STM32L5xx_HAL_Driver/Src/stm32l5xx_hal_rtc_ex.c **** @endverbatim
 526:../../Drivers/STM32L5xx_HAL_Driver/Src/stm32l5xx_hal_rtc_ex.c ****   * @{
 527:../../Drivers/STM32L5xx_HAL_Driver/Src/stm32l5xx_hal_rtc_ex.c ****   */
 528:../../Drivers/STM32L5xx_HAL_Driver/Src/stm32l5xx_hal_rtc_ex.c **** 
 529:../../Drivers/STM32L5xx_HAL_Driver/Src/stm32l5xx_hal_rtc_ex.c **** /**
 530:../../Drivers/STM32L5xx_HAL_Driver/Src/stm32l5xx_hal_rtc_ex.c ****   * @brief  Set wake up timer.
 531:../../Drivers/STM32L5xx_HAL_Driver/Src/stm32l5xx_hal_rtc_ex.c ****   * @param  hrtc RTC handle
 532:../../Drivers/STM32L5xx_HAL_Driver/Src/stm32l5xx_hal_rtc_ex.c ****   * @param  WakeUpCounter Wake up counter
 533:../../Drivers/STM32L5xx_HAL_Driver/Src/stm32l5xx_hal_rtc_ex.c ****   * @param  WakeUpClock Wake up clock
 534:../../Drivers/STM32L5xx_HAL_Driver/Src/stm32l5xx_hal_rtc_ex.c ****   * @retval HAL status
 535:../../Drivers/STM32L5xx_HAL_Driver/Src/stm32l5xx_hal_rtc_ex.c ****   */
 536:../../Drivers/STM32L5xx_HAL_Driver/Src/stm32l5xx_hal_rtc_ex.c **** HAL_StatusTypeDef HAL_RTCEx_SetWakeUpTimer(RTC_HandleTypeDef *hrtc, uint32_t WakeUpCounter, uint32_
 537:../../Drivers/STM32L5xx_HAL_Driver/Src/stm32l5xx_hal_rtc_ex.c **** {
 774              		.loc 1 537 1 is_stmt 1 view -0
 775              		.cfi_startproc
 776              		@ args = 0, pretend = 0, frame = 0
 777              		@ frame_needed = 0, uses_anonymous_args = 0
 778              		.loc 1 537 1 is_stmt 0 view .LVU246
 779 0000 F8B5     		push	{r3, r4, r5, r6, r7, lr}
 780              	.LCFI3:
 781              		.cfi_def_cfa_offset 24
 782              		.cfi_offset 3, -24
 783              		.cfi_offset 4, -20
 784              		.cfi_offset 5, -16
 785              		.cfi_offset 6, -12
 786              		.cfi_offset 7, -8
 787              		.cfi_offset 14, -4
 538:../../Drivers/STM32L5xx_HAL_Driver/Src/stm32l5xx_hal_rtc_ex.c ****   uint32_t tickstart;
 788              		.loc 1 538 3 is_stmt 1 view .LVU247
 539:../../Drivers/STM32L5xx_HAL_Driver/Src/stm32l5xx_hal_rtc_ex.c **** 
 540:../../Drivers/STM32L5xx_HAL_Driver/Src/stm32l5xx_hal_rtc_ex.c ****   /* Check the parameters */
 541:../../Drivers/STM32L5xx_HAL_Driver/Src/stm32l5xx_hal_rtc_ex.c ****   assert_param(IS_RTC_WAKEUP_CLOCK(WakeUpClock));
 789              		.loc 1 541 3 view .LVU248
 542:../../Drivers/STM32L5xx_HAL_Driver/Src/stm32l5xx_hal_rtc_ex.c ****   assert_param(IS_RTC_WAKEUP_COUNTER(WakeUpCounter));
 790              		.loc 1 542 3 view .LVU249
 543:../../Drivers/STM32L5xx_HAL_Driver/Src/stm32l5xx_hal_rtc_ex.c **** 
 544:../../Drivers/STM32L5xx_HAL_Driver/Src/stm32l5xx_hal_rtc_ex.c ****   /* Process Locked */
 545:../../Drivers/STM32L5xx_HAL_Driver/Src/stm32l5xx_hal_rtc_ex.c ****   __HAL_LOCK(hrtc);
 791              		.loc 1 545 3 view .LVU250
 792              		.loc 1 545 3 view .LVU251
 793 0002 90F82430 		ldrb	r3, [r0, #36]	@ zero_extendqisi2
 794 0006 012B     		cmp	r3, #1
 795 0008 41D0     		beq	.L56
 796 000a 0446     		mov	r4, r0
 797 000c 0D46     		mov	r5, r1
 798 000e 1646     		mov	r6, r2
 799              		.loc 1 545 3 discriminator 2 view .LVU252
 800 0010 0123     		movs	r3, #1
 801 0012 80F82430 		strb	r3, [r0, #36]
 802              		.loc 1 545 3 discriminator 2 view .LVU253
 546:../../Drivers/STM32L5xx_HAL_Driver/Src/stm32l5xx_hal_rtc_ex.c **** 
 547:../../Drivers/STM32L5xx_HAL_Driver/Src/stm32l5xx_hal_rtc_ex.c ****   hrtc->State = HAL_RTC_STATE_BUSY;
ARM GAS  C:\Users\carlos\AppData\Local\Temp\ccaMGGVT.s 			page 25


 803              		.loc 1 547 3 discriminator 2 view .LVU254
 804              		.loc 1 547 15 is_stmt 0 discriminator 2 view .LVU255
 805 0016 0223     		movs	r3, #2
 806 0018 80F82530 		strb	r3, [r0, #37]
 548:../../Drivers/STM32L5xx_HAL_Driver/Src/stm32l5xx_hal_rtc_ex.c **** 
 549:../../Drivers/STM32L5xx_HAL_Driver/Src/stm32l5xx_hal_rtc_ex.c ****   /* Disable the write protection for RTC registers */
 550:../../Drivers/STM32L5xx_HAL_Driver/Src/stm32l5xx_hal_rtc_ex.c ****   __HAL_RTC_WRITEPROTECTION_DISABLE(hrtc);
 807              		.loc 1 550 3 is_stmt 1 discriminator 2 view .LVU256
 808              		.loc 1 550 3 discriminator 2 view .LVU257
 809 001c 1D4B     		ldr	r3, .L59
 810 001e CA22     		movs	r2, #202
 811              	.LVL49:
 812              		.loc 1 550 3 is_stmt 0 discriminator 2 view .LVU258
 813 0020 5A62     		str	r2, [r3, #36]
 814              		.loc 1 550 3 is_stmt 1 discriminator 2 view .LVU259
 815 0022 5322     		movs	r2, #83
 816 0024 5A62     		str	r2, [r3, #36]
 817              		.loc 1 550 3 discriminator 2 view .LVU260
 551:../../Drivers/STM32L5xx_HAL_Driver/Src/stm32l5xx_hal_rtc_ex.c **** 
 552:../../Drivers/STM32L5xx_HAL_Driver/Src/stm32l5xx_hal_rtc_ex.c ****   /* Clear WUTE in RTC_CR to disable the wakeup timer */
 553:../../Drivers/STM32L5xx_HAL_Driver/Src/stm32l5xx_hal_rtc_ex.c ****   CLEAR_BIT(RTC->CR, RTC_CR_WUTE);
 818              		.loc 1 553 3 discriminator 2 view .LVU261
 819 0026 9A69     		ldr	r2, [r3, #24]
 820 0028 22F48062 		bic	r2, r2, #1024
 821 002c 9A61     		str	r2, [r3, #24]
 554:../../Drivers/STM32L5xx_HAL_Driver/Src/stm32l5xx_hal_rtc_ex.c **** 
 555:../../Drivers/STM32L5xx_HAL_Driver/Src/stm32l5xx_hal_rtc_ex.c ****   /* Poll WUTWF until it is set in RTC_ICSR to make sure the access to wakeup autoreload
 556:../../Drivers/STM32L5xx_HAL_Driver/Src/stm32l5xx_hal_rtc_ex.c ****      counter and to WUCKSEL[2:0] bits is allowed. This step must be skipped in
 557:../../Drivers/STM32L5xx_HAL_Driver/Src/stm32l5xx_hal_rtc_ex.c ****      calendar initialization mode. */
 558:../../Drivers/STM32L5xx_HAL_Driver/Src/stm32l5xx_hal_rtc_ex.c ****   if (READ_BIT(RTC->ICSR, RTC_ICSR_INITF) == 0U)
 822              		.loc 1 558 3 discriminator 2 view .LVU262
 823              		.loc 1 558 7 is_stmt 0 discriminator 2 view .LVU263
 824 002e DB68     		ldr	r3, [r3, #12]
 825              		.loc 1 558 6 discriminator 2 view .LVU264
 826 0030 13F0400F 		tst	r3, #64
 827 0034 13D0     		beq	.L58
 828              	.LVL50:
 829              	.L53:
 559:../../Drivers/STM32L5xx_HAL_Driver/Src/stm32l5xx_hal_rtc_ex.c ****   {
 560:../../Drivers/STM32L5xx_HAL_Driver/Src/stm32l5xx_hal_rtc_ex.c ****     tickstart = HAL_GetTick();
 561:../../Drivers/STM32L5xx_HAL_Driver/Src/stm32l5xx_hal_rtc_ex.c ****     while (READ_BIT(RTC->ICSR, RTC_ICSR_WUTWF) == 0U)
 562:../../Drivers/STM32L5xx_HAL_Driver/Src/stm32l5xx_hal_rtc_ex.c ****     {
 563:../../Drivers/STM32L5xx_HAL_Driver/Src/stm32l5xx_hal_rtc_ex.c ****       if ((HAL_GetTick() - tickstart) > RTC_TIMEOUT_VALUE)
 564:../../Drivers/STM32L5xx_HAL_Driver/Src/stm32l5xx_hal_rtc_ex.c ****       {
 565:../../Drivers/STM32L5xx_HAL_Driver/Src/stm32l5xx_hal_rtc_ex.c ****         /* Enable the write protection for RTC registers */
 566:../../Drivers/STM32L5xx_HAL_Driver/Src/stm32l5xx_hal_rtc_ex.c ****         __HAL_RTC_WRITEPROTECTION_ENABLE(hrtc);
 567:../../Drivers/STM32L5xx_HAL_Driver/Src/stm32l5xx_hal_rtc_ex.c **** 
 568:../../Drivers/STM32L5xx_HAL_Driver/Src/stm32l5xx_hal_rtc_ex.c ****         hrtc->State = HAL_RTC_STATE_TIMEOUT;
 569:../../Drivers/STM32L5xx_HAL_Driver/Src/stm32l5xx_hal_rtc_ex.c **** 
 570:../../Drivers/STM32L5xx_HAL_Driver/Src/stm32l5xx_hal_rtc_ex.c ****         /* Process Unlocked */
 571:../../Drivers/STM32L5xx_HAL_Driver/Src/stm32l5xx_hal_rtc_ex.c ****         __HAL_UNLOCK(hrtc);
 572:../../Drivers/STM32L5xx_HAL_Driver/Src/stm32l5xx_hal_rtc_ex.c **** 
 573:../../Drivers/STM32L5xx_HAL_Driver/Src/stm32l5xx_hal_rtc_ex.c ****         return HAL_TIMEOUT;
 574:../../Drivers/STM32L5xx_HAL_Driver/Src/stm32l5xx_hal_rtc_ex.c ****       }
 575:../../Drivers/STM32L5xx_HAL_Driver/Src/stm32l5xx_hal_rtc_ex.c ****     }
 576:../../Drivers/STM32L5xx_HAL_Driver/Src/stm32l5xx_hal_rtc_ex.c ****   }
 577:../../Drivers/STM32L5xx_HAL_Driver/Src/stm32l5xx_hal_rtc_ex.c **** 
ARM GAS  C:\Users\carlos\AppData\Local\Temp\ccaMGGVT.s 			page 26


 578:../../Drivers/STM32L5xx_HAL_Driver/Src/stm32l5xx_hal_rtc_ex.c ****   /* Configure the clock source */
 579:../../Drivers/STM32L5xx_HAL_Driver/Src/stm32l5xx_hal_rtc_ex.c ****   MODIFY_REG(RTC->CR, RTC_CR_WUCKSEL, (uint32_t)WakeUpClock);
 830              		.loc 1 579 3 is_stmt 1 view .LVU265
 831 0036 174B     		ldr	r3, .L59
 832 0038 9A69     		ldr	r2, [r3, #24]
 833 003a 22F00702 		bic	r2, r2, #7
 834 003e 1643     		orrs	r6, r6, r2
 835              	.LVL51:
 836              		.loc 1 579 3 is_stmt 0 view .LVU266
 837 0040 9E61     		str	r6, [r3, #24]
 580:../../Drivers/STM32L5xx_HAL_Driver/Src/stm32l5xx_hal_rtc_ex.c **** 
 581:../../Drivers/STM32L5xx_HAL_Driver/Src/stm32l5xx_hal_rtc_ex.c ****   /* Configure the Wakeup Timer counter */
 582:../../Drivers/STM32L5xx_HAL_Driver/Src/stm32l5xx_hal_rtc_ex.c ****   WRITE_REG(RTC->WUTR, (uint32_t)WakeUpCounter);
 838              		.loc 1 582 3 is_stmt 1 view .LVU267
 839 0042 5D61     		str	r5, [r3, #20]
 583:../../Drivers/STM32L5xx_HAL_Driver/Src/stm32l5xx_hal_rtc_ex.c **** 
 584:../../Drivers/STM32L5xx_HAL_Driver/Src/stm32l5xx_hal_rtc_ex.c ****   /* Enable the Wakeup Timer */
 585:../../Drivers/STM32L5xx_HAL_Driver/Src/stm32l5xx_hal_rtc_ex.c ****   SET_BIT(RTC->CR, RTC_CR_WUTE);
 840              		.loc 1 585 3 view .LVU268
 841 0044 9A69     		ldr	r2, [r3, #24]
 842 0046 42F48062 		orr	r2, r2, #1024
 843 004a 9A61     		str	r2, [r3, #24]
 586:../../Drivers/STM32L5xx_HAL_Driver/Src/stm32l5xx_hal_rtc_ex.c **** 
 587:../../Drivers/STM32L5xx_HAL_Driver/Src/stm32l5xx_hal_rtc_ex.c ****   /* Enable the write protection for RTC registers */
 588:../../Drivers/STM32L5xx_HAL_Driver/Src/stm32l5xx_hal_rtc_ex.c ****   __HAL_RTC_WRITEPROTECTION_ENABLE(hrtc);
 844              		.loc 1 588 3 view .LVU269
 845              		.loc 1 588 3 view .LVU270
 846 004c FF22     		movs	r2, #255
 847 004e 5A62     		str	r2, [r3, #36]
 848              		.loc 1 588 3 view .LVU271
 589:../../Drivers/STM32L5xx_HAL_Driver/Src/stm32l5xx_hal_rtc_ex.c **** 
 590:../../Drivers/STM32L5xx_HAL_Driver/Src/stm32l5xx_hal_rtc_ex.c ****   hrtc->State = HAL_RTC_STATE_READY;
 849              		.loc 1 590 3 view .LVU272
 850              		.loc 1 590 15 is_stmt 0 view .LVU273
 851 0050 0123     		movs	r3, #1
 852 0052 84F82530 		strb	r3, [r4, #37]
 591:../../Drivers/STM32L5xx_HAL_Driver/Src/stm32l5xx_hal_rtc_ex.c **** 
 592:../../Drivers/STM32L5xx_HAL_Driver/Src/stm32l5xx_hal_rtc_ex.c ****   /* Process Unlocked */
 593:../../Drivers/STM32L5xx_HAL_Driver/Src/stm32l5xx_hal_rtc_ex.c ****   __HAL_UNLOCK(hrtc);
 853              		.loc 1 593 3 is_stmt 1 view .LVU274
 854              		.loc 1 593 3 view .LVU275
 855 0056 0020     		movs	r0, #0
 856 0058 84F82400 		strb	r0, [r4, #36]
 857              		.loc 1 593 3 view .LVU276
 594:../../Drivers/STM32L5xx_HAL_Driver/Src/stm32l5xx_hal_rtc_ex.c **** 
 595:../../Drivers/STM32L5xx_HAL_Driver/Src/stm32l5xx_hal_rtc_ex.c ****   return HAL_OK;
 858              		.loc 1 595 3 view .LVU277
 859              	.LVL52:
 860              	.L52:
 596:../../Drivers/STM32L5xx_HAL_Driver/Src/stm32l5xx_hal_rtc_ex.c **** }
 861              		.loc 1 596 1 is_stmt 0 view .LVU278
 862 005c F8BD     		pop	{r3, r4, r5, r6, r7, pc}
 863              	.LVL53:
 864              	.L58:
 560:../../Drivers/STM32L5xx_HAL_Driver/Src/stm32l5xx_hal_rtc_ex.c ****     while (READ_BIT(RTC->ICSR, RTC_ICSR_WUTWF) == 0U)
 865              		.loc 1 560 5 is_stmt 1 view .LVU279
 560:../../Drivers/STM32L5xx_HAL_Driver/Src/stm32l5xx_hal_rtc_ex.c ****     while (READ_BIT(RTC->ICSR, RTC_ICSR_WUTWF) == 0U)
ARM GAS  C:\Users\carlos\AppData\Local\Temp\ccaMGGVT.s 			page 27


 866              		.loc 1 560 17 is_stmt 0 view .LVU280
 867 005e FFF7FEFF 		bl	HAL_GetTick
 868              	.LVL54:
 560:../../Drivers/STM32L5xx_HAL_Driver/Src/stm32l5xx_hal_rtc_ex.c ****     while (READ_BIT(RTC->ICSR, RTC_ICSR_WUTWF) == 0U)
 869              		.loc 1 560 17 view .LVU281
 870 0062 0746     		mov	r7, r0
 871              	.LVL55:
 561:../../Drivers/STM32L5xx_HAL_Driver/Src/stm32l5xx_hal_rtc_ex.c ****     {
 872              		.loc 1 561 5 is_stmt 1 view .LVU282
 873              	.L54:
 561:../../Drivers/STM32L5xx_HAL_Driver/Src/stm32l5xx_hal_rtc_ex.c ****     {
 874              		.loc 1 561 11 view .LVU283
 561:../../Drivers/STM32L5xx_HAL_Driver/Src/stm32l5xx_hal_rtc_ex.c ****     {
 875              		.loc 1 561 12 is_stmt 0 view .LVU284
 876 0064 0B4B     		ldr	r3, .L59
 877 0066 DB68     		ldr	r3, [r3, #12]
 561:../../Drivers/STM32L5xx_HAL_Driver/Src/stm32l5xx_hal_rtc_ex.c ****     {
 878              		.loc 1 561 11 view .LVU285
 879 0068 13F0040F 		tst	r3, #4
 880 006c E3D1     		bne	.L53
 563:../../Drivers/STM32L5xx_HAL_Driver/Src/stm32l5xx_hal_rtc_ex.c ****       {
 881              		.loc 1 563 7 is_stmt 1 view .LVU286
 563:../../Drivers/STM32L5xx_HAL_Driver/Src/stm32l5xx_hal_rtc_ex.c ****       {
 882              		.loc 1 563 12 is_stmt 0 view .LVU287
 883 006e FFF7FEFF 		bl	HAL_GetTick
 884              	.LVL56:
 563:../../Drivers/STM32L5xx_HAL_Driver/Src/stm32l5xx_hal_rtc_ex.c ****       {
 885              		.loc 1 563 26 view .LVU288
 886 0072 C31B     		subs	r3, r0, r7
 563:../../Drivers/STM32L5xx_HAL_Driver/Src/stm32l5xx_hal_rtc_ex.c ****       {
 887              		.loc 1 563 10 view .LVU289
 888 0074 B3F57A7F 		cmp	r3, #1000
 889 0078 F4D9     		bls	.L54
 566:../../Drivers/STM32L5xx_HAL_Driver/Src/stm32l5xx_hal_rtc_ex.c **** 
 890              		.loc 1 566 9 is_stmt 1 view .LVU290
 566:../../Drivers/STM32L5xx_HAL_Driver/Src/stm32l5xx_hal_rtc_ex.c **** 
 891              		.loc 1 566 9 view .LVU291
 892 007a 064B     		ldr	r3, .L59
 893 007c FF22     		movs	r2, #255
 894 007e 5A62     		str	r2, [r3, #36]
 566:../../Drivers/STM32L5xx_HAL_Driver/Src/stm32l5xx_hal_rtc_ex.c **** 
 895              		.loc 1 566 9 view .LVU292
 568:../../Drivers/STM32L5xx_HAL_Driver/Src/stm32l5xx_hal_rtc_ex.c **** 
 896              		.loc 1 568 9 view .LVU293
 568:../../Drivers/STM32L5xx_HAL_Driver/Src/stm32l5xx_hal_rtc_ex.c **** 
 897              		.loc 1 568 21 is_stmt 0 view .LVU294
 898 0080 0320     		movs	r0, #3
 899 0082 84F82500 		strb	r0, [r4, #37]
 571:../../Drivers/STM32L5xx_HAL_Driver/Src/stm32l5xx_hal_rtc_ex.c **** 
 900              		.loc 1 571 9 is_stmt 1 view .LVU295
 571:../../Drivers/STM32L5xx_HAL_Driver/Src/stm32l5xx_hal_rtc_ex.c **** 
 901              		.loc 1 571 9 view .LVU296
 902 0086 0023     		movs	r3, #0
 903 0088 84F82430 		strb	r3, [r4, #36]
 571:../../Drivers/STM32L5xx_HAL_Driver/Src/stm32l5xx_hal_rtc_ex.c **** 
 904              		.loc 1 571 9 view .LVU297
 573:../../Drivers/STM32L5xx_HAL_Driver/Src/stm32l5xx_hal_rtc_ex.c ****       }
ARM GAS  C:\Users\carlos\AppData\Local\Temp\ccaMGGVT.s 			page 28


 905              		.loc 1 573 9 view .LVU298
 573:../../Drivers/STM32L5xx_HAL_Driver/Src/stm32l5xx_hal_rtc_ex.c ****       }
 906              		.loc 1 573 16 is_stmt 0 view .LVU299
 907 008c E6E7     		b	.L52
 908              	.LVL57:
 909              	.L56:
 545:../../Drivers/STM32L5xx_HAL_Driver/Src/stm32l5xx_hal_rtc_ex.c **** 
 910              		.loc 1 545 3 view .LVU300
 911 008e 0220     		movs	r0, #2
 912              	.LVL58:
 545:../../Drivers/STM32L5xx_HAL_Driver/Src/stm32l5xx_hal_rtc_ex.c **** 
 913              		.loc 1 545 3 view .LVU301
 914 0090 E4E7     		b	.L52
 915              	.L60:
 916 0092 00BF     		.align	2
 917              	.L59:
 918 0094 00280050 		.word	1342187520
 919              		.cfi_endproc
 920              	.LFE211:
 922              		.section	.text.HAL_RTCEx_SetWakeUpTimer_IT,"ax",%progbits
 923              		.align	1
 924              		.global	HAL_RTCEx_SetWakeUpTimer_IT
 925              		.syntax unified
 926              		.thumb
 927              		.thumb_func
 928              		.fpu fpv4-sp-d16
 930              	HAL_RTCEx_SetWakeUpTimer_IT:
 931              	.LVL59:
 932              	.LFB212:
 597:../../Drivers/STM32L5xx_HAL_Driver/Src/stm32l5xx_hal_rtc_ex.c **** 
 598:../../Drivers/STM32L5xx_HAL_Driver/Src/stm32l5xx_hal_rtc_ex.c **** /**
 599:../../Drivers/STM32L5xx_HAL_Driver/Src/stm32l5xx_hal_rtc_ex.c ****   * @brief  Set wake up timer with interrupt.
 600:../../Drivers/STM32L5xx_HAL_Driver/Src/stm32l5xx_hal_rtc_ex.c ****   * @param  hrtc RTC handle
 601:../../Drivers/STM32L5xx_HAL_Driver/Src/stm32l5xx_hal_rtc_ex.c ****   * @param  WakeUpCounter Wake up counter
 602:../../Drivers/STM32L5xx_HAL_Driver/Src/stm32l5xx_hal_rtc_ex.c ****   * @param  WakeUpClock Wake up clock
 603:../../Drivers/STM32L5xx_HAL_Driver/Src/stm32l5xx_hal_rtc_ex.c ****   * @param  WakeUpAutoClr Wake up auto clear value (look at WUTOCLR in reference manual)
 604:../../Drivers/STM32L5xx_HAL_Driver/Src/stm32l5xx_hal_rtc_ex.c ****   *                       - No effect if WakeUpAutoClr is set to zero
 605:../../Drivers/STM32L5xx_HAL_Driver/Src/stm32l5xx_hal_rtc_ex.c ****   *                       - This feature is meaningful in case of Low power mode to avoid any RTC s
 606:../../Drivers/STM32L5xx_HAL_Driver/Src/stm32l5xx_hal_rtc_ex.c ****   *                         That is why when WakeUpAutoClr is set, EXTI is configured as EVENT inst
 607:../../Drivers/STM32L5xx_HAL_Driver/Src/stm32l5xx_hal_rtc_ex.c ****   * @retval HAL status
 608:../../Drivers/STM32L5xx_HAL_Driver/Src/stm32l5xx_hal_rtc_ex.c ****   */
 609:../../Drivers/STM32L5xx_HAL_Driver/Src/stm32l5xx_hal_rtc_ex.c **** HAL_StatusTypeDef HAL_RTCEx_SetWakeUpTimer_IT(RTC_HandleTypeDef *hrtc, uint32_t WakeUpCounter, uint
 610:../../Drivers/STM32L5xx_HAL_Driver/Src/stm32l5xx_hal_rtc_ex.c **** {
 933              		.loc 1 610 1 is_stmt 1 view -0
 934              		.cfi_startproc
 935              		@ args = 0, pretend = 0, frame = 0
 936              		@ frame_needed = 0, uses_anonymous_args = 0
 937              		.loc 1 610 1 is_stmt 0 view .LVU303
 938 0000 2DE9F843 		push	{r3, r4, r5, r6, r7, r8, r9, lr}
 939              	.LCFI4:
 940              		.cfi_def_cfa_offset 32
 941              		.cfi_offset 3, -32
 942              		.cfi_offset 4, -28
 943              		.cfi_offset 5, -24
 944              		.cfi_offset 6, -20
 945              		.cfi_offset 7, -16
 946              		.cfi_offset 8, -12
ARM GAS  C:\Users\carlos\AppData\Local\Temp\ccaMGGVT.s 			page 29


 947              		.cfi_offset 9, -8
 948              		.cfi_offset 14, -4
 949 0004 1F46     		mov	r7, r3
 611:../../Drivers/STM32L5xx_HAL_Driver/Src/stm32l5xx_hal_rtc_ex.c ****   uint32_t tickstart;
 950              		.loc 1 611 3 is_stmt 1 view .LVU304
 612:../../Drivers/STM32L5xx_HAL_Driver/Src/stm32l5xx_hal_rtc_ex.c **** 
 613:../../Drivers/STM32L5xx_HAL_Driver/Src/stm32l5xx_hal_rtc_ex.c ****   /* Check the parameters */
 614:../../Drivers/STM32L5xx_HAL_Driver/Src/stm32l5xx_hal_rtc_ex.c ****   assert_param(IS_RTC_WAKEUP_CLOCK(WakeUpClock));
 951              		.loc 1 614 3 view .LVU305
 615:../../Drivers/STM32L5xx_HAL_Driver/Src/stm32l5xx_hal_rtc_ex.c ****   assert_param(IS_RTC_WAKEUP_COUNTER(WakeUpCounter));
 952              		.loc 1 615 3 view .LVU306
 616:../../Drivers/STM32L5xx_HAL_Driver/Src/stm32l5xx_hal_rtc_ex.c ****   /* (0x0000<=WUTOCLR<=WUT) */
 617:../../Drivers/STM32L5xx_HAL_Driver/Src/stm32l5xx_hal_rtc_ex.c ****   assert_param(WakeUpAutoClr <= WakeUpCounter);
 953              		.loc 1 617 3 view .LVU307
 618:../../Drivers/STM32L5xx_HAL_Driver/Src/stm32l5xx_hal_rtc_ex.c **** 
 619:../../Drivers/STM32L5xx_HAL_Driver/Src/stm32l5xx_hal_rtc_ex.c ****   /* Process Locked */
 620:../../Drivers/STM32L5xx_HAL_Driver/Src/stm32l5xx_hal_rtc_ex.c ****   __HAL_LOCK(hrtc);
 954              		.loc 1 620 3 view .LVU308
 955              		.loc 1 620 3 view .LVU309
 956 0006 90F82430 		ldrb	r3, [r0, #36]	@ zero_extendqisi2
 957              	.LVL60:
 958              		.loc 1 620 3 is_stmt 0 view .LVU310
 959 000a 012B     		cmp	r3, #1
 960 000c 59D0     		beq	.L68
 961 000e 0446     		mov	r4, r0
 962 0010 0E46     		mov	r6, r1
 963 0012 9046     		mov	r8, r2
 964              		.loc 1 620 3 is_stmt 1 discriminator 2 view .LVU311
 965 0014 0123     		movs	r3, #1
 966 0016 80F82430 		strb	r3, [r0, #36]
 967              		.loc 1 620 3 discriminator 2 view .LVU312
 621:../../Drivers/STM32L5xx_HAL_Driver/Src/stm32l5xx_hal_rtc_ex.c **** 
 622:../../Drivers/STM32L5xx_HAL_Driver/Src/stm32l5xx_hal_rtc_ex.c ****   hrtc->State = HAL_RTC_STATE_BUSY;
 968              		.loc 1 622 3 discriminator 2 view .LVU313
 969              		.loc 1 622 15 is_stmt 0 discriminator 2 view .LVU314
 970 001a 0223     		movs	r3, #2
 971 001c 80F82530 		strb	r3, [r0, #37]
 623:../../Drivers/STM32L5xx_HAL_Driver/Src/stm32l5xx_hal_rtc_ex.c **** 
 624:../../Drivers/STM32L5xx_HAL_Driver/Src/stm32l5xx_hal_rtc_ex.c ****   /* Disable the write protection for RTC registers */
 625:../../Drivers/STM32L5xx_HAL_Driver/Src/stm32l5xx_hal_rtc_ex.c ****   __HAL_RTC_WRITEPROTECTION_DISABLE(hrtc);
 972              		.loc 1 625 3 is_stmt 1 discriminator 2 view .LVU315
 973              		.loc 1 625 3 discriminator 2 view .LVU316
 974 0020 2948     		ldr	r0, .L71
 975              	.LVL61:
 976              		.loc 1 625 3 is_stmt 0 discriminator 2 view .LVU317
 977 0022 CA23     		movs	r3, #202
 978 0024 4362     		str	r3, [r0, #36]
 979              		.loc 1 625 3 is_stmt 1 discriminator 2 view .LVU318
 980 0026 5323     		movs	r3, #83
 981 0028 4362     		str	r3, [r0, #36]
 982              		.loc 1 625 3 discriminator 2 view .LVU319
 626:../../Drivers/STM32L5xx_HAL_Driver/Src/stm32l5xx_hal_rtc_ex.c **** 
 627:../../Drivers/STM32L5xx_HAL_Driver/Src/stm32l5xx_hal_rtc_ex.c ****   /* Clear WUTE in RTC_CR to disable the wakeup timer */
 628:../../Drivers/STM32L5xx_HAL_Driver/Src/stm32l5xx_hal_rtc_ex.c ****   CLEAR_BIT(RTC->CR, RTC_CR_WUTE);
 983              		.loc 1 628 3 discriminator 2 view .LVU320
 984 002a 8369     		ldr	r3, [r0, #24]
 985 002c 23F48063 		bic	r3, r3, #1024
ARM GAS  C:\Users\carlos\AppData\Local\Temp\ccaMGGVT.s 			page 30


 986 0030 8361     		str	r3, [r0, #24]
 629:../../Drivers/STM32L5xx_HAL_Driver/Src/stm32l5xx_hal_rtc_ex.c **** 
 630:../../Drivers/STM32L5xx_HAL_Driver/Src/stm32l5xx_hal_rtc_ex.c ****   /* Clear flag Wake-Up */
 631:../../Drivers/STM32L5xx_HAL_Driver/Src/stm32l5xx_hal_rtc_ex.c ****   WRITE_REG(RTC->SCR, RTC_SCR_CWUTF);
 987              		.loc 1 631 3 discriminator 2 view .LVU321
 988 0032 0423     		movs	r3, #4
 989 0034 C365     		str	r3, [r0, #92]
 632:../../Drivers/STM32L5xx_HAL_Driver/Src/stm32l5xx_hal_rtc_ex.c **** 
 633:../../Drivers/STM32L5xx_HAL_Driver/Src/stm32l5xx_hal_rtc_ex.c ****   /* Poll WUTWF until it is set in RTC_ICSR to make sure the access to wakeup autoreload
 634:../../Drivers/STM32L5xx_HAL_Driver/Src/stm32l5xx_hal_rtc_ex.c ****      counter and to WUCKSEL[2:0] bits is allowed. This step must be skipped in
 635:../../Drivers/STM32L5xx_HAL_Driver/Src/stm32l5xx_hal_rtc_ex.c ****      calendar initialization mode. */
 636:../../Drivers/STM32L5xx_HAL_Driver/Src/stm32l5xx_hal_rtc_ex.c ****   if (READ_BIT(RTC->ICSR, RTC_ICSR_INITF) == 0U)
 990              		.loc 1 636 3 discriminator 2 view .LVU322
 991              		.loc 1 636 7 is_stmt 0 discriminator 2 view .LVU323
 992 0036 C368     		ldr	r3, [r0, #12]
 993              		.loc 1 636 6 discriminator 2 view .LVU324
 994 0038 13F0400F 		tst	r3, #64
 995 003c 20D0     		beq	.L70
 996              	.LVL62:
 997              	.L63:
 637:../../Drivers/STM32L5xx_HAL_Driver/Src/stm32l5xx_hal_rtc_ex.c ****   {
 638:../../Drivers/STM32L5xx_HAL_Driver/Src/stm32l5xx_hal_rtc_ex.c ****     tickstart = HAL_GetTick();
 639:../../Drivers/STM32L5xx_HAL_Driver/Src/stm32l5xx_hal_rtc_ex.c ****     while (READ_BIT(RTC->ICSR, RTC_ICSR_WUTWF) == 0U)
 640:../../Drivers/STM32L5xx_HAL_Driver/Src/stm32l5xx_hal_rtc_ex.c ****     {
 641:../../Drivers/STM32L5xx_HAL_Driver/Src/stm32l5xx_hal_rtc_ex.c ****       if ((HAL_GetTick() - tickstart) > RTC_TIMEOUT_VALUE)
 642:../../Drivers/STM32L5xx_HAL_Driver/Src/stm32l5xx_hal_rtc_ex.c ****       {
 643:../../Drivers/STM32L5xx_HAL_Driver/Src/stm32l5xx_hal_rtc_ex.c ****         /* Enable the write protection for RTC registers */
 644:../../Drivers/STM32L5xx_HAL_Driver/Src/stm32l5xx_hal_rtc_ex.c ****         __HAL_RTC_WRITEPROTECTION_ENABLE(hrtc);
 645:../../Drivers/STM32L5xx_HAL_Driver/Src/stm32l5xx_hal_rtc_ex.c **** 
 646:../../Drivers/STM32L5xx_HAL_Driver/Src/stm32l5xx_hal_rtc_ex.c ****         hrtc->State = HAL_RTC_STATE_TIMEOUT;
 647:../../Drivers/STM32L5xx_HAL_Driver/Src/stm32l5xx_hal_rtc_ex.c **** 
 648:../../Drivers/STM32L5xx_HAL_Driver/Src/stm32l5xx_hal_rtc_ex.c ****         /* Process Unlocked */
 649:../../Drivers/STM32L5xx_HAL_Driver/Src/stm32l5xx_hal_rtc_ex.c ****         __HAL_UNLOCK(hrtc);
 650:../../Drivers/STM32L5xx_HAL_Driver/Src/stm32l5xx_hal_rtc_ex.c **** 
 651:../../Drivers/STM32L5xx_HAL_Driver/Src/stm32l5xx_hal_rtc_ex.c ****         return HAL_TIMEOUT;
 652:../../Drivers/STM32L5xx_HAL_Driver/Src/stm32l5xx_hal_rtc_ex.c ****       }
 653:../../Drivers/STM32L5xx_HAL_Driver/Src/stm32l5xx_hal_rtc_ex.c ****     }
 654:../../Drivers/STM32L5xx_HAL_Driver/Src/stm32l5xx_hal_rtc_ex.c ****   }
 655:../../Drivers/STM32L5xx_HAL_Driver/Src/stm32l5xx_hal_rtc_ex.c **** 
 656:../../Drivers/STM32L5xx_HAL_Driver/Src/stm32l5xx_hal_rtc_ex.c ****   /* Configure the Wakeup Timer counter and auto clear value */
 657:../../Drivers/STM32L5xx_HAL_Driver/Src/stm32l5xx_hal_rtc_ex.c ****   WRITE_REG(RTC->WUTR, (uint32_t)(WakeUpCounter | (WakeUpAutoClr << RTC_WUTR_WUTOCLR_Pos)));
 998              		.loc 1 657 3 is_stmt 1 view .LVU325
 999 003e 46EA0746 		orr	r6, r6, r7, lsl #16
 1000              	.LVL63:
 1001              		.loc 1 657 3 is_stmt 0 view .LVU326
 1002 0042 214B     		ldr	r3, .L71
 1003 0044 5E61     		str	r6, [r3, #20]
 658:../../Drivers/STM32L5xx_HAL_Driver/Src/stm32l5xx_hal_rtc_ex.c **** 
 659:../../Drivers/STM32L5xx_HAL_Driver/Src/stm32l5xx_hal_rtc_ex.c ****   /* Configure the clock source */
 660:../../Drivers/STM32L5xx_HAL_Driver/Src/stm32l5xx_hal_rtc_ex.c ****   MODIFY_REG(RTC->CR, RTC_CR_WUCKSEL, (uint32_t)WakeUpClock);
 1004              		.loc 1 660 3 is_stmt 1 view .LVU327
 1005 0046 9A69     		ldr	r2, [r3, #24]
 1006 0048 22F00702 		bic	r2, r2, #7
 1007 004c 42EA0802 		orr	r2, r2, r8
 1008 0050 9A61     		str	r2, [r3, #24]
 661:../../Drivers/STM32L5xx_HAL_Driver/Src/stm32l5xx_hal_rtc_ex.c **** 
 662:../../Drivers/STM32L5xx_HAL_Driver/Src/stm32l5xx_hal_rtc_ex.c ****   /* In case of WUT autoclr, the IRQ handler should not be called */
ARM GAS  C:\Users\carlos\AppData\Local\Temp\ccaMGGVT.s 			page 31


 663:../../Drivers/STM32L5xx_HAL_Driver/Src/stm32l5xx_hal_rtc_ex.c ****   if (WakeUpAutoClr != 0U)
 1009              		.loc 1 663 3 view .LVU328
 1010              		.loc 1 663 6 is_stmt 0 view .LVU329
 1011 0052 77B3     		cbz	r7, .L66
 664:../../Drivers/STM32L5xx_HAL_Driver/Src/stm32l5xx_hal_rtc_ex.c ****   {
 665:../../Drivers/STM32L5xx_HAL_Driver/Src/stm32l5xx_hal_rtc_ex.c ****     /* RTC WakeUpTimer EXTI Configuration: Event configuration */
 666:../../Drivers/STM32L5xx_HAL_Driver/Src/stm32l5xx_hal_rtc_ex.c ****     __HAL_RTC_WAKEUPTIMER_EXTI_ENABLE_EVENT();
 1012              		.loc 1 666 5 is_stmt 1 view .LVU330
 1013 0054 1D4A     		ldr	r2, .L71+4
 1014 0056 D2F88430 		ldr	r3, [r2, #132]
 1015 005a 43F48023 		orr	r3, r3, #262144
 1016 005e C2F88430 		str	r3, [r2, #132]
 1017              	.L67:
 667:../../Drivers/STM32L5xx_HAL_Driver/Src/stm32l5xx_hal_rtc_ex.c ****   }
 668:../../Drivers/STM32L5xx_HAL_Driver/Src/stm32l5xx_hal_rtc_ex.c ****   else
 669:../../Drivers/STM32L5xx_HAL_Driver/Src/stm32l5xx_hal_rtc_ex.c ****   {
 670:../../Drivers/STM32L5xx_HAL_Driver/Src/stm32l5xx_hal_rtc_ex.c ****     /* RTC WakeUpTimer EXTI Configuration: Interrupt configuration */
 671:../../Drivers/STM32L5xx_HAL_Driver/Src/stm32l5xx_hal_rtc_ex.c ****     __HAL_RTC_WAKEUPTIMER_EXTI_ENABLE_IT();
 672:../../Drivers/STM32L5xx_HAL_Driver/Src/stm32l5xx_hal_rtc_ex.c ****   }
 673:../../Drivers/STM32L5xx_HAL_Driver/Src/stm32l5xx_hal_rtc_ex.c **** 
 674:../../Drivers/STM32L5xx_HAL_Driver/Src/stm32l5xx_hal_rtc_ex.c ****   /* Configure the Interrupt in the RTC_CR register and Enable the Wakeup Timer*/
 675:../../Drivers/STM32L5xx_HAL_Driver/Src/stm32l5xx_hal_rtc_ex.c ****   SET_BIT(RTC->CR, (RTC_CR_WUTIE | RTC_CR_WUTE));
 1018              		.loc 1 675 3 view .LVU331
 1019 0062 194B     		ldr	r3, .L71
 1020 0064 9A69     		ldr	r2, [r3, #24]
 1021 0066 42F48842 		orr	r2, r2, #17408
 1022 006a 9A61     		str	r2, [r3, #24]
 676:../../Drivers/STM32L5xx_HAL_Driver/Src/stm32l5xx_hal_rtc_ex.c **** 
 677:../../Drivers/STM32L5xx_HAL_Driver/Src/stm32l5xx_hal_rtc_ex.c ****   /* Enable the write protection for RTC registers */
 678:../../Drivers/STM32L5xx_HAL_Driver/Src/stm32l5xx_hal_rtc_ex.c ****   __HAL_RTC_WRITEPROTECTION_ENABLE(hrtc);
 1023              		.loc 1 678 3 view .LVU332
 1024              		.loc 1 678 3 view .LVU333
 1025 006c FF22     		movs	r2, #255
 1026 006e 5A62     		str	r2, [r3, #36]
 1027              		.loc 1 678 3 view .LVU334
 679:../../Drivers/STM32L5xx_HAL_Driver/Src/stm32l5xx_hal_rtc_ex.c **** 
 680:../../Drivers/STM32L5xx_HAL_Driver/Src/stm32l5xx_hal_rtc_ex.c ****   hrtc->State = HAL_RTC_STATE_READY;
 1028              		.loc 1 680 3 view .LVU335
 1029              		.loc 1 680 15 is_stmt 0 view .LVU336
 1030 0070 0123     		movs	r3, #1
 1031 0072 84F82530 		strb	r3, [r4, #37]
 681:../../Drivers/STM32L5xx_HAL_Driver/Src/stm32l5xx_hal_rtc_ex.c **** 
 682:../../Drivers/STM32L5xx_HAL_Driver/Src/stm32l5xx_hal_rtc_ex.c ****   /* Process Unlocked */
 683:../../Drivers/STM32L5xx_HAL_Driver/Src/stm32l5xx_hal_rtc_ex.c ****   __HAL_UNLOCK(hrtc);
 1032              		.loc 1 683 3 is_stmt 1 view .LVU337
 1033              		.loc 1 683 3 view .LVU338
 1034 0076 0020     		movs	r0, #0
 1035 0078 84F82400 		strb	r0, [r4, #36]
 1036              		.loc 1 683 3 view .LVU339
 684:../../Drivers/STM32L5xx_HAL_Driver/Src/stm32l5xx_hal_rtc_ex.c **** 
 685:../../Drivers/STM32L5xx_HAL_Driver/Src/stm32l5xx_hal_rtc_ex.c ****   return HAL_OK;
 1037              		.loc 1 685 3 view .LVU340
 1038              	.LVL64:
 1039              	.L62:
 686:../../Drivers/STM32L5xx_HAL_Driver/Src/stm32l5xx_hal_rtc_ex.c **** }
 1040              		.loc 1 686 1 is_stmt 0 view .LVU341
 1041 007c BDE8F883 		pop	{r3, r4, r5, r6, r7, r8, r9, pc}
ARM GAS  C:\Users\carlos\AppData\Local\Temp\ccaMGGVT.s 			page 32


 1042              	.LVL65:
 1043              	.L70:
 638:../../Drivers/STM32L5xx_HAL_Driver/Src/stm32l5xx_hal_rtc_ex.c ****     while (READ_BIT(RTC->ICSR, RTC_ICSR_WUTWF) == 0U)
 1044              		.loc 1 638 5 is_stmt 1 view .LVU342
 638:../../Drivers/STM32L5xx_HAL_Driver/Src/stm32l5xx_hal_rtc_ex.c ****     while (READ_BIT(RTC->ICSR, RTC_ICSR_WUTWF) == 0U)
 1045              		.loc 1 638 17 is_stmt 0 view .LVU343
 1046 0080 FFF7FEFF 		bl	HAL_GetTick
 1047              	.LVL66:
 638:../../Drivers/STM32L5xx_HAL_Driver/Src/stm32l5xx_hal_rtc_ex.c ****     while (READ_BIT(RTC->ICSR, RTC_ICSR_WUTWF) == 0U)
 1048              		.loc 1 638 17 view .LVU344
 1049 0084 8146     		mov	r9, r0
 1050              	.LVL67:
 639:../../Drivers/STM32L5xx_HAL_Driver/Src/stm32l5xx_hal_rtc_ex.c ****     {
 1051              		.loc 1 639 5 is_stmt 1 view .LVU345
 1052              	.L64:
 639:../../Drivers/STM32L5xx_HAL_Driver/Src/stm32l5xx_hal_rtc_ex.c ****     {
 1053              		.loc 1 639 11 view .LVU346
 639:../../Drivers/STM32L5xx_HAL_Driver/Src/stm32l5xx_hal_rtc_ex.c ****     {
 1054              		.loc 1 639 12 is_stmt 0 view .LVU347
 1055 0086 104B     		ldr	r3, .L71
 1056 0088 DD68     		ldr	r5, [r3, #12]
 639:../../Drivers/STM32L5xx_HAL_Driver/Src/stm32l5xx_hal_rtc_ex.c ****     {
 1057              		.loc 1 639 11 view .LVU348
 1058 008a 15F0040F 		tst	r5, #4
 1059 008e D6D1     		bne	.L63
 641:../../Drivers/STM32L5xx_HAL_Driver/Src/stm32l5xx_hal_rtc_ex.c ****       {
 1060              		.loc 1 641 7 is_stmt 1 view .LVU349
 641:../../Drivers/STM32L5xx_HAL_Driver/Src/stm32l5xx_hal_rtc_ex.c ****       {
 1061              		.loc 1 641 12 is_stmt 0 view .LVU350
 1062 0090 FFF7FEFF 		bl	HAL_GetTick
 1063              	.LVL68:
 641:../../Drivers/STM32L5xx_HAL_Driver/Src/stm32l5xx_hal_rtc_ex.c ****       {
 1064              		.loc 1 641 26 view .LVU351
 1065 0094 A0EB090C 		sub	ip, r0, r9
 641:../../Drivers/STM32L5xx_HAL_Driver/Src/stm32l5xx_hal_rtc_ex.c ****       {
 1066              		.loc 1 641 10 view .LVU352
 1067 0098 BCF57A7F 		cmp	ip, #1000
 1068 009c F3D9     		bls	.L64
 644:../../Drivers/STM32L5xx_HAL_Driver/Src/stm32l5xx_hal_rtc_ex.c **** 
 1069              		.loc 1 644 9 is_stmt 1 view .LVU353
 644:../../Drivers/STM32L5xx_HAL_Driver/Src/stm32l5xx_hal_rtc_ex.c **** 
 1070              		.loc 1 644 9 view .LVU354
 1071 009e 0A4B     		ldr	r3, .L71
 1072 00a0 FF22     		movs	r2, #255
 1073 00a2 5A62     		str	r2, [r3, #36]
 644:../../Drivers/STM32L5xx_HAL_Driver/Src/stm32l5xx_hal_rtc_ex.c **** 
 1074              		.loc 1 644 9 view .LVU355
 646:../../Drivers/STM32L5xx_HAL_Driver/Src/stm32l5xx_hal_rtc_ex.c **** 
 1075              		.loc 1 646 9 view .LVU356
 646:../../Drivers/STM32L5xx_HAL_Driver/Src/stm32l5xx_hal_rtc_ex.c **** 
 1076              		.loc 1 646 21 is_stmt 0 view .LVU357
 1077 00a4 0320     		movs	r0, #3
 1078 00a6 84F82500 		strb	r0, [r4, #37]
 649:../../Drivers/STM32L5xx_HAL_Driver/Src/stm32l5xx_hal_rtc_ex.c **** 
 1079              		.loc 1 649 9 is_stmt 1 view .LVU358
 649:../../Drivers/STM32L5xx_HAL_Driver/Src/stm32l5xx_hal_rtc_ex.c **** 
 1080              		.loc 1 649 9 view .LVU359
ARM GAS  C:\Users\carlos\AppData\Local\Temp\ccaMGGVT.s 			page 33


 1081 00aa 0023     		movs	r3, #0
 1082 00ac 84F82430 		strb	r3, [r4, #36]
 649:../../Drivers/STM32L5xx_HAL_Driver/Src/stm32l5xx_hal_rtc_ex.c **** 
 1083              		.loc 1 649 9 view .LVU360
 651:../../Drivers/STM32L5xx_HAL_Driver/Src/stm32l5xx_hal_rtc_ex.c ****       }
 1084              		.loc 1 651 9 view .LVU361
 651:../../Drivers/STM32L5xx_HAL_Driver/Src/stm32l5xx_hal_rtc_ex.c ****       }
 1085              		.loc 1 651 16 is_stmt 0 view .LVU362
 1086 00b0 E4E7     		b	.L62
 1087              	.LVL69:
 1088              	.L66:
 671:../../Drivers/STM32L5xx_HAL_Driver/Src/stm32l5xx_hal_rtc_ex.c ****   }
 1089              		.loc 1 671 5 is_stmt 1 view .LVU363
 1090 00b2 064A     		ldr	r2, .L71+4
 1091 00b4 D2F88030 		ldr	r3, [r2, #128]
 1092 00b8 43F48023 		orr	r3, r3, #262144
 1093 00bc C2F88030 		str	r3, [r2, #128]
 1094 00c0 CFE7     		b	.L67
 1095              	.LVL70:
 1096              	.L68:
 620:../../Drivers/STM32L5xx_HAL_Driver/Src/stm32l5xx_hal_rtc_ex.c **** 
 1097              		.loc 1 620 3 is_stmt 0 view .LVU364
 1098 00c2 0220     		movs	r0, #2
 1099              	.LVL71:
 620:../../Drivers/STM32L5xx_HAL_Driver/Src/stm32l5xx_hal_rtc_ex.c **** 
 1100              		.loc 1 620 3 view .LVU365
 1101 00c4 DAE7     		b	.L62
 1102              	.L72:
 1103 00c6 00BF     		.align	2
 1104              	.L71:
 1105 00c8 00280050 		.word	1342187520
 1106 00cc 00F40250 		.word	1342370816
 1107              		.cfi_endproc
 1108              	.LFE212:
 1110              		.section	.text.HAL_RTCEx_DeactivateWakeUpTimer,"ax",%progbits
 1111              		.align	1
 1112              		.global	HAL_RTCEx_DeactivateWakeUpTimer
 1113              		.syntax unified
 1114              		.thumb
 1115              		.thumb_func
 1116              		.fpu fpv4-sp-d16
 1118              	HAL_RTCEx_DeactivateWakeUpTimer:
 1119              	.LVL72:
 1120              	.LFB213:
 687:../../Drivers/STM32L5xx_HAL_Driver/Src/stm32l5xx_hal_rtc_ex.c **** 
 688:../../Drivers/STM32L5xx_HAL_Driver/Src/stm32l5xx_hal_rtc_ex.c **** /**
 689:../../Drivers/STM32L5xx_HAL_Driver/Src/stm32l5xx_hal_rtc_ex.c ****   * @brief  Deactivate wake up timer counter.
 690:../../Drivers/STM32L5xx_HAL_Driver/Src/stm32l5xx_hal_rtc_ex.c ****   * @param  hrtc RTC handle
 691:../../Drivers/STM32L5xx_HAL_Driver/Src/stm32l5xx_hal_rtc_ex.c ****   * @retval HAL status
 692:../../Drivers/STM32L5xx_HAL_Driver/Src/stm32l5xx_hal_rtc_ex.c ****   */
 693:../../Drivers/STM32L5xx_HAL_Driver/Src/stm32l5xx_hal_rtc_ex.c **** HAL_StatusTypeDef HAL_RTCEx_DeactivateWakeUpTimer(RTC_HandleTypeDef *hrtc)
 694:../../Drivers/STM32L5xx_HAL_Driver/Src/stm32l5xx_hal_rtc_ex.c **** {
 1121              		.loc 1 694 1 is_stmt 1 view -0
 1122              		.cfi_startproc
 1123              		@ args = 0, pretend = 0, frame = 0
 1124              		@ frame_needed = 0, uses_anonymous_args = 0
 1125              		.loc 1 694 1 is_stmt 0 view .LVU367
ARM GAS  C:\Users\carlos\AppData\Local\Temp\ccaMGGVT.s 			page 34


 1126 0000 38B5     		push	{r3, r4, r5, lr}
 1127              	.LCFI5:
 1128              		.cfi_def_cfa_offset 16
 1129              		.cfi_offset 3, -16
 1130              		.cfi_offset 4, -12
 1131              		.cfi_offset 5, -8
 1132              		.cfi_offset 14, -4
 695:../../Drivers/STM32L5xx_HAL_Driver/Src/stm32l5xx_hal_rtc_ex.c ****   uint32_t tickstart;
 1133              		.loc 1 695 3 is_stmt 1 view .LVU368
 696:../../Drivers/STM32L5xx_HAL_Driver/Src/stm32l5xx_hal_rtc_ex.c **** 
 697:../../Drivers/STM32L5xx_HAL_Driver/Src/stm32l5xx_hal_rtc_ex.c ****   /* Process Locked */
 698:../../Drivers/STM32L5xx_HAL_Driver/Src/stm32l5xx_hal_rtc_ex.c ****   __HAL_LOCK(hrtc);
 1134              		.loc 1 698 3 view .LVU369
 1135              		.loc 1 698 3 view .LVU370
 1136 0002 90F82430 		ldrb	r3, [r0, #36]	@ zero_extendqisi2
 1137 0006 012B     		cmp	r3, #1
 1138 0008 31D0     		beq	.L77
 1139 000a 0546     		mov	r5, r0
 1140              		.loc 1 698 3 discriminator 2 view .LVU371
 1141 000c 0123     		movs	r3, #1
 1142 000e 80F82430 		strb	r3, [r0, #36]
 1143              		.loc 1 698 3 discriminator 2 view .LVU372
 699:../../Drivers/STM32L5xx_HAL_Driver/Src/stm32l5xx_hal_rtc_ex.c **** 
 700:../../Drivers/STM32L5xx_HAL_Driver/Src/stm32l5xx_hal_rtc_ex.c ****   hrtc->State = HAL_RTC_STATE_BUSY;
 1144              		.loc 1 700 3 discriminator 2 view .LVU373
 1145              		.loc 1 700 15 is_stmt 0 discriminator 2 view .LVU374
 1146 0012 0223     		movs	r3, #2
 1147 0014 80F82530 		strb	r3, [r0, #37]
 701:../../Drivers/STM32L5xx_HAL_Driver/Src/stm32l5xx_hal_rtc_ex.c **** 
 702:../../Drivers/STM32L5xx_HAL_Driver/Src/stm32l5xx_hal_rtc_ex.c ****   /* Disable the write protection for RTC registers */
 703:../../Drivers/STM32L5xx_HAL_Driver/Src/stm32l5xx_hal_rtc_ex.c ****   __HAL_RTC_WRITEPROTECTION_DISABLE(hrtc);
 1148              		.loc 1 703 3 is_stmt 1 discriminator 2 view .LVU375
 1149              		.loc 1 703 3 discriminator 2 view .LVU376
 1150 0018 164B     		ldr	r3, .L80
 1151 001a CA22     		movs	r2, #202
 1152 001c 5A62     		str	r2, [r3, #36]
 1153              		.loc 1 703 3 discriminator 2 view .LVU377
 1154 001e 5322     		movs	r2, #83
 1155 0020 5A62     		str	r2, [r3, #36]
 1156              		.loc 1 703 3 discriminator 2 view .LVU378
 704:../../Drivers/STM32L5xx_HAL_Driver/Src/stm32l5xx_hal_rtc_ex.c **** 
 705:../../Drivers/STM32L5xx_HAL_Driver/Src/stm32l5xx_hal_rtc_ex.c ****   /* Disable the Wakeup Timer */
 706:../../Drivers/STM32L5xx_HAL_Driver/Src/stm32l5xx_hal_rtc_ex.c ****   /* In case of interrupt mode is used, the interrupt source must disabled */
 707:../../Drivers/STM32L5xx_HAL_Driver/Src/stm32l5xx_hal_rtc_ex.c ****   CLEAR_BIT(RTC->CR, (RTC_CR_WUTE | RTC_CR_WUTIE));
 1157              		.loc 1 707 3 discriminator 2 view .LVU379
 1158 0022 9A69     		ldr	r2, [r3, #24]
 1159 0024 22F48842 		bic	r2, r2, #17408
 1160 0028 9A61     		str	r2, [r3, #24]
 708:../../Drivers/STM32L5xx_HAL_Driver/Src/stm32l5xx_hal_rtc_ex.c **** 
 709:../../Drivers/STM32L5xx_HAL_Driver/Src/stm32l5xx_hal_rtc_ex.c ****   tickstart = HAL_GetTick();
 1161              		.loc 1 709 3 discriminator 2 view .LVU380
 1162              		.loc 1 709 15 is_stmt 0 discriminator 2 view .LVU381
 1163 002a FFF7FEFF 		bl	HAL_GetTick
 1164              	.LVL73:
 1165              		.loc 1 709 15 discriminator 2 view .LVU382
 1166 002e 0446     		mov	r4, r0
 1167              	.LVL74:
ARM GAS  C:\Users\carlos\AppData\Local\Temp\ccaMGGVT.s 			page 35


 710:../../Drivers/STM32L5xx_HAL_Driver/Src/stm32l5xx_hal_rtc_ex.c ****   /* Wait till RTC WUTWF flag is set and if Time out is reached exit */
 711:../../Drivers/STM32L5xx_HAL_Driver/Src/stm32l5xx_hal_rtc_ex.c ****   while (READ_BIT(RTC->ICSR, RTC_ICSR_WUTWF) == 0U)
 1168              		.loc 1 711 3 is_stmt 1 discriminator 2 view .LVU383
 1169              	.L75:
 1170              		.loc 1 711 9 view .LVU384
 1171              		.loc 1 711 10 is_stmt 0 view .LVU385
 1172 0030 104B     		ldr	r3, .L80
 1173 0032 DB68     		ldr	r3, [r3, #12]
 1174              		.loc 1 711 9 view .LVU386
 1175 0034 13F0040F 		tst	r3, #4
 1176 0038 0FD1     		bne	.L79
 712:../../Drivers/STM32L5xx_HAL_Driver/Src/stm32l5xx_hal_rtc_ex.c ****   {
 713:../../Drivers/STM32L5xx_HAL_Driver/Src/stm32l5xx_hal_rtc_ex.c ****     if ((HAL_GetTick() - tickstart) > RTC_TIMEOUT_VALUE)
 1177              		.loc 1 713 5 is_stmt 1 view .LVU387
 1178              		.loc 1 713 10 is_stmt 0 view .LVU388
 1179 003a FFF7FEFF 		bl	HAL_GetTick
 1180              	.LVL75:
 1181              		.loc 1 713 24 view .LVU389
 1182 003e 031B     		subs	r3, r0, r4
 1183              		.loc 1 713 8 view .LVU390
 1184 0040 B3F57A7F 		cmp	r3, #1000
 1185 0044 F4D9     		bls	.L75
 714:../../Drivers/STM32L5xx_HAL_Driver/Src/stm32l5xx_hal_rtc_ex.c ****     {
 715:../../Drivers/STM32L5xx_HAL_Driver/Src/stm32l5xx_hal_rtc_ex.c ****       /* Enable the write protection for RTC registers */
 716:../../Drivers/STM32L5xx_HAL_Driver/Src/stm32l5xx_hal_rtc_ex.c ****       __HAL_RTC_WRITEPROTECTION_ENABLE(hrtc);
 1186              		.loc 1 716 7 is_stmt 1 view .LVU391
 1187              		.loc 1 716 7 view .LVU392
 1188 0046 0B4B     		ldr	r3, .L80
 1189 0048 FF22     		movs	r2, #255
 1190 004a 5A62     		str	r2, [r3, #36]
 1191              		.loc 1 716 7 view .LVU393
 717:../../Drivers/STM32L5xx_HAL_Driver/Src/stm32l5xx_hal_rtc_ex.c **** 
 718:../../Drivers/STM32L5xx_HAL_Driver/Src/stm32l5xx_hal_rtc_ex.c ****       hrtc->State = HAL_RTC_STATE_TIMEOUT;
 1192              		.loc 1 718 7 view .LVU394
 1193              		.loc 1 718 19 is_stmt 0 view .LVU395
 1194 004c 0320     		movs	r0, #3
 1195 004e 85F82500 		strb	r0, [r5, #37]
 719:../../Drivers/STM32L5xx_HAL_Driver/Src/stm32l5xx_hal_rtc_ex.c **** 
 720:../../Drivers/STM32L5xx_HAL_Driver/Src/stm32l5xx_hal_rtc_ex.c ****       /* Process Unlocked */
 721:../../Drivers/STM32L5xx_HAL_Driver/Src/stm32l5xx_hal_rtc_ex.c ****       __HAL_UNLOCK(hrtc);
 1196              		.loc 1 721 7 is_stmt 1 view .LVU396
 1197              		.loc 1 721 7 view .LVU397
 1198 0052 0023     		movs	r3, #0
 1199 0054 85F82430 		strb	r3, [r5, #36]
 1200              		.loc 1 721 7 view .LVU398
 722:../../Drivers/STM32L5xx_HAL_Driver/Src/stm32l5xx_hal_rtc_ex.c **** 
 723:../../Drivers/STM32L5xx_HAL_Driver/Src/stm32l5xx_hal_rtc_ex.c ****       return HAL_TIMEOUT;
 1201              		.loc 1 723 7 view .LVU399
 1202              		.loc 1 723 14 is_stmt 0 view .LVU400
 1203 0058 08E0     		b	.L74
 1204              	.L79:
 724:../../Drivers/STM32L5xx_HAL_Driver/Src/stm32l5xx_hal_rtc_ex.c ****     }
 725:../../Drivers/STM32L5xx_HAL_Driver/Src/stm32l5xx_hal_rtc_ex.c ****   }
 726:../../Drivers/STM32L5xx_HAL_Driver/Src/stm32l5xx_hal_rtc_ex.c **** 
 727:../../Drivers/STM32L5xx_HAL_Driver/Src/stm32l5xx_hal_rtc_ex.c ****   /* Enable the write protection for RTC registers */
 728:../../Drivers/STM32L5xx_HAL_Driver/Src/stm32l5xx_hal_rtc_ex.c ****   __HAL_RTC_WRITEPROTECTION_ENABLE(hrtc);
 1205              		.loc 1 728 3 is_stmt 1 view .LVU401
ARM GAS  C:\Users\carlos\AppData\Local\Temp\ccaMGGVT.s 			page 36


 1206              		.loc 1 728 3 view .LVU402
 1207 005a 064B     		ldr	r3, .L80
 1208 005c FF22     		movs	r2, #255
 1209 005e 5A62     		str	r2, [r3, #36]
 1210              		.loc 1 728 3 view .LVU403
 729:../../Drivers/STM32L5xx_HAL_Driver/Src/stm32l5xx_hal_rtc_ex.c **** 
 730:../../Drivers/STM32L5xx_HAL_Driver/Src/stm32l5xx_hal_rtc_ex.c ****   hrtc->State = HAL_RTC_STATE_READY;
 1211              		.loc 1 730 3 view .LVU404
 1212              		.loc 1 730 15 is_stmt 0 view .LVU405
 1213 0060 0123     		movs	r3, #1
 1214 0062 85F82530 		strb	r3, [r5, #37]
 731:../../Drivers/STM32L5xx_HAL_Driver/Src/stm32l5xx_hal_rtc_ex.c **** 
 732:../../Drivers/STM32L5xx_HAL_Driver/Src/stm32l5xx_hal_rtc_ex.c ****   /* Process Unlocked */
 733:../../Drivers/STM32L5xx_HAL_Driver/Src/stm32l5xx_hal_rtc_ex.c ****   __HAL_UNLOCK(hrtc);
 1215              		.loc 1 733 3 is_stmt 1 view .LVU406
 1216              		.loc 1 733 3 view .LVU407
 1217 0066 0020     		movs	r0, #0
 1218 0068 85F82400 		strb	r0, [r5, #36]
 1219              		.loc 1 733 3 view .LVU408
 734:../../Drivers/STM32L5xx_HAL_Driver/Src/stm32l5xx_hal_rtc_ex.c **** 
 735:../../Drivers/STM32L5xx_HAL_Driver/Src/stm32l5xx_hal_rtc_ex.c ****   return HAL_OK;
 1220              		.loc 1 735 3 view .LVU409
 1221              	.LVL76:
 1222              	.L74:
 736:../../Drivers/STM32L5xx_HAL_Driver/Src/stm32l5xx_hal_rtc_ex.c **** }
 1223              		.loc 1 736 1 is_stmt 0 view .LVU410
 1224 006c 38BD     		pop	{r3, r4, r5, pc}
 1225              	.LVL77:
 1226              	.L77:
 698:../../Drivers/STM32L5xx_HAL_Driver/Src/stm32l5xx_hal_rtc_ex.c **** 
 1227              		.loc 1 698 3 view .LVU411
 1228 006e 0220     		movs	r0, #2
 1229              	.LVL78:
 698:../../Drivers/STM32L5xx_HAL_Driver/Src/stm32l5xx_hal_rtc_ex.c **** 
 1230              		.loc 1 698 3 view .LVU412
 1231 0070 FCE7     		b	.L74
 1232              	.L81:
 1233 0072 00BF     		.align	2
 1234              	.L80:
 1235 0074 00280050 		.word	1342187520
 1236              		.cfi_endproc
 1237              	.LFE213:
 1239              		.section	.text.HAL_RTCEx_GetWakeUpTimer,"ax",%progbits
 1240              		.align	1
 1241              		.global	HAL_RTCEx_GetWakeUpTimer
 1242              		.syntax unified
 1243              		.thumb
 1244              		.thumb_func
 1245              		.fpu fpv4-sp-d16
 1247              	HAL_RTCEx_GetWakeUpTimer:
 1248              	.LVL79:
 1249              	.LFB214:
 737:../../Drivers/STM32L5xx_HAL_Driver/Src/stm32l5xx_hal_rtc_ex.c **** 
 738:../../Drivers/STM32L5xx_HAL_Driver/Src/stm32l5xx_hal_rtc_ex.c **** /**
 739:../../Drivers/STM32L5xx_HAL_Driver/Src/stm32l5xx_hal_rtc_ex.c ****   * @brief  Get wake up timer counter.
 740:../../Drivers/STM32L5xx_HAL_Driver/Src/stm32l5xx_hal_rtc_ex.c ****   * @param  hrtc RTC handle
 741:../../Drivers/STM32L5xx_HAL_Driver/Src/stm32l5xx_hal_rtc_ex.c ****   * @retval Counter value
ARM GAS  C:\Users\carlos\AppData\Local\Temp\ccaMGGVT.s 			page 37


 742:../../Drivers/STM32L5xx_HAL_Driver/Src/stm32l5xx_hal_rtc_ex.c ****   */
 743:../../Drivers/STM32L5xx_HAL_Driver/Src/stm32l5xx_hal_rtc_ex.c **** uint32_t HAL_RTCEx_GetWakeUpTimer(RTC_HandleTypeDef *hrtc)
 744:../../Drivers/STM32L5xx_HAL_Driver/Src/stm32l5xx_hal_rtc_ex.c **** {
 1250              		.loc 1 744 1 is_stmt 1 view -0
 1251              		.cfi_startproc
 1252              		@ args = 0, pretend = 0, frame = 0
 1253              		@ frame_needed = 0, uses_anonymous_args = 0
 1254              		@ link register save eliminated.
 745:../../Drivers/STM32L5xx_HAL_Driver/Src/stm32l5xx_hal_rtc_ex.c ****   UNUSED(hrtc);
 1255              		.loc 1 745 3 view .LVU414
 746:../../Drivers/STM32L5xx_HAL_Driver/Src/stm32l5xx_hal_rtc_ex.c ****   /* Get the counter value */
 747:../../Drivers/STM32L5xx_HAL_Driver/Src/stm32l5xx_hal_rtc_ex.c ****   return (uint32_t)(READ_BIT(RTC->WUTR, RTC_WUTR_WUT));
 1256              		.loc 1 747 3 view .LVU415
 1257              		.loc 1 747 21 is_stmt 0 view .LVU416
 1258 0000 014B     		ldr	r3, .L83
 1259 0002 5869     		ldr	r0, [r3, #20]
 1260              	.LVL80:
 748:../../Drivers/STM32L5xx_HAL_Driver/Src/stm32l5xx_hal_rtc_ex.c **** }
 1261              		.loc 1 748 1 view .LVU417
 1262 0004 80B2     		uxth	r0, r0
 1263 0006 7047     		bx	lr
 1264              	.L84:
 1265              		.align	2
 1266              	.L83:
 1267 0008 00280050 		.word	1342187520
 1268              		.cfi_endproc
 1269              	.LFE214:
 1271              		.section	.text.HAL_RTCEx_WakeUpTimerEventCallback,"ax",%progbits
 1272              		.align	1
 1273              		.weak	HAL_RTCEx_WakeUpTimerEventCallback
 1274              		.syntax unified
 1275              		.thumb
 1276              		.thumb_func
 1277              		.fpu fpv4-sp-d16
 1279              	HAL_RTCEx_WakeUpTimerEventCallback:
 1280              	.LVL81:
 1281              	.LFB216:
 749:../../Drivers/STM32L5xx_HAL_Driver/Src/stm32l5xx_hal_rtc_ex.c **** 
 750:../../Drivers/STM32L5xx_HAL_Driver/Src/stm32l5xx_hal_rtc_ex.c **** #if defined (__ARM_FEATURE_CMSE) && (__ARM_FEATURE_CMSE == 3U)
 751:../../Drivers/STM32L5xx_HAL_Driver/Src/stm32l5xx_hal_rtc_ex.c **** /**
 752:../../Drivers/STM32L5xx_HAL_Driver/Src/stm32l5xx_hal_rtc_ex.c ****   * @brief  Handle Wake Up Timer secure interrupt request.
 753:../../Drivers/STM32L5xx_HAL_Driver/Src/stm32l5xx_hal_rtc_ex.c ****   * @param  hrtc RTC handle
 754:../../Drivers/STM32L5xx_HAL_Driver/Src/stm32l5xx_hal_rtc_ex.c ****   * @retval None
 755:../../Drivers/STM32L5xx_HAL_Driver/Src/stm32l5xx_hal_rtc_ex.c ****   */
 756:../../Drivers/STM32L5xx_HAL_Driver/Src/stm32l5xx_hal_rtc_ex.c **** void HAL_RTCEx_WakeUpTimerIRQHandler(RTC_HandleTypeDef *hrtc)
 757:../../Drivers/STM32L5xx_HAL_Driver/Src/stm32l5xx_hal_rtc_ex.c **** {
 758:../../Drivers/STM32L5xx_HAL_Driver/Src/stm32l5xx_hal_rtc_ex.c ****   if ((RTC->SMISR & RTC_SMISR_WUTMF) != 0u)
 759:../../Drivers/STM32L5xx_HAL_Driver/Src/stm32l5xx_hal_rtc_ex.c ****   {
 760:../../Drivers/STM32L5xx_HAL_Driver/Src/stm32l5xx_hal_rtc_ex.c ****     /* Immediately clear flags */
 761:../../Drivers/STM32L5xx_HAL_Driver/Src/stm32l5xx_hal_rtc_ex.c ****     WRITE_REG(RTC->SCR, RTC_SCR_CWUTF);
 762:../../Drivers/STM32L5xx_HAL_Driver/Src/stm32l5xx_hal_rtc_ex.c **** #if (USE_HAL_RTC_REGISTER_CALLBACKS == 1)
 763:../../Drivers/STM32L5xx_HAL_Driver/Src/stm32l5xx_hal_rtc_ex.c ****     /* Call wake up timer registered Callback */
 764:../../Drivers/STM32L5xx_HAL_Driver/Src/stm32l5xx_hal_rtc_ex.c ****     hrtc->WakeUpTimerEventCallback(hrtc);
 765:../../Drivers/STM32L5xx_HAL_Driver/Src/stm32l5xx_hal_rtc_ex.c **** #else
 766:../../Drivers/STM32L5xx_HAL_Driver/Src/stm32l5xx_hal_rtc_ex.c ****     HAL_RTCEx_WakeUpTimerEventCallback(hrtc);
 767:../../Drivers/STM32L5xx_HAL_Driver/Src/stm32l5xx_hal_rtc_ex.c **** #endif
 768:../../Drivers/STM32L5xx_HAL_Driver/Src/stm32l5xx_hal_rtc_ex.c ****   }
ARM GAS  C:\Users\carlos\AppData\Local\Temp\ccaMGGVT.s 			page 38


 769:../../Drivers/STM32L5xx_HAL_Driver/Src/stm32l5xx_hal_rtc_ex.c **** 
 770:../../Drivers/STM32L5xx_HAL_Driver/Src/stm32l5xx_hal_rtc_ex.c ****   /* Change RTC state */
 771:../../Drivers/STM32L5xx_HAL_Driver/Src/stm32l5xx_hal_rtc_ex.c ****   hrtc->State = HAL_RTC_STATE_READY;
 772:../../Drivers/STM32L5xx_HAL_Driver/Src/stm32l5xx_hal_rtc_ex.c **** }
 773:../../Drivers/STM32L5xx_HAL_Driver/Src/stm32l5xx_hal_rtc_ex.c **** 
 774:../../Drivers/STM32L5xx_HAL_Driver/Src/stm32l5xx_hal_rtc_ex.c **** #else /* #if defined (__ARM_FEATURE_CMSE) && (__ARM_FEATURE_CMSE == 3U) */
 775:../../Drivers/STM32L5xx_HAL_Driver/Src/stm32l5xx_hal_rtc_ex.c **** 
 776:../../Drivers/STM32L5xx_HAL_Driver/Src/stm32l5xx_hal_rtc_ex.c **** /**
 777:../../Drivers/STM32L5xx_HAL_Driver/Src/stm32l5xx_hal_rtc_ex.c ****   * @brief  Handle Wake Up Timer non-secure interrupt request.
 778:../../Drivers/STM32L5xx_HAL_Driver/Src/stm32l5xx_hal_rtc_ex.c ****   * @param  hrtc RTC handle
 779:../../Drivers/STM32L5xx_HAL_Driver/Src/stm32l5xx_hal_rtc_ex.c ****   * @retval None
 780:../../Drivers/STM32L5xx_HAL_Driver/Src/stm32l5xx_hal_rtc_ex.c ****   */
 781:../../Drivers/STM32L5xx_HAL_Driver/Src/stm32l5xx_hal_rtc_ex.c **** void HAL_RTCEx_WakeUpTimerIRQHandler(RTC_HandleTypeDef *hrtc)
 782:../../Drivers/STM32L5xx_HAL_Driver/Src/stm32l5xx_hal_rtc_ex.c **** {
 783:../../Drivers/STM32L5xx_HAL_Driver/Src/stm32l5xx_hal_rtc_ex.c ****   /* Get the pending status of the WAKEUPTIMER Interrupt */
 784:../../Drivers/STM32L5xx_HAL_Driver/Src/stm32l5xx_hal_rtc_ex.c ****   if (READ_BIT(RTC->MISR, RTC_MISR_WUTMF) != 0U)
 785:../../Drivers/STM32L5xx_HAL_Driver/Src/stm32l5xx_hal_rtc_ex.c ****   {
 786:../../Drivers/STM32L5xx_HAL_Driver/Src/stm32l5xx_hal_rtc_ex.c ****     /* Clear the WAKEUPTIMER interrupt pending bit */
 787:../../Drivers/STM32L5xx_HAL_Driver/Src/stm32l5xx_hal_rtc_ex.c ****     WRITE_REG(RTC->SCR, RTC_SCR_CWUTF);
 788:../../Drivers/STM32L5xx_HAL_Driver/Src/stm32l5xx_hal_rtc_ex.c **** 
 789:../../Drivers/STM32L5xx_HAL_Driver/Src/stm32l5xx_hal_rtc_ex.c **** #if (USE_HAL_RTC_REGISTER_CALLBACKS == 1)
 790:../../Drivers/STM32L5xx_HAL_Driver/Src/stm32l5xx_hal_rtc_ex.c ****     /* Call WakeUpTimerEvent registered Callback */
 791:../../Drivers/STM32L5xx_HAL_Driver/Src/stm32l5xx_hal_rtc_ex.c ****     hrtc->WakeUpTimerEventCallback(hrtc);
 792:../../Drivers/STM32L5xx_HAL_Driver/Src/stm32l5xx_hal_rtc_ex.c **** #else
 793:../../Drivers/STM32L5xx_HAL_Driver/Src/stm32l5xx_hal_rtc_ex.c ****     /* WAKEUPTIMER callback */
 794:../../Drivers/STM32L5xx_HAL_Driver/Src/stm32l5xx_hal_rtc_ex.c ****     HAL_RTCEx_WakeUpTimerEventCallback(hrtc);
 795:../../Drivers/STM32L5xx_HAL_Driver/Src/stm32l5xx_hal_rtc_ex.c **** #endif /* USE_HAL_RTC_REGISTER_CALLBACKS */
 796:../../Drivers/STM32L5xx_HAL_Driver/Src/stm32l5xx_hal_rtc_ex.c ****   }
 797:../../Drivers/STM32L5xx_HAL_Driver/Src/stm32l5xx_hal_rtc_ex.c **** 
 798:../../Drivers/STM32L5xx_HAL_Driver/Src/stm32l5xx_hal_rtc_ex.c ****   /* Change RTC state */
 799:../../Drivers/STM32L5xx_HAL_Driver/Src/stm32l5xx_hal_rtc_ex.c ****   hrtc->State = HAL_RTC_STATE_READY;
 800:../../Drivers/STM32L5xx_HAL_Driver/Src/stm32l5xx_hal_rtc_ex.c **** }
 801:../../Drivers/STM32L5xx_HAL_Driver/Src/stm32l5xx_hal_rtc_ex.c **** #endif /* #if defined (__ARM_FEATURE_CMSE) && (__ARM_FEATURE_CMSE == 3U) */
 802:../../Drivers/STM32L5xx_HAL_Driver/Src/stm32l5xx_hal_rtc_ex.c **** 
 803:../../Drivers/STM32L5xx_HAL_Driver/Src/stm32l5xx_hal_rtc_ex.c **** /**
 804:../../Drivers/STM32L5xx_HAL_Driver/Src/stm32l5xx_hal_rtc_ex.c ****   * @brief  Wake Up Timer callback.
 805:../../Drivers/STM32L5xx_HAL_Driver/Src/stm32l5xx_hal_rtc_ex.c ****   * @param  hrtc RTC handle
 806:../../Drivers/STM32L5xx_HAL_Driver/Src/stm32l5xx_hal_rtc_ex.c ****   * @retval None
 807:../../Drivers/STM32L5xx_HAL_Driver/Src/stm32l5xx_hal_rtc_ex.c ****   */
 808:../../Drivers/STM32L5xx_HAL_Driver/Src/stm32l5xx_hal_rtc_ex.c **** __weak void HAL_RTCEx_WakeUpTimerEventCallback(RTC_HandleTypeDef *hrtc)
 809:../../Drivers/STM32L5xx_HAL_Driver/Src/stm32l5xx_hal_rtc_ex.c **** {
 1282              		.loc 1 809 1 is_stmt 1 view -0
 1283              		.cfi_startproc
 1284              		@ args = 0, pretend = 0, frame = 0
 1285              		@ frame_needed = 0, uses_anonymous_args = 0
 1286              		@ link register save eliminated.
 810:../../Drivers/STM32L5xx_HAL_Driver/Src/stm32l5xx_hal_rtc_ex.c ****   /* Prevent unused argument(s) compilation warning */
 811:../../Drivers/STM32L5xx_HAL_Driver/Src/stm32l5xx_hal_rtc_ex.c ****   UNUSED(hrtc);
 1287              		.loc 1 811 3 view .LVU419
 812:../../Drivers/STM32L5xx_HAL_Driver/Src/stm32l5xx_hal_rtc_ex.c **** 
 813:../../Drivers/STM32L5xx_HAL_Driver/Src/stm32l5xx_hal_rtc_ex.c ****   /* NOTE : This function should not be modified, when the callback is needed,
 814:../../Drivers/STM32L5xx_HAL_Driver/Src/stm32l5xx_hal_rtc_ex.c ****             the HAL_RTCEx_WakeUpTimerEventCallback could be implemented in the user file
 815:../../Drivers/STM32L5xx_HAL_Driver/Src/stm32l5xx_hal_rtc_ex.c ****    */
 816:../../Drivers/STM32L5xx_HAL_Driver/Src/stm32l5xx_hal_rtc_ex.c **** }
 1288              		.loc 1 816 1 is_stmt 0 view .LVU420
 1289 0000 7047     		bx	lr
 1290              		.cfi_endproc
ARM GAS  C:\Users\carlos\AppData\Local\Temp\ccaMGGVT.s 			page 39


 1291              	.LFE216:
 1293              		.section	.text.HAL_RTCEx_WakeUpTimerIRQHandler,"ax",%progbits
 1294              		.align	1
 1295              		.global	HAL_RTCEx_WakeUpTimerIRQHandler
 1296              		.syntax unified
 1297              		.thumb
 1298              		.thumb_func
 1299              		.fpu fpv4-sp-d16
 1301              	HAL_RTCEx_WakeUpTimerIRQHandler:
 1302              	.LVL82:
 1303              	.LFB215:
 757:../../Drivers/STM32L5xx_HAL_Driver/Src/stm32l5xx_hal_rtc_ex.c ****   if ((RTC->SMISR & RTC_SMISR_WUTMF) != 0u)
 1304              		.loc 1 757 1 is_stmt 1 view -0
 1305              		.cfi_startproc
 1306              		@ args = 0, pretend = 0, frame = 0
 1307              		@ frame_needed = 0, uses_anonymous_args = 0
 757:../../Drivers/STM32L5xx_HAL_Driver/Src/stm32l5xx_hal_rtc_ex.c ****   if ((RTC->SMISR & RTC_SMISR_WUTMF) != 0u)
 1308              		.loc 1 757 1 is_stmt 0 view .LVU422
 1309 0000 10B5     		push	{r4, lr}
 1310              	.LCFI6:
 1311              		.cfi_def_cfa_offset 8
 1312              		.cfi_offset 4, -8
 1313              		.cfi_offset 14, -4
 1314 0002 0446     		mov	r4, r0
 758:../../Drivers/STM32L5xx_HAL_Driver/Src/stm32l5xx_hal_rtc_ex.c ****   {
 1315              		.loc 1 758 3 is_stmt 1 view .LVU423
 758:../../Drivers/STM32L5xx_HAL_Driver/Src/stm32l5xx_hal_rtc_ex.c ****   {
 1316              		.loc 1 758 11 is_stmt 0 view .LVU424
 1317 0004 074B     		ldr	r3, .L90
 1318 0006 9B6D     		ldr	r3, [r3, #88]
 758:../../Drivers/STM32L5xx_HAL_Driver/Src/stm32l5xx_hal_rtc_ex.c ****   {
 1319              		.loc 1 758 6 view .LVU425
 1320 0008 13F0040F 		tst	r3, #4
 1321 000c 03D1     		bne	.L89
 1322              	.LVL83:
 1323              	.L87:
 771:../../Drivers/STM32L5xx_HAL_Driver/Src/stm32l5xx_hal_rtc_ex.c **** }
 1324              		.loc 1 771 3 is_stmt 1 view .LVU426
 771:../../Drivers/STM32L5xx_HAL_Driver/Src/stm32l5xx_hal_rtc_ex.c **** }
 1325              		.loc 1 771 15 is_stmt 0 view .LVU427
 1326 000e 0123     		movs	r3, #1
 1327 0010 84F82530 		strb	r3, [r4, #37]
 772:../../Drivers/STM32L5xx_HAL_Driver/Src/stm32l5xx_hal_rtc_ex.c **** 
 1328              		.loc 1 772 1 view .LVU428
 1329 0014 10BD     		pop	{r4, pc}
 1330              	.LVL84:
 1331              	.L89:
 761:../../Drivers/STM32L5xx_HAL_Driver/Src/stm32l5xx_hal_rtc_ex.c **** #if (USE_HAL_RTC_REGISTER_CALLBACKS == 1)
 1332              		.loc 1 761 5 is_stmt 1 view .LVU429
 1333 0016 034B     		ldr	r3, .L90
 1334 0018 0422     		movs	r2, #4
 1335 001a DA65     		str	r2, [r3, #92]
 766:../../Drivers/STM32L5xx_HAL_Driver/Src/stm32l5xx_hal_rtc_ex.c **** #endif
 1336              		.loc 1 766 5 view .LVU430
 1337 001c FFF7FEFF 		bl	HAL_RTCEx_WakeUpTimerEventCallback
 1338              	.LVL85:
 766:../../Drivers/STM32L5xx_HAL_Driver/Src/stm32l5xx_hal_rtc_ex.c **** #endif
ARM GAS  C:\Users\carlos\AppData\Local\Temp\ccaMGGVT.s 			page 40


 1339              		.loc 1 766 5 is_stmt 0 view .LVU431
 1340 0020 F5E7     		b	.L87
 1341              	.L91:
 1342 0022 00BF     		.align	2
 1343              	.L90:
 1344 0024 00280050 		.word	1342187520
 1345              		.cfi_endproc
 1346              	.LFE215:
 1348              		.section	.text.HAL_RTCEx_PollForWakeUpTimerEvent,"ax",%progbits
 1349              		.align	1
 1350              		.global	HAL_RTCEx_PollForWakeUpTimerEvent
 1351              		.syntax unified
 1352              		.thumb
 1353              		.thumb_func
 1354              		.fpu fpv4-sp-d16
 1356              	HAL_RTCEx_PollForWakeUpTimerEvent:
 1357              	.LVL86:
 1358              	.LFB217:
 817:../../Drivers/STM32L5xx_HAL_Driver/Src/stm32l5xx_hal_rtc_ex.c **** 
 818:../../Drivers/STM32L5xx_HAL_Driver/Src/stm32l5xx_hal_rtc_ex.c **** /**
 819:../../Drivers/STM32L5xx_HAL_Driver/Src/stm32l5xx_hal_rtc_ex.c ****   * @brief  Handle Wake Up Timer Polling.
 820:../../Drivers/STM32L5xx_HAL_Driver/Src/stm32l5xx_hal_rtc_ex.c ****   * @param  hrtc RTC handle
 821:../../Drivers/STM32L5xx_HAL_Driver/Src/stm32l5xx_hal_rtc_ex.c ****   * @param  Timeout Timeout duration
 822:../../Drivers/STM32L5xx_HAL_Driver/Src/stm32l5xx_hal_rtc_ex.c ****   * @retval HAL status
 823:../../Drivers/STM32L5xx_HAL_Driver/Src/stm32l5xx_hal_rtc_ex.c ****   */
 824:../../Drivers/STM32L5xx_HAL_Driver/Src/stm32l5xx_hal_rtc_ex.c **** HAL_StatusTypeDef HAL_RTCEx_PollForWakeUpTimerEvent(RTC_HandleTypeDef *hrtc, uint32_t Timeout)
 825:../../Drivers/STM32L5xx_HAL_Driver/Src/stm32l5xx_hal_rtc_ex.c **** {
 1359              		.loc 1 825 1 is_stmt 1 view -0
 1360              		.cfi_startproc
 1361              		@ args = 0, pretend = 0, frame = 0
 1362              		@ frame_needed = 0, uses_anonymous_args = 0
 1363              		.loc 1 825 1 is_stmt 0 view .LVU433
 1364 0000 70B5     		push	{r4, r5, r6, lr}
 1365              	.LCFI7:
 1366              		.cfi_def_cfa_offset 16
 1367              		.cfi_offset 4, -16
 1368              		.cfi_offset 5, -12
 1369              		.cfi_offset 6, -8
 1370              		.cfi_offset 14, -4
 1371 0002 0546     		mov	r5, r0
 1372 0004 0C46     		mov	r4, r1
 826:../../Drivers/STM32L5xx_HAL_Driver/Src/stm32l5xx_hal_rtc_ex.c ****   uint32_t tickstart = HAL_GetTick();
 1373              		.loc 1 826 3 is_stmt 1 view .LVU434
 1374              		.loc 1 826 24 is_stmt 0 view .LVU435
 1375 0006 FFF7FEFF 		bl	HAL_GetTick
 1376              	.LVL87:
 1377              		.loc 1 826 24 view .LVU436
 1378 000a 0646     		mov	r6, r0
 1379              	.LVL88:
 827:../../Drivers/STM32L5xx_HAL_Driver/Src/stm32l5xx_hal_rtc_ex.c **** 
 828:../../Drivers/STM32L5xx_HAL_Driver/Src/stm32l5xx_hal_rtc_ex.c ****   while (READ_BIT(RTC->SR, RTC_SR_WUTF) == 0U)
 1380              		.loc 1 828 3 is_stmt 1 view .LVU437
 1381              	.L94:
 1382              		.loc 1 828 9 view .LVU438
 1383              		.loc 1 828 10 is_stmt 0 view .LVU439
 1384 000c 0D4B     		ldr	r3, .L100
 1385 000e 1B6D     		ldr	r3, [r3, #80]
ARM GAS  C:\Users\carlos\AppData\Local\Temp\ccaMGGVT.s 			page 41


 1386              		.loc 1 828 9 view .LVU440
 1387 0010 13F0040F 		tst	r3, #4
 1388 0014 0DD1     		bne	.L99
 829:../../Drivers/STM32L5xx_HAL_Driver/Src/stm32l5xx_hal_rtc_ex.c ****   {
 830:../../Drivers/STM32L5xx_HAL_Driver/Src/stm32l5xx_hal_rtc_ex.c ****     if (Timeout != HAL_MAX_DELAY)
 1389              		.loc 1 830 5 is_stmt 1 view .LVU441
 1390              		.loc 1 830 8 is_stmt 0 view .LVU442
 1391 0016 B4F1FF3F 		cmp	r4, #-1
 1392 001a F7D0     		beq	.L94
 831:../../Drivers/STM32L5xx_HAL_Driver/Src/stm32l5xx_hal_rtc_ex.c ****     {
 832:../../Drivers/STM32L5xx_HAL_Driver/Src/stm32l5xx_hal_rtc_ex.c ****       if (((HAL_GetTick() - tickstart) > Timeout) || (Timeout == 0U))
 1393              		.loc 1 832 7 is_stmt 1 view .LVU443
 1394              		.loc 1 832 13 is_stmt 0 view .LVU444
 1395 001c FFF7FEFF 		bl	HAL_GetTick
 1396              	.LVL89:
 1397              		.loc 1 832 27 view .LVU445
 1398 0020 801B     		subs	r0, r0, r6
 1399              		.loc 1 832 10 view .LVU446
 1400 0022 A042     		cmp	r0, r4
 1401 0024 01D8     		bhi	.L95
 1402              		.loc 1 832 51 discriminator 1 view .LVU447
 1403 0026 002C     		cmp	r4, #0
 1404 0028 F0D1     		bne	.L94
 1405              	.L95:
 833:../../Drivers/STM32L5xx_HAL_Driver/Src/stm32l5xx_hal_rtc_ex.c ****       {
 834:../../Drivers/STM32L5xx_HAL_Driver/Src/stm32l5xx_hal_rtc_ex.c ****         hrtc->State = HAL_RTC_STATE_TIMEOUT;
 1406              		.loc 1 834 9 is_stmt 1 view .LVU448
 1407              		.loc 1 834 21 is_stmt 0 view .LVU449
 1408 002a 0320     		movs	r0, #3
 1409 002c 85F82500 		strb	r0, [r5, #37]
 835:../../Drivers/STM32L5xx_HAL_Driver/Src/stm32l5xx_hal_rtc_ex.c ****         return HAL_TIMEOUT;
 1410              		.loc 1 835 9 is_stmt 1 view .LVU450
 1411              		.loc 1 835 16 is_stmt 0 view .LVU451
 1412 0030 06E0     		b	.L96
 1413              	.L99:
 836:../../Drivers/STM32L5xx_HAL_Driver/Src/stm32l5xx_hal_rtc_ex.c ****       }
 837:../../Drivers/STM32L5xx_HAL_Driver/Src/stm32l5xx_hal_rtc_ex.c ****     }
 838:../../Drivers/STM32L5xx_HAL_Driver/Src/stm32l5xx_hal_rtc_ex.c ****   }
 839:../../Drivers/STM32L5xx_HAL_Driver/Src/stm32l5xx_hal_rtc_ex.c **** 
 840:../../Drivers/STM32L5xx_HAL_Driver/Src/stm32l5xx_hal_rtc_ex.c ****   /* Clear the WAKEUPTIMER Flag */
 841:../../Drivers/STM32L5xx_HAL_Driver/Src/stm32l5xx_hal_rtc_ex.c ****   WRITE_REG(RTC->SCR, RTC_SCR_CWUTF);
 1414              		.loc 1 841 3 is_stmt 1 view .LVU452
 1415 0032 044B     		ldr	r3, .L100
 1416 0034 0422     		movs	r2, #4
 1417 0036 DA65     		str	r2, [r3, #92]
 842:../../Drivers/STM32L5xx_HAL_Driver/Src/stm32l5xx_hal_rtc_ex.c **** 
 843:../../Drivers/STM32L5xx_HAL_Driver/Src/stm32l5xx_hal_rtc_ex.c ****   /* Change RTC state */
 844:../../Drivers/STM32L5xx_HAL_Driver/Src/stm32l5xx_hal_rtc_ex.c ****   hrtc->State = HAL_RTC_STATE_READY;
 1418              		.loc 1 844 3 view .LVU453
 1419              		.loc 1 844 15 is_stmt 0 view .LVU454
 1420 0038 0123     		movs	r3, #1
 1421 003a 85F82530 		strb	r3, [r5, #37]
 845:../../Drivers/STM32L5xx_HAL_Driver/Src/stm32l5xx_hal_rtc_ex.c **** 
 846:../../Drivers/STM32L5xx_HAL_Driver/Src/stm32l5xx_hal_rtc_ex.c ****   return HAL_OK;
 1422              		.loc 1 846 3 is_stmt 1 view .LVU455
 1423              		.loc 1 846 10 is_stmt 0 view .LVU456
 1424 003e 0020     		movs	r0, #0
ARM GAS  C:\Users\carlos\AppData\Local\Temp\ccaMGGVT.s 			page 42


 1425              	.L96:
 847:../../Drivers/STM32L5xx_HAL_Driver/Src/stm32l5xx_hal_rtc_ex.c **** }
 1426              		.loc 1 847 1 view .LVU457
 1427 0040 70BD     		pop	{r4, r5, r6, pc}
 1428              	.LVL90:
 1429              	.L101:
 1430              		.loc 1 847 1 view .LVU458
 1431 0042 00BF     		.align	2
 1432              	.L100:
 1433 0044 00280050 		.word	1342187520
 1434              		.cfi_endproc
 1435              	.LFE217:
 1437              		.section	.text.HAL_RTCEx_SetSmoothCalib,"ax",%progbits
 1438              		.align	1
 1439              		.global	HAL_RTCEx_SetSmoothCalib
 1440              		.syntax unified
 1441              		.thumb
 1442              		.thumb_func
 1443              		.fpu fpv4-sp-d16
 1445              	HAL_RTCEx_SetSmoothCalib:
 1446              	.LVL91:
 1447              	.LFB218:
 848:../../Drivers/STM32L5xx_HAL_Driver/Src/stm32l5xx_hal_rtc_ex.c **** 
 849:../../Drivers/STM32L5xx_HAL_Driver/Src/stm32l5xx_hal_rtc_ex.c **** /**
 850:../../Drivers/STM32L5xx_HAL_Driver/Src/stm32l5xx_hal_rtc_ex.c ****   * @}
 851:../../Drivers/STM32L5xx_HAL_Driver/Src/stm32l5xx_hal_rtc_ex.c ****   */
 852:../../Drivers/STM32L5xx_HAL_Driver/Src/stm32l5xx_hal_rtc_ex.c **** 
 853:../../Drivers/STM32L5xx_HAL_Driver/Src/stm32l5xx_hal_rtc_ex.c **** /** @addtogroup RTCEx_Exported_Functions_Group3
 854:../../Drivers/STM32L5xx_HAL_Driver/Src/stm32l5xx_hal_rtc_ex.c ****   * @brief    Extended Peripheral Control functions
 855:../../Drivers/STM32L5xx_HAL_Driver/Src/stm32l5xx_hal_rtc_ex.c ****   *
 856:../../Drivers/STM32L5xx_HAL_Driver/Src/stm32l5xx_hal_rtc_ex.c **** @verbatim
 857:../../Drivers/STM32L5xx_HAL_Driver/Src/stm32l5xx_hal_rtc_ex.c ****  ===============================================================================
 858:../../Drivers/STM32L5xx_HAL_Driver/Src/stm32l5xx_hal_rtc_ex.c ****               ##### Extended Peripheral Control functions #####
 859:../../Drivers/STM32L5xx_HAL_Driver/Src/stm32l5xx_hal_rtc_ex.c ****  ===============================================================================
 860:../../Drivers/STM32L5xx_HAL_Driver/Src/stm32l5xx_hal_rtc_ex.c ****     [..]
 861:../../Drivers/STM32L5xx_HAL_Driver/Src/stm32l5xx_hal_rtc_ex.c ****     This subsection provides functions allowing to
 862:../../Drivers/STM32L5xx_HAL_Driver/Src/stm32l5xx_hal_rtc_ex.c ****       (+) Write a data in a specified RTC Backup data register
 863:../../Drivers/STM32L5xx_HAL_Driver/Src/stm32l5xx_hal_rtc_ex.c ****       (+) Read a data in a specified RTC Backup data register
 864:../../Drivers/STM32L5xx_HAL_Driver/Src/stm32l5xx_hal_rtc_ex.c ****       (+) Set the Coarse calibration parameters.
 865:../../Drivers/STM32L5xx_HAL_Driver/Src/stm32l5xx_hal_rtc_ex.c ****       (+) Deactivate the Coarse calibration parameters
 866:../../Drivers/STM32L5xx_HAL_Driver/Src/stm32l5xx_hal_rtc_ex.c ****       (+) Set the Smooth calibration parameters.
 867:../../Drivers/STM32L5xx_HAL_Driver/Src/stm32l5xx_hal_rtc_ex.c ****       (+) Set Low Power calibration parameter.
 868:../../Drivers/STM32L5xx_HAL_Driver/Src/stm32l5xx_hal_rtc_ex.c ****       (+) Configure the Synchronization Shift Control Settings.
 869:../../Drivers/STM32L5xx_HAL_Driver/Src/stm32l5xx_hal_rtc_ex.c ****       (+) Configure the Calibration Pinout (RTC_CALIB) Selection (1Hz or 512Hz).
 870:../../Drivers/STM32L5xx_HAL_Driver/Src/stm32l5xx_hal_rtc_ex.c ****       (+) Deactivate the Calibration Pinout (RTC_CALIB) Selection (1Hz or 512Hz).
 871:../../Drivers/STM32L5xx_HAL_Driver/Src/stm32l5xx_hal_rtc_ex.c ****       (+) Enable the RTC reference clock detection.
 872:../../Drivers/STM32L5xx_HAL_Driver/Src/stm32l5xx_hal_rtc_ex.c ****       (+) Disable the RTC reference clock detection.
 873:../../Drivers/STM32L5xx_HAL_Driver/Src/stm32l5xx_hal_rtc_ex.c ****       (+) Enable the Bypass Shadow feature.
 874:../../Drivers/STM32L5xx_HAL_Driver/Src/stm32l5xx_hal_rtc_ex.c ****       (+) Disable the Bypass Shadow feature.
 875:../../Drivers/STM32L5xx_HAL_Driver/Src/stm32l5xx_hal_rtc_ex.c **** 
 876:../../Drivers/STM32L5xx_HAL_Driver/Src/stm32l5xx_hal_rtc_ex.c **** @endverbatim
 877:../../Drivers/STM32L5xx_HAL_Driver/Src/stm32l5xx_hal_rtc_ex.c ****   * @{
 878:../../Drivers/STM32L5xx_HAL_Driver/Src/stm32l5xx_hal_rtc_ex.c ****   */
 879:../../Drivers/STM32L5xx_HAL_Driver/Src/stm32l5xx_hal_rtc_ex.c **** 
 880:../../Drivers/STM32L5xx_HAL_Driver/Src/stm32l5xx_hal_rtc_ex.c **** /**
 881:../../Drivers/STM32L5xx_HAL_Driver/Src/stm32l5xx_hal_rtc_ex.c ****   * @brief  Set the Smooth calibration parameters.
 882:../../Drivers/STM32L5xx_HAL_Driver/Src/stm32l5xx_hal_rtc_ex.c ****   * @note   To deactivate the smooth calibration, the field SmoothCalibPlusPulses
ARM GAS  C:\Users\carlos\AppData\Local\Temp\ccaMGGVT.s 			page 43


 883:../../Drivers/STM32L5xx_HAL_Driver/Src/stm32l5xx_hal_rtc_ex.c ****   *         must be equal to SMOOTHCALIB_PLUSPULSES_RESET and the field
 884:../../Drivers/STM32L5xx_HAL_Driver/Src/stm32l5xx_hal_rtc_ex.c ****   *         SmoothCalibMinusPulsesValue must be equal to 0.
 885:../../Drivers/STM32L5xx_HAL_Driver/Src/stm32l5xx_hal_rtc_ex.c ****   * @param  hrtc RTC handle
 886:../../Drivers/STM32L5xx_HAL_Driver/Src/stm32l5xx_hal_rtc_ex.c ****   * @param  SmoothCalibPeriod  Select the Smooth Calibration Period.
 887:../../Drivers/STM32L5xx_HAL_Driver/Src/stm32l5xx_hal_rtc_ex.c ****   *          This parameter can be can be one of the following values :
 888:../../Drivers/STM32L5xx_HAL_Driver/Src/stm32l5xx_hal_rtc_ex.c ****   *             @arg RTC_SMOOTHCALIB_PERIOD_32SEC: The smooth calibration period is 32s.
 889:../../Drivers/STM32L5xx_HAL_Driver/Src/stm32l5xx_hal_rtc_ex.c ****   *             @arg RTC_SMOOTHCALIB_PERIOD_16SEC: The smooth calibration period is 16s.
 890:../../Drivers/STM32L5xx_HAL_Driver/Src/stm32l5xx_hal_rtc_ex.c ****   *             @arg RTC_SMOOTHCALIB_PERIOD_8SEC: The smooth calibration period is 8s.
 891:../../Drivers/STM32L5xx_HAL_Driver/Src/stm32l5xx_hal_rtc_ex.c ****   * @param  SmoothCalibPlusPulses  Select to Set or reset the CALP bit.
 892:../../Drivers/STM32L5xx_HAL_Driver/Src/stm32l5xx_hal_rtc_ex.c ****   *          This parameter can be one of the following values:
 893:../../Drivers/STM32L5xx_HAL_Driver/Src/stm32l5xx_hal_rtc_ex.c ****   *             @arg RTC_SMOOTHCALIB_PLUSPULSES_SET: Add one RTCCLK pulse every 2*11 pulses.
 894:../../Drivers/STM32L5xx_HAL_Driver/Src/stm32l5xx_hal_rtc_ex.c ****   *             @arg RTC_SMOOTHCALIB_PLUSPULSES_RESET: No RTCCLK pulses are added.
 895:../../Drivers/STM32L5xx_HAL_Driver/Src/stm32l5xx_hal_rtc_ex.c ****   * @param  SmoothCalibMinusPulsesValue  Select the value of CALM[8:0] bits.
 896:../../Drivers/STM32L5xx_HAL_Driver/Src/stm32l5xx_hal_rtc_ex.c ****   *          This parameter can be one any value from 0 to 0x000001FF.
 897:../../Drivers/STM32L5xx_HAL_Driver/Src/stm32l5xx_hal_rtc_ex.c ****   * @retval HAL status
 898:../../Drivers/STM32L5xx_HAL_Driver/Src/stm32l5xx_hal_rtc_ex.c ****   */
 899:../../Drivers/STM32L5xx_HAL_Driver/Src/stm32l5xx_hal_rtc_ex.c **** HAL_StatusTypeDef HAL_RTCEx_SetSmoothCalib(RTC_HandleTypeDef *hrtc, uint32_t SmoothCalibPeriod, uin
 900:../../Drivers/STM32L5xx_HAL_Driver/Src/stm32l5xx_hal_rtc_ex.c **** {
 1448              		.loc 1 900 1 is_stmt 1 view -0
 1449              		.cfi_startproc
 1450              		@ args = 0, pretend = 0, frame = 0
 1451              		@ frame_needed = 0, uses_anonymous_args = 0
 1452              		.loc 1 900 1 is_stmt 0 view .LVU460
 1453 0000 2DE9F041 		push	{r4, r5, r6, r7, r8, lr}
 1454              	.LCFI8:
 1455              		.cfi_def_cfa_offset 24
 1456              		.cfi_offset 4, -24
 1457              		.cfi_offset 5, -20
 1458              		.cfi_offset 6, -16
 1459              		.cfi_offset 7, -12
 1460              		.cfi_offset 8, -8
 1461              		.cfi_offset 14, -4
 1462 0004 1E46     		mov	r6, r3
 901:../../Drivers/STM32L5xx_HAL_Driver/Src/stm32l5xx_hal_rtc_ex.c ****   uint32_t tickstart;
 1463              		.loc 1 901 3 is_stmt 1 view .LVU461
 902:../../Drivers/STM32L5xx_HAL_Driver/Src/stm32l5xx_hal_rtc_ex.c **** 
 903:../../Drivers/STM32L5xx_HAL_Driver/Src/stm32l5xx_hal_rtc_ex.c ****   /* Check the parameters */
 904:../../Drivers/STM32L5xx_HAL_Driver/Src/stm32l5xx_hal_rtc_ex.c ****   assert_param(IS_RTC_SMOOTH_CALIB_PERIOD(SmoothCalibPeriod));
 1464              		.loc 1 904 3 view .LVU462
 905:../../Drivers/STM32L5xx_HAL_Driver/Src/stm32l5xx_hal_rtc_ex.c ****   assert_param(IS_RTC_SMOOTH_CALIB_PLUS(SmoothCalibPlusPulses));
 1465              		.loc 1 905 3 view .LVU463
 906:../../Drivers/STM32L5xx_HAL_Driver/Src/stm32l5xx_hal_rtc_ex.c ****   assert_param(IS_RTC_SMOOTH_CALIB_MINUS(SmoothCalibMinusPulsesValue));
 1466              		.loc 1 906 3 view .LVU464
 907:../../Drivers/STM32L5xx_HAL_Driver/Src/stm32l5xx_hal_rtc_ex.c **** 
 908:../../Drivers/STM32L5xx_HAL_Driver/Src/stm32l5xx_hal_rtc_ex.c ****   /* Process Locked */
 909:../../Drivers/STM32L5xx_HAL_Driver/Src/stm32l5xx_hal_rtc_ex.c ****   __HAL_LOCK(hrtc);
 1467              		.loc 1 909 3 view .LVU465
 1468              		.loc 1 909 3 view .LVU466
 1469 0006 90F82430 		ldrb	r3, [r0, #36]	@ zero_extendqisi2
 1470              	.LVL92:
 1471              		.loc 1 909 3 is_stmt 0 view .LVU467
 1472 000a 012B     		cmp	r3, #1
 1473 000c 3ED0     		beq	.L107
 1474 000e 0446     		mov	r4, r0
 1475 0010 0D46     		mov	r5, r1
 1476 0012 1746     		mov	r7, r2
 1477              		.loc 1 909 3 is_stmt 1 discriminator 2 view .LVU468
ARM GAS  C:\Users\carlos\AppData\Local\Temp\ccaMGGVT.s 			page 44


 1478 0014 0123     		movs	r3, #1
 1479 0016 80F82430 		strb	r3, [r0, #36]
 1480              		.loc 1 909 3 discriminator 2 view .LVU469
 910:../../Drivers/STM32L5xx_HAL_Driver/Src/stm32l5xx_hal_rtc_ex.c **** 
 911:../../Drivers/STM32L5xx_HAL_Driver/Src/stm32l5xx_hal_rtc_ex.c ****   hrtc->State = HAL_RTC_STATE_BUSY;
 1481              		.loc 1 911 3 discriminator 2 view .LVU470
 1482              		.loc 1 911 15 is_stmt 0 discriminator 2 view .LVU471
 1483 001a 0223     		movs	r3, #2
 1484 001c 80F82530 		strb	r3, [r0, #37]
 912:../../Drivers/STM32L5xx_HAL_Driver/Src/stm32l5xx_hal_rtc_ex.c **** 
 913:../../Drivers/STM32L5xx_HAL_Driver/Src/stm32l5xx_hal_rtc_ex.c ****   /* Disable the write protection for RTC registers */
 914:../../Drivers/STM32L5xx_HAL_Driver/Src/stm32l5xx_hal_rtc_ex.c ****   __HAL_RTC_WRITEPROTECTION_DISABLE(hrtc);
 1485              		.loc 1 914 3 is_stmt 1 discriminator 2 view .LVU472
 1486              		.loc 1 914 3 discriminator 2 view .LVU473
 1487 0020 1B4B     		ldr	r3, .L110
 1488 0022 CA22     		movs	r2, #202
 1489              	.LVL93:
 1490              		.loc 1 914 3 is_stmt 0 discriminator 2 view .LVU474
 1491 0024 5A62     		str	r2, [r3, #36]
 1492              		.loc 1 914 3 is_stmt 1 discriminator 2 view .LVU475
 1493 0026 5322     		movs	r2, #83
 1494 0028 5A62     		str	r2, [r3, #36]
 1495              		.loc 1 914 3 discriminator 2 view .LVU476
 915:../../Drivers/STM32L5xx_HAL_Driver/Src/stm32l5xx_hal_rtc_ex.c **** 
 916:../../Drivers/STM32L5xx_HAL_Driver/Src/stm32l5xx_hal_rtc_ex.c ****   /* check if a calibration is pending*/
 917:../../Drivers/STM32L5xx_HAL_Driver/Src/stm32l5xx_hal_rtc_ex.c ****   if (READ_BIT(RTC->ICSR, RTC_ICSR_RECALPF) != 0U)
 1496              		.loc 1 917 3 discriminator 2 view .LVU477
 1497              		.loc 1 917 7 is_stmt 0 discriminator 2 view .LVU478
 1498 002a DB68     		ldr	r3, [r3, #12]
 1499              		.loc 1 917 6 discriminator 2 view .LVU479
 1500 002c 13F4803F 		tst	r3, #65536
 1501 0030 13D1     		bne	.L109
 1502              	.LVL94:
 1503              	.L104:
 918:../../Drivers/STM32L5xx_HAL_Driver/Src/stm32l5xx_hal_rtc_ex.c ****   {
 919:../../Drivers/STM32L5xx_HAL_Driver/Src/stm32l5xx_hal_rtc_ex.c ****     tickstart = HAL_GetTick();
 920:../../Drivers/STM32L5xx_HAL_Driver/Src/stm32l5xx_hal_rtc_ex.c **** 
 921:../../Drivers/STM32L5xx_HAL_Driver/Src/stm32l5xx_hal_rtc_ex.c ****     /* check if a calibration is pending*/
 922:../../Drivers/STM32L5xx_HAL_Driver/Src/stm32l5xx_hal_rtc_ex.c ****     while (READ_BIT(RTC->ICSR, RTC_ICSR_RECALPF) != 0U)
 923:../../Drivers/STM32L5xx_HAL_Driver/Src/stm32l5xx_hal_rtc_ex.c ****     {
 924:../../Drivers/STM32L5xx_HAL_Driver/Src/stm32l5xx_hal_rtc_ex.c ****       if ((HAL_GetTick() - tickstart) > RTC_TIMEOUT_VALUE)
 925:../../Drivers/STM32L5xx_HAL_Driver/Src/stm32l5xx_hal_rtc_ex.c ****       {
 926:../../Drivers/STM32L5xx_HAL_Driver/Src/stm32l5xx_hal_rtc_ex.c ****         /* Enable the write protection for RTC registers */
 927:../../Drivers/STM32L5xx_HAL_Driver/Src/stm32l5xx_hal_rtc_ex.c ****         __HAL_RTC_WRITEPROTECTION_ENABLE(hrtc);
 928:../../Drivers/STM32L5xx_HAL_Driver/Src/stm32l5xx_hal_rtc_ex.c **** 
 929:../../Drivers/STM32L5xx_HAL_Driver/Src/stm32l5xx_hal_rtc_ex.c ****         /* Change RTC state */
 930:../../Drivers/STM32L5xx_HAL_Driver/Src/stm32l5xx_hal_rtc_ex.c ****         hrtc->State = HAL_RTC_STATE_TIMEOUT;
 931:../../Drivers/STM32L5xx_HAL_Driver/Src/stm32l5xx_hal_rtc_ex.c **** 
 932:../../Drivers/STM32L5xx_HAL_Driver/Src/stm32l5xx_hal_rtc_ex.c ****         /* Process Unlocked */
 933:../../Drivers/STM32L5xx_HAL_Driver/Src/stm32l5xx_hal_rtc_ex.c ****         __HAL_UNLOCK(hrtc);
 934:../../Drivers/STM32L5xx_HAL_Driver/Src/stm32l5xx_hal_rtc_ex.c **** 
 935:../../Drivers/STM32L5xx_HAL_Driver/Src/stm32l5xx_hal_rtc_ex.c ****         return HAL_TIMEOUT;
 936:../../Drivers/STM32L5xx_HAL_Driver/Src/stm32l5xx_hal_rtc_ex.c ****       }
 937:../../Drivers/STM32L5xx_HAL_Driver/Src/stm32l5xx_hal_rtc_ex.c ****     }
 938:../../Drivers/STM32L5xx_HAL_Driver/Src/stm32l5xx_hal_rtc_ex.c ****   }
 939:../../Drivers/STM32L5xx_HAL_Driver/Src/stm32l5xx_hal_rtc_ex.c **** 
 940:../../Drivers/STM32L5xx_HAL_Driver/Src/stm32l5xx_hal_rtc_ex.c ****   /* Configure the Smooth calibration settings */
ARM GAS  C:\Users\carlos\AppData\Local\Temp\ccaMGGVT.s 			page 45


 941:../../Drivers/STM32L5xx_HAL_Driver/Src/stm32l5xx_hal_rtc_ex.c ****   MODIFY_REG(RTC->CALR, (RTC_CALR_CALP | RTC_CALR_CALW8 | RTC_CALR_CALW16 | RTC_CALR_CALM), (uint32
 1504              		.loc 1 941 3 is_stmt 1 view .LVU480
 1505 0032 174B     		ldr	r3, .L110
 1506 0034 986A     		ldr	r0, [r3, #40]
 1507 0036 20F46140 		bic	r0, r0, #57600
 1508 003a 20F0FF00 		bic	r0, r0, #255
 1509 003e 3D43     		orrs	r5, r5, r7
 1510              	.LVL95:
 1511              		.loc 1 941 3 is_stmt 0 view .LVU481
 1512 0040 2E43     		orrs	r6, r6, r5
 1513              	.LVL96:
 1514              		.loc 1 941 3 view .LVU482
 1515 0042 3043     		orrs	r0, r0, r6
 1516 0044 9862     		str	r0, [r3, #40]
 942:../../Drivers/STM32L5xx_HAL_Driver/Src/stm32l5xx_hal_rtc_ex.c **** 
 943:../../Drivers/STM32L5xx_HAL_Driver/Src/stm32l5xx_hal_rtc_ex.c ****   /* Enable the write protection for RTC registers */
 944:../../Drivers/STM32L5xx_HAL_Driver/Src/stm32l5xx_hal_rtc_ex.c ****   __HAL_RTC_WRITEPROTECTION_ENABLE(hrtc);
 1517              		.loc 1 944 3 is_stmt 1 view .LVU483
 1518              		.loc 1 944 3 view .LVU484
 1519 0046 FF22     		movs	r2, #255
 1520 0048 5A62     		str	r2, [r3, #36]
 1521              		.loc 1 944 3 view .LVU485
 945:../../Drivers/STM32L5xx_HAL_Driver/Src/stm32l5xx_hal_rtc_ex.c **** 
 946:../../Drivers/STM32L5xx_HAL_Driver/Src/stm32l5xx_hal_rtc_ex.c ****   /* Change RTC state */
 947:../../Drivers/STM32L5xx_HAL_Driver/Src/stm32l5xx_hal_rtc_ex.c ****   hrtc->State = HAL_RTC_STATE_READY;
 1522              		.loc 1 947 3 view .LVU486
 1523              		.loc 1 947 15 is_stmt 0 view .LVU487
 1524 004a 0123     		movs	r3, #1
 1525 004c 84F82530 		strb	r3, [r4, #37]
 948:../../Drivers/STM32L5xx_HAL_Driver/Src/stm32l5xx_hal_rtc_ex.c **** 
 949:../../Drivers/STM32L5xx_HAL_Driver/Src/stm32l5xx_hal_rtc_ex.c ****   /* Process Unlocked */
 950:../../Drivers/STM32L5xx_HAL_Driver/Src/stm32l5xx_hal_rtc_ex.c ****   __HAL_UNLOCK(hrtc);
 1526              		.loc 1 950 3 is_stmt 1 view .LVU488
 1527              		.loc 1 950 3 view .LVU489
 1528 0050 0020     		movs	r0, #0
 1529 0052 84F82400 		strb	r0, [r4, #36]
 1530              		.loc 1 950 3 view .LVU490
 951:../../Drivers/STM32L5xx_HAL_Driver/Src/stm32l5xx_hal_rtc_ex.c **** 
 952:../../Drivers/STM32L5xx_HAL_Driver/Src/stm32l5xx_hal_rtc_ex.c ****   return HAL_OK;
 1531              		.loc 1 952 3 view .LVU491
 1532              	.LVL97:
 1533              	.L103:
 953:../../Drivers/STM32L5xx_HAL_Driver/Src/stm32l5xx_hal_rtc_ex.c **** }
 1534              		.loc 1 953 1 is_stmt 0 view .LVU492
 1535 0056 BDE8F081 		pop	{r4, r5, r6, r7, r8, pc}
 1536              	.LVL98:
 1537              	.L109:
 919:../../Drivers/STM32L5xx_HAL_Driver/Src/stm32l5xx_hal_rtc_ex.c **** 
 1538              		.loc 1 919 5 is_stmt 1 view .LVU493
 919:../../Drivers/STM32L5xx_HAL_Driver/Src/stm32l5xx_hal_rtc_ex.c **** 
 1539              		.loc 1 919 17 is_stmt 0 view .LVU494
 1540 005a FFF7FEFF 		bl	HAL_GetTick
 1541              	.LVL99:
 919:../../Drivers/STM32L5xx_HAL_Driver/Src/stm32l5xx_hal_rtc_ex.c **** 
 1542              		.loc 1 919 17 view .LVU495
 1543 005e 8046     		mov	r8, r0
 1544              	.LVL100:
ARM GAS  C:\Users\carlos\AppData\Local\Temp\ccaMGGVT.s 			page 46


 922:../../Drivers/STM32L5xx_HAL_Driver/Src/stm32l5xx_hal_rtc_ex.c ****     {
 1545              		.loc 1 922 5 is_stmt 1 view .LVU496
 1546              	.L105:
 922:../../Drivers/STM32L5xx_HAL_Driver/Src/stm32l5xx_hal_rtc_ex.c ****     {
 1547              		.loc 1 922 11 view .LVU497
 922:../../Drivers/STM32L5xx_HAL_Driver/Src/stm32l5xx_hal_rtc_ex.c ****     {
 1548              		.loc 1 922 12 is_stmt 0 view .LVU498
 1549 0060 0B4B     		ldr	r3, .L110
 1550 0062 DB68     		ldr	r3, [r3, #12]
 922:../../Drivers/STM32L5xx_HAL_Driver/Src/stm32l5xx_hal_rtc_ex.c ****     {
 1551              		.loc 1 922 11 view .LVU499
 1552 0064 13F4803F 		tst	r3, #65536
 1553 0068 E3D0     		beq	.L104
 924:../../Drivers/STM32L5xx_HAL_Driver/Src/stm32l5xx_hal_rtc_ex.c ****       {
 1554              		.loc 1 924 7 is_stmt 1 view .LVU500
 924:../../Drivers/STM32L5xx_HAL_Driver/Src/stm32l5xx_hal_rtc_ex.c ****       {
 1555              		.loc 1 924 12 is_stmt 0 view .LVU501
 1556 006a FFF7FEFF 		bl	HAL_GetTick
 1557              	.LVL101:
 924:../../Drivers/STM32L5xx_HAL_Driver/Src/stm32l5xx_hal_rtc_ex.c ****       {
 1558              		.loc 1 924 26 view .LVU502
 1559 006e A0EB080C 		sub	ip, r0, r8
 924:../../Drivers/STM32L5xx_HAL_Driver/Src/stm32l5xx_hal_rtc_ex.c ****       {
 1560              		.loc 1 924 10 view .LVU503
 1561 0072 BCF57A7F 		cmp	ip, #1000
 1562 0076 F3D9     		bls	.L105
 927:../../Drivers/STM32L5xx_HAL_Driver/Src/stm32l5xx_hal_rtc_ex.c **** 
 1563              		.loc 1 927 9 is_stmt 1 view .LVU504
 927:../../Drivers/STM32L5xx_HAL_Driver/Src/stm32l5xx_hal_rtc_ex.c **** 
 1564              		.loc 1 927 9 view .LVU505
 1565 0078 054B     		ldr	r3, .L110
 1566 007a FF22     		movs	r2, #255
 1567 007c 5A62     		str	r2, [r3, #36]
 927:../../Drivers/STM32L5xx_HAL_Driver/Src/stm32l5xx_hal_rtc_ex.c **** 
 1568              		.loc 1 927 9 view .LVU506
 930:../../Drivers/STM32L5xx_HAL_Driver/Src/stm32l5xx_hal_rtc_ex.c **** 
 1569              		.loc 1 930 9 view .LVU507
 930:../../Drivers/STM32L5xx_HAL_Driver/Src/stm32l5xx_hal_rtc_ex.c **** 
 1570              		.loc 1 930 21 is_stmt 0 view .LVU508
 1571 007e 0320     		movs	r0, #3
 1572 0080 84F82500 		strb	r0, [r4, #37]
 933:../../Drivers/STM32L5xx_HAL_Driver/Src/stm32l5xx_hal_rtc_ex.c **** 
 1573              		.loc 1 933 9 is_stmt 1 view .LVU509
 933:../../Drivers/STM32L5xx_HAL_Driver/Src/stm32l5xx_hal_rtc_ex.c **** 
 1574              		.loc 1 933 9 view .LVU510
 1575 0084 0023     		movs	r3, #0
 1576 0086 84F82430 		strb	r3, [r4, #36]
 933:../../Drivers/STM32L5xx_HAL_Driver/Src/stm32l5xx_hal_rtc_ex.c **** 
 1577              		.loc 1 933 9 view .LVU511
 935:../../Drivers/STM32L5xx_HAL_Driver/Src/stm32l5xx_hal_rtc_ex.c ****       }
 1578              		.loc 1 935 9 view .LVU512
 935:../../Drivers/STM32L5xx_HAL_Driver/Src/stm32l5xx_hal_rtc_ex.c ****       }
 1579              		.loc 1 935 16 is_stmt 0 view .LVU513
 1580 008a E4E7     		b	.L103
 1581              	.LVL102:
 1582              	.L107:
 909:../../Drivers/STM32L5xx_HAL_Driver/Src/stm32l5xx_hal_rtc_ex.c **** 
ARM GAS  C:\Users\carlos\AppData\Local\Temp\ccaMGGVT.s 			page 47


 1583              		.loc 1 909 3 view .LVU514
 1584 008c 0220     		movs	r0, #2
 1585              	.LVL103:
 909:../../Drivers/STM32L5xx_HAL_Driver/Src/stm32l5xx_hal_rtc_ex.c **** 
 1586              		.loc 1 909 3 view .LVU515
 1587 008e E2E7     		b	.L103
 1588              	.L111:
 1589              		.align	2
 1590              	.L110:
 1591 0090 00280050 		.word	1342187520
 1592              		.cfi_endproc
 1593              	.LFE218:
 1595              		.section	.text.HAL_RTCEx_SetLowPowerCalib,"ax",%progbits
 1596              		.align	1
 1597              		.global	HAL_RTCEx_SetLowPowerCalib
 1598              		.syntax unified
 1599              		.thumb
 1600              		.thumb_func
 1601              		.fpu fpv4-sp-d16
 1603              	HAL_RTCEx_SetLowPowerCalib:
 1604              	.LVL104:
 1605              	.LFB219:
 954:../../Drivers/STM32L5xx_HAL_Driver/Src/stm32l5xx_hal_rtc_ex.c **** 
 955:../../Drivers/STM32L5xx_HAL_Driver/Src/stm32l5xx_hal_rtc_ex.c **** /**
 956:../../Drivers/STM32L5xx_HAL_Driver/Src/stm32l5xx_hal_rtc_ex.c ****   * @brief  Select the low power Calibration mode.
 957:../../Drivers/STM32L5xx_HAL_Driver/Src/stm32l5xx_hal_rtc_ex.c ****   * @param  hrtc: RTC handle
 958:../../Drivers/STM32L5xx_HAL_Driver/Src/stm32l5xx_hal_rtc_ex.c ****   * @param  LowPowerCalib: Low power Calibration mode.
 959:../../Drivers/STM32L5xx_HAL_Driver/Src/stm32l5xx_hal_rtc_ex.c ****   *          This parameter can be can be one of the following values :
 960:../../Drivers/STM32L5xx_HAL_Driver/Src/stm32l5xx_hal_rtc_ex.c ****   *             @arg RTC_LPCAL_SET: Low power mode.
 961:../../Drivers/STM32L5xx_HAL_Driver/Src/stm32l5xx_hal_rtc_ex.c ****   *             @arg RTC_LPCAL_RESET: High consumption mode.
 962:../../Drivers/STM32L5xx_HAL_Driver/Src/stm32l5xx_hal_rtc_ex.c ****   * @retval HAL status
 963:../../Drivers/STM32L5xx_HAL_Driver/Src/stm32l5xx_hal_rtc_ex.c ****   */
 964:../../Drivers/STM32L5xx_HAL_Driver/Src/stm32l5xx_hal_rtc_ex.c **** HAL_StatusTypeDef HAL_RTCEx_SetLowPowerCalib(RTC_HandleTypeDef *hrtc, uint32_t LowPowerCalib)
 965:../../Drivers/STM32L5xx_HAL_Driver/Src/stm32l5xx_hal_rtc_ex.c **** {
 1606              		.loc 1 965 1 is_stmt 1 view -0
 1607              		.cfi_startproc
 1608              		@ args = 0, pretend = 0, frame = 0
 1609              		@ frame_needed = 0, uses_anonymous_args = 0
 1610              		@ link register save eliminated.
 966:../../Drivers/STM32L5xx_HAL_Driver/Src/stm32l5xx_hal_rtc_ex.c ****   /* Check the parameters */
 967:../../Drivers/STM32L5xx_HAL_Driver/Src/stm32l5xx_hal_rtc_ex.c ****   assert_param(IS_RTC_LOW_POWER_CALIB(LowPowerCalib));
 1611              		.loc 1 967 3 view .LVU517
 968:../../Drivers/STM32L5xx_HAL_Driver/Src/stm32l5xx_hal_rtc_ex.c **** 
 969:../../Drivers/STM32L5xx_HAL_Driver/Src/stm32l5xx_hal_rtc_ex.c ****   /* Process Locked */
 970:../../Drivers/STM32L5xx_HAL_Driver/Src/stm32l5xx_hal_rtc_ex.c ****   __HAL_LOCK(hrtc);
 1612              		.loc 1 970 3 view .LVU518
 1613              		.loc 1 970 3 view .LVU519
 1614 0000 90F82430 		ldrb	r3, [r0, #36]	@ zero_extendqisi2
 1615 0004 012B     		cmp	r3, #1
 1616 0006 19D0     		beq	.L114
 1617              		.loc 1 970 3 discriminator 2 view .LVU520
 1618 0008 4FF0010C 		mov	ip, #1
 1619 000c 80F824C0 		strb	ip, [r0, #36]
 1620              		.loc 1 970 3 discriminator 2 view .LVU521
 971:../../Drivers/STM32L5xx_HAL_Driver/Src/stm32l5xx_hal_rtc_ex.c **** 
 972:../../Drivers/STM32L5xx_HAL_Driver/Src/stm32l5xx_hal_rtc_ex.c ****   hrtc->State = HAL_RTC_STATE_BUSY;
 1621              		.loc 1 972 3 discriminator 2 view .LVU522
ARM GAS  C:\Users\carlos\AppData\Local\Temp\ccaMGGVT.s 			page 48


 1622              		.loc 1 972 15 is_stmt 0 discriminator 2 view .LVU523
 1623 0010 0223     		movs	r3, #2
 1624 0012 80F82530 		strb	r3, [r0, #37]
 973:../../Drivers/STM32L5xx_HAL_Driver/Src/stm32l5xx_hal_rtc_ex.c **** 
 974:../../Drivers/STM32L5xx_HAL_Driver/Src/stm32l5xx_hal_rtc_ex.c ****   /* Disable the write protection for RTC registers */
 975:../../Drivers/STM32L5xx_HAL_Driver/Src/stm32l5xx_hal_rtc_ex.c ****   __HAL_RTC_WRITEPROTECTION_DISABLE(hrtc);
 1625              		.loc 1 975 3 is_stmt 1 discriminator 2 view .LVU524
 1626              		.loc 1 975 3 discriminator 2 view .LVU525
 1627 0016 0A4B     		ldr	r3, .L115
 1628 0018 CA22     		movs	r2, #202
 1629 001a 5A62     		str	r2, [r3, #36]
 1630              		.loc 1 975 3 discriminator 2 view .LVU526
 1631 001c 5322     		movs	r2, #83
 1632 001e 5A62     		str	r2, [r3, #36]
 1633              		.loc 1 975 3 discriminator 2 view .LVU527
 976:../../Drivers/STM32L5xx_HAL_Driver/Src/stm32l5xx_hal_rtc_ex.c **** 
 977:../../Drivers/STM32L5xx_HAL_Driver/Src/stm32l5xx_hal_rtc_ex.c ****   /* Configure the Smooth calibration settings */
 978:../../Drivers/STM32L5xx_HAL_Driver/Src/stm32l5xx_hal_rtc_ex.c ****   MODIFY_REG(RTC->CALR, RTC_CALR_LPCAL, LowPowerCalib);
 1634              		.loc 1 978 3 discriminator 2 view .LVU528
 1635 0020 9A6A     		ldr	r2, [r3, #40]
 1636 0022 22F48052 		bic	r2, r2, #4096
 1637 0026 1143     		orrs	r1, r1, r2
 1638              	.LVL105:
 1639              		.loc 1 978 3 is_stmt 0 discriminator 2 view .LVU529
 1640 0028 9962     		str	r1, [r3, #40]
 979:../../Drivers/STM32L5xx_HAL_Driver/Src/stm32l5xx_hal_rtc_ex.c **** 
 980:../../Drivers/STM32L5xx_HAL_Driver/Src/stm32l5xx_hal_rtc_ex.c ****   /* Enable the write protection for RTC registers */
 981:../../Drivers/STM32L5xx_HAL_Driver/Src/stm32l5xx_hal_rtc_ex.c ****   __HAL_RTC_WRITEPROTECTION_ENABLE(hrtc);
 1641              		.loc 1 981 3 is_stmt 1 discriminator 2 view .LVU530
 1642              		.loc 1 981 3 discriminator 2 view .LVU531
 1643 002a FF22     		movs	r2, #255
 1644 002c 5A62     		str	r2, [r3, #36]
 1645              		.loc 1 981 3 discriminator 2 view .LVU532
 982:../../Drivers/STM32L5xx_HAL_Driver/Src/stm32l5xx_hal_rtc_ex.c **** 
 983:../../Drivers/STM32L5xx_HAL_Driver/Src/stm32l5xx_hal_rtc_ex.c ****   /* Change RTC state */
 984:../../Drivers/STM32L5xx_HAL_Driver/Src/stm32l5xx_hal_rtc_ex.c ****   hrtc->State = HAL_RTC_STATE_READY;
 1646              		.loc 1 984 3 discriminator 2 view .LVU533
 1647              		.loc 1 984 15 is_stmt 0 discriminator 2 view .LVU534
 1648 002e 80F825C0 		strb	ip, [r0, #37]
 985:../../Drivers/STM32L5xx_HAL_Driver/Src/stm32l5xx_hal_rtc_ex.c **** 
 986:../../Drivers/STM32L5xx_HAL_Driver/Src/stm32l5xx_hal_rtc_ex.c ****   /* Process Unlocked */
 987:../../Drivers/STM32L5xx_HAL_Driver/Src/stm32l5xx_hal_rtc_ex.c ****   __HAL_UNLOCK(hrtc);
 1649              		.loc 1 987 3 is_stmt 1 discriminator 2 view .LVU535
 1650              		.loc 1 987 3 discriminator 2 view .LVU536
 1651 0032 0023     		movs	r3, #0
 1652 0034 80F82430 		strb	r3, [r0, #36]
 1653              		.loc 1 987 3 discriminator 2 view .LVU537
 988:../../Drivers/STM32L5xx_HAL_Driver/Src/stm32l5xx_hal_rtc_ex.c **** 
 989:../../Drivers/STM32L5xx_HAL_Driver/Src/stm32l5xx_hal_rtc_ex.c ****   return HAL_OK;
 1654              		.loc 1 989 3 discriminator 2 view .LVU538
 1655              		.loc 1 989 10 is_stmt 0 discriminator 2 view .LVU539
 1656 0038 1846     		mov	r0, r3
 1657              	.LVL106:
 1658              		.loc 1 989 10 discriminator 2 view .LVU540
 1659 003a 7047     		bx	lr
 1660              	.LVL107:
 1661              	.L114:
ARM GAS  C:\Users\carlos\AppData\Local\Temp\ccaMGGVT.s 			page 49


 970:../../Drivers/STM32L5xx_HAL_Driver/Src/stm32l5xx_hal_rtc_ex.c **** 
 1662              		.loc 1 970 3 view .LVU541
 1663 003c 0220     		movs	r0, #2
 1664              	.LVL108:
 990:../../Drivers/STM32L5xx_HAL_Driver/Src/stm32l5xx_hal_rtc_ex.c **** }
 1665              		.loc 1 990 1 view .LVU542
 1666 003e 7047     		bx	lr
 1667              	.L116:
 1668              		.align	2
 1669              	.L115:
 1670 0040 00280050 		.word	1342187520
 1671              		.cfi_endproc
 1672              	.LFE219:
 1674              		.section	.text.HAL_RTCEx_SetSynchroShift,"ax",%progbits
 1675              		.align	1
 1676              		.global	HAL_RTCEx_SetSynchroShift
 1677              		.syntax unified
 1678              		.thumb
 1679              		.thumb_func
 1680              		.fpu fpv4-sp-d16
 1682              	HAL_RTCEx_SetSynchroShift:
 1683              	.LVL109:
 1684              	.LFB220:
 991:../../Drivers/STM32L5xx_HAL_Driver/Src/stm32l5xx_hal_rtc_ex.c **** 
 992:../../Drivers/STM32L5xx_HAL_Driver/Src/stm32l5xx_hal_rtc_ex.c **** /**
 993:../../Drivers/STM32L5xx_HAL_Driver/Src/stm32l5xx_hal_rtc_ex.c ****   * @brief  Configure the Synchronization Shift Control Settings.
 994:../../Drivers/STM32L5xx_HAL_Driver/Src/stm32l5xx_hal_rtc_ex.c ****   * @note   When REFCKON is set, firmware must not write to Shift control register.
 995:../../Drivers/STM32L5xx_HAL_Driver/Src/stm32l5xx_hal_rtc_ex.c ****   * @param  hrtc RTC handle
 996:../../Drivers/STM32L5xx_HAL_Driver/Src/stm32l5xx_hal_rtc_ex.c ****   * @param  ShiftAdd1S Select to add or not 1 second to the time calendar.
 997:../../Drivers/STM32L5xx_HAL_Driver/Src/stm32l5xx_hal_rtc_ex.c ****   *          This parameter can be one of the following values:
 998:../../Drivers/STM32L5xx_HAL_Driver/Src/stm32l5xx_hal_rtc_ex.c ****   *             @arg RTC_SHIFTADD1S_SET: Add one second to the clock calendar.
 999:../../Drivers/STM32L5xx_HAL_Driver/Src/stm32l5xx_hal_rtc_ex.c ****   *             @arg RTC_SHIFTADD1S_RESET: No effect.
1000:../../Drivers/STM32L5xx_HAL_Driver/Src/stm32l5xx_hal_rtc_ex.c ****   * @param  ShiftSubFS Select the number of Second Fractions to substitute.
1001:../../Drivers/STM32L5xx_HAL_Driver/Src/stm32l5xx_hal_rtc_ex.c ****   *          This parameter can be one any value from 0 to 0x7FFF.
1002:../../Drivers/STM32L5xx_HAL_Driver/Src/stm32l5xx_hal_rtc_ex.c ****   * @retval HAL status
1003:../../Drivers/STM32L5xx_HAL_Driver/Src/stm32l5xx_hal_rtc_ex.c ****   */
1004:../../Drivers/STM32L5xx_HAL_Driver/Src/stm32l5xx_hal_rtc_ex.c **** HAL_StatusTypeDef HAL_RTCEx_SetSynchroShift(RTC_HandleTypeDef *hrtc, uint32_t ShiftAdd1S, uint32_t 
1005:../../Drivers/STM32L5xx_HAL_Driver/Src/stm32l5xx_hal_rtc_ex.c **** {
 1685              		.loc 1 1005 1 is_stmt 1 view -0
 1686              		.cfi_startproc
 1687              		@ args = 0, pretend = 0, frame = 0
 1688              		@ frame_needed = 0, uses_anonymous_args = 0
 1689              		.loc 1 1005 1 is_stmt 0 view .LVU544
 1690 0000 F8B5     		push	{r3, r4, r5, r6, r7, lr}
 1691              	.LCFI9:
 1692              		.cfi_def_cfa_offset 24
 1693              		.cfi_offset 3, -24
 1694              		.cfi_offset 4, -20
 1695              		.cfi_offset 5, -16
 1696              		.cfi_offset 6, -12
 1697              		.cfi_offset 7, -8
 1698              		.cfi_offset 14, -4
1006:../../Drivers/STM32L5xx_HAL_Driver/Src/stm32l5xx_hal_rtc_ex.c ****   uint32_t tickstart;
 1699              		.loc 1 1006 3 is_stmt 1 view .LVU545
1007:../../Drivers/STM32L5xx_HAL_Driver/Src/stm32l5xx_hal_rtc_ex.c **** 
1008:../../Drivers/STM32L5xx_HAL_Driver/Src/stm32l5xx_hal_rtc_ex.c ****   /* Check the parameters */
1009:../../Drivers/STM32L5xx_HAL_Driver/Src/stm32l5xx_hal_rtc_ex.c ****   assert_param(IS_RTC_SHIFT_ADD1S(ShiftAdd1S));
ARM GAS  C:\Users\carlos\AppData\Local\Temp\ccaMGGVT.s 			page 50


 1700              		.loc 1 1009 3 view .LVU546
1010:../../Drivers/STM32L5xx_HAL_Driver/Src/stm32l5xx_hal_rtc_ex.c ****   assert_param(IS_RTC_SHIFT_SUBFS(ShiftSubFS));
 1701              		.loc 1 1010 3 view .LVU547
1011:../../Drivers/STM32L5xx_HAL_Driver/Src/stm32l5xx_hal_rtc_ex.c **** 
1012:../../Drivers/STM32L5xx_HAL_Driver/Src/stm32l5xx_hal_rtc_ex.c ****   /* Process Locked */
1013:../../Drivers/STM32L5xx_HAL_Driver/Src/stm32l5xx_hal_rtc_ex.c ****   __HAL_LOCK(hrtc);
 1702              		.loc 1 1013 3 view .LVU548
 1703              		.loc 1 1013 3 view .LVU549
 1704 0002 90F82430 		ldrb	r3, [r0, #36]	@ zero_extendqisi2
 1705 0006 012B     		cmp	r3, #1
 1706 0008 5CD0     		beq	.L123
 1707 000a 0546     		mov	r5, r0
 1708 000c 0F46     		mov	r7, r1
 1709 000e 1646     		mov	r6, r2
 1710              		.loc 1 1013 3 discriminator 2 view .LVU550
 1711 0010 0123     		movs	r3, #1
 1712 0012 80F82430 		strb	r3, [r0, #36]
 1713              		.loc 1 1013 3 discriminator 2 view .LVU551
1014:../../Drivers/STM32L5xx_HAL_Driver/Src/stm32l5xx_hal_rtc_ex.c **** 
1015:../../Drivers/STM32L5xx_HAL_Driver/Src/stm32l5xx_hal_rtc_ex.c ****   hrtc->State = HAL_RTC_STATE_BUSY;
 1714              		.loc 1 1015 3 discriminator 2 view .LVU552
 1715              		.loc 1 1015 15 is_stmt 0 discriminator 2 view .LVU553
 1716 0016 0223     		movs	r3, #2
 1717 0018 80F82530 		strb	r3, [r0, #37]
1016:../../Drivers/STM32L5xx_HAL_Driver/Src/stm32l5xx_hal_rtc_ex.c **** 
1017:../../Drivers/STM32L5xx_HAL_Driver/Src/stm32l5xx_hal_rtc_ex.c ****   /* Disable the write protection for RTC registers */
1018:../../Drivers/STM32L5xx_HAL_Driver/Src/stm32l5xx_hal_rtc_ex.c ****   __HAL_RTC_WRITEPROTECTION_DISABLE(hrtc);
 1718              		.loc 1 1018 3 is_stmt 1 discriminator 2 view .LVU554
 1719              		.loc 1 1018 3 discriminator 2 view .LVU555
 1720 001c 2A4B     		ldr	r3, .L127
 1721 001e CA22     		movs	r2, #202
 1722              	.LVL110:
 1723              		.loc 1 1018 3 is_stmt 0 discriminator 2 view .LVU556
 1724 0020 5A62     		str	r2, [r3, #36]
 1725              		.loc 1 1018 3 is_stmt 1 discriminator 2 view .LVU557
 1726 0022 5322     		movs	r2, #83
 1727 0024 5A62     		str	r2, [r3, #36]
 1728              		.loc 1 1018 3 discriminator 2 view .LVU558
1019:../../Drivers/STM32L5xx_HAL_Driver/Src/stm32l5xx_hal_rtc_ex.c **** 
1020:../../Drivers/STM32L5xx_HAL_Driver/Src/stm32l5xx_hal_rtc_ex.c ****   tickstart = HAL_GetTick();
 1729              		.loc 1 1020 3 discriminator 2 view .LVU559
 1730              		.loc 1 1020 15 is_stmt 0 discriminator 2 view .LVU560
 1731 0026 FFF7FEFF 		bl	HAL_GetTick
 1732              	.LVL111:
 1733              		.loc 1 1020 15 discriminator 2 view .LVU561
 1734 002a 0446     		mov	r4, r0
 1735              	.LVL112:
1021:../../Drivers/STM32L5xx_HAL_Driver/Src/stm32l5xx_hal_rtc_ex.c **** 
1022:../../Drivers/STM32L5xx_HAL_Driver/Src/stm32l5xx_hal_rtc_ex.c ****   /* Wait until the shift is completed*/
1023:../../Drivers/STM32L5xx_HAL_Driver/Src/stm32l5xx_hal_rtc_ex.c ****   while (READ_BIT(RTC->ICSR, RTC_ICSR_SHPF) != 0U)
 1736              		.loc 1 1023 3 is_stmt 1 discriminator 2 view .LVU562
 1737              	.L119:
 1738              		.loc 1 1023 9 view .LVU563
 1739              		.loc 1 1023 10 is_stmt 0 view .LVU564
 1740 002c 264B     		ldr	r3, .L127
 1741 002e DB68     		ldr	r3, [r3, #12]
 1742              		.loc 1 1023 9 view .LVU565
ARM GAS  C:\Users\carlos\AppData\Local\Temp\ccaMGGVT.s 			page 51


 1743 0030 13F0080F 		tst	r3, #8
 1744 0034 0FD0     		beq	.L125
1024:../../Drivers/STM32L5xx_HAL_Driver/Src/stm32l5xx_hal_rtc_ex.c ****   {
1025:../../Drivers/STM32L5xx_HAL_Driver/Src/stm32l5xx_hal_rtc_ex.c ****     if ((HAL_GetTick() - tickstart) > RTC_TIMEOUT_VALUE)
 1745              		.loc 1 1025 5 is_stmt 1 view .LVU566
 1746              		.loc 1 1025 10 is_stmt 0 view .LVU567
 1747 0036 FFF7FEFF 		bl	HAL_GetTick
 1748              	.LVL113:
 1749              		.loc 1 1025 24 view .LVU568
 1750 003a 031B     		subs	r3, r0, r4
 1751              		.loc 1 1025 8 view .LVU569
 1752 003c B3F57A7F 		cmp	r3, #1000
 1753 0040 F4D9     		bls	.L119
1026:../../Drivers/STM32L5xx_HAL_Driver/Src/stm32l5xx_hal_rtc_ex.c ****     {
1027:../../Drivers/STM32L5xx_HAL_Driver/Src/stm32l5xx_hal_rtc_ex.c ****       /* Enable the write protection for RTC registers */
1028:../../Drivers/STM32L5xx_HAL_Driver/Src/stm32l5xx_hal_rtc_ex.c ****       __HAL_RTC_WRITEPROTECTION_ENABLE(hrtc);
 1754              		.loc 1 1028 7 is_stmt 1 view .LVU570
 1755              		.loc 1 1028 7 view .LVU571
 1756 0042 214B     		ldr	r3, .L127
 1757 0044 FF22     		movs	r2, #255
 1758 0046 5A62     		str	r2, [r3, #36]
 1759              		.loc 1 1028 7 view .LVU572
1029:../../Drivers/STM32L5xx_HAL_Driver/Src/stm32l5xx_hal_rtc_ex.c **** 
1030:../../Drivers/STM32L5xx_HAL_Driver/Src/stm32l5xx_hal_rtc_ex.c ****       hrtc->State = HAL_RTC_STATE_TIMEOUT;
 1760              		.loc 1 1030 7 view .LVU573
 1761              		.loc 1 1030 19 is_stmt 0 view .LVU574
 1762 0048 0320     		movs	r0, #3
 1763 004a 85F82500 		strb	r0, [r5, #37]
1031:../../Drivers/STM32L5xx_HAL_Driver/Src/stm32l5xx_hal_rtc_ex.c **** 
1032:../../Drivers/STM32L5xx_HAL_Driver/Src/stm32l5xx_hal_rtc_ex.c ****       /* Process Unlocked */
1033:../../Drivers/STM32L5xx_HAL_Driver/Src/stm32l5xx_hal_rtc_ex.c ****       __HAL_UNLOCK(hrtc);
 1764              		.loc 1 1033 7 is_stmt 1 view .LVU575
 1765              		.loc 1 1033 7 view .LVU576
 1766 004e 0023     		movs	r3, #0
 1767 0050 85F82430 		strb	r3, [r5, #36]
 1768              		.loc 1 1033 7 view .LVU577
1034:../../Drivers/STM32L5xx_HAL_Driver/Src/stm32l5xx_hal_rtc_ex.c **** 
1035:../../Drivers/STM32L5xx_HAL_Driver/Src/stm32l5xx_hal_rtc_ex.c ****       return HAL_TIMEOUT;
 1769              		.loc 1 1035 7 view .LVU578
 1770              	.LVL114:
 1771              	.L118:
1036:../../Drivers/STM32L5xx_HAL_Driver/Src/stm32l5xx_hal_rtc_ex.c ****     }
1037:../../Drivers/STM32L5xx_HAL_Driver/Src/stm32l5xx_hal_rtc_ex.c ****   }
1038:../../Drivers/STM32L5xx_HAL_Driver/Src/stm32l5xx_hal_rtc_ex.c **** 
1039:../../Drivers/STM32L5xx_HAL_Driver/Src/stm32l5xx_hal_rtc_ex.c ****   /* Check if the reference clock detection is disabled */
1040:../../Drivers/STM32L5xx_HAL_Driver/Src/stm32l5xx_hal_rtc_ex.c ****   if (READ_BIT(RTC->CR, RTC_CR_REFCKON) == 0U)
1041:../../Drivers/STM32L5xx_HAL_Driver/Src/stm32l5xx_hal_rtc_ex.c ****   {
1042:../../Drivers/STM32L5xx_HAL_Driver/Src/stm32l5xx_hal_rtc_ex.c ****     /* Configure the Shift settings */
1043:../../Drivers/STM32L5xx_HAL_Driver/Src/stm32l5xx_hal_rtc_ex.c ****     MODIFY_REG(RTC->SHIFTR, RTC_SHIFTR_SUBFS, (uint32_t)(ShiftSubFS) | (uint32_t)(ShiftAdd1S));
1044:../../Drivers/STM32L5xx_HAL_Driver/Src/stm32l5xx_hal_rtc_ex.c **** 
1045:../../Drivers/STM32L5xx_HAL_Driver/Src/stm32l5xx_hal_rtc_ex.c ****     /* If  RTC_CR_BYPSHAD bit = 0, wait for synchro else this check is not needed */
1046:../../Drivers/STM32L5xx_HAL_Driver/Src/stm32l5xx_hal_rtc_ex.c ****     if (READ_BIT(RTC->CR, RTC_CR_BYPSHAD) == 0U)
1047:../../Drivers/STM32L5xx_HAL_Driver/Src/stm32l5xx_hal_rtc_ex.c ****     {
1048:../../Drivers/STM32L5xx_HAL_Driver/Src/stm32l5xx_hal_rtc_ex.c ****       if (HAL_RTC_WaitForSynchro(hrtc) != HAL_OK)
1049:../../Drivers/STM32L5xx_HAL_Driver/Src/stm32l5xx_hal_rtc_ex.c ****       {
1050:../../Drivers/STM32L5xx_HAL_Driver/Src/stm32l5xx_hal_rtc_ex.c ****         /* Enable the write protection for RTC registers */
1051:../../Drivers/STM32L5xx_HAL_Driver/Src/stm32l5xx_hal_rtc_ex.c ****         __HAL_RTC_WRITEPROTECTION_ENABLE(hrtc);
ARM GAS  C:\Users\carlos\AppData\Local\Temp\ccaMGGVT.s 			page 52


1052:../../Drivers/STM32L5xx_HAL_Driver/Src/stm32l5xx_hal_rtc_ex.c **** 
1053:../../Drivers/STM32L5xx_HAL_Driver/Src/stm32l5xx_hal_rtc_ex.c ****         hrtc->State = HAL_RTC_STATE_ERROR;
1054:../../Drivers/STM32L5xx_HAL_Driver/Src/stm32l5xx_hal_rtc_ex.c **** 
1055:../../Drivers/STM32L5xx_HAL_Driver/Src/stm32l5xx_hal_rtc_ex.c ****         /* Process Unlocked */
1056:../../Drivers/STM32L5xx_HAL_Driver/Src/stm32l5xx_hal_rtc_ex.c ****         __HAL_UNLOCK(hrtc);
1057:../../Drivers/STM32L5xx_HAL_Driver/Src/stm32l5xx_hal_rtc_ex.c **** 
1058:../../Drivers/STM32L5xx_HAL_Driver/Src/stm32l5xx_hal_rtc_ex.c ****         return HAL_ERROR;
1059:../../Drivers/STM32L5xx_HAL_Driver/Src/stm32l5xx_hal_rtc_ex.c ****       }
1060:../../Drivers/STM32L5xx_HAL_Driver/Src/stm32l5xx_hal_rtc_ex.c ****     }
1061:../../Drivers/STM32L5xx_HAL_Driver/Src/stm32l5xx_hal_rtc_ex.c ****   }
1062:../../Drivers/STM32L5xx_HAL_Driver/Src/stm32l5xx_hal_rtc_ex.c ****   else
1063:../../Drivers/STM32L5xx_HAL_Driver/Src/stm32l5xx_hal_rtc_ex.c ****   {
1064:../../Drivers/STM32L5xx_HAL_Driver/Src/stm32l5xx_hal_rtc_ex.c ****     /* Enable the write protection for RTC registers */
1065:../../Drivers/STM32L5xx_HAL_Driver/Src/stm32l5xx_hal_rtc_ex.c ****     __HAL_RTC_WRITEPROTECTION_ENABLE(hrtc);
1066:../../Drivers/STM32L5xx_HAL_Driver/Src/stm32l5xx_hal_rtc_ex.c **** 
1067:../../Drivers/STM32L5xx_HAL_Driver/Src/stm32l5xx_hal_rtc_ex.c ****     /* Change RTC state */
1068:../../Drivers/STM32L5xx_HAL_Driver/Src/stm32l5xx_hal_rtc_ex.c ****     hrtc->State = HAL_RTC_STATE_ERROR;
1069:../../Drivers/STM32L5xx_HAL_Driver/Src/stm32l5xx_hal_rtc_ex.c **** 
1070:../../Drivers/STM32L5xx_HAL_Driver/Src/stm32l5xx_hal_rtc_ex.c ****     /* Process Unlocked */
1071:../../Drivers/STM32L5xx_HAL_Driver/Src/stm32l5xx_hal_rtc_ex.c ****     __HAL_UNLOCK(hrtc);
1072:../../Drivers/STM32L5xx_HAL_Driver/Src/stm32l5xx_hal_rtc_ex.c **** 
1073:../../Drivers/STM32L5xx_HAL_Driver/Src/stm32l5xx_hal_rtc_ex.c ****     return HAL_ERROR;
1074:../../Drivers/STM32L5xx_HAL_Driver/Src/stm32l5xx_hal_rtc_ex.c ****   }
1075:../../Drivers/STM32L5xx_HAL_Driver/Src/stm32l5xx_hal_rtc_ex.c **** 
1076:../../Drivers/STM32L5xx_HAL_Driver/Src/stm32l5xx_hal_rtc_ex.c ****   /* Enable the write protection for RTC registers */
1077:../../Drivers/STM32L5xx_HAL_Driver/Src/stm32l5xx_hal_rtc_ex.c ****   __HAL_RTC_WRITEPROTECTION_ENABLE(hrtc);
1078:../../Drivers/STM32L5xx_HAL_Driver/Src/stm32l5xx_hal_rtc_ex.c **** 
1079:../../Drivers/STM32L5xx_HAL_Driver/Src/stm32l5xx_hal_rtc_ex.c ****   /* Change RTC state */
1080:../../Drivers/STM32L5xx_HAL_Driver/Src/stm32l5xx_hal_rtc_ex.c ****   hrtc->State = HAL_RTC_STATE_READY;
1081:../../Drivers/STM32L5xx_HAL_Driver/Src/stm32l5xx_hal_rtc_ex.c **** 
1082:../../Drivers/STM32L5xx_HAL_Driver/Src/stm32l5xx_hal_rtc_ex.c ****   /* Process Unlocked */
1083:../../Drivers/STM32L5xx_HAL_Driver/Src/stm32l5xx_hal_rtc_ex.c ****   __HAL_UNLOCK(hrtc);
1084:../../Drivers/STM32L5xx_HAL_Driver/Src/stm32l5xx_hal_rtc_ex.c **** 
1085:../../Drivers/STM32L5xx_HAL_Driver/Src/stm32l5xx_hal_rtc_ex.c ****   return HAL_OK;
1086:../../Drivers/STM32L5xx_HAL_Driver/Src/stm32l5xx_hal_rtc_ex.c **** }
 1772              		.loc 1 1086 1 is_stmt 0 view .LVU579
 1773 0054 F8BD     		pop	{r3, r4, r5, r6, r7, pc}
 1774              	.LVL115:
 1775              	.L125:
1040:../../Drivers/STM32L5xx_HAL_Driver/Src/stm32l5xx_hal_rtc_ex.c ****   {
 1776              		.loc 1 1040 3 is_stmt 1 view .LVU580
1040:../../Drivers/STM32L5xx_HAL_Driver/Src/stm32l5xx_hal_rtc_ex.c ****   {
 1777              		.loc 1 1040 7 is_stmt 0 view .LVU581
 1778 0056 1C4B     		ldr	r3, .L127
 1779 0058 9B69     		ldr	r3, [r3, #24]
1040:../../Drivers/STM32L5xx_HAL_Driver/Src/stm32l5xx_hal_rtc_ex.c ****   {
 1780              		.loc 1 1040 6 view .LVU582
 1781 005a 13F0100F 		tst	r3, #16
 1782 005e 26D1     		bne	.L121
1043:../../Drivers/STM32L5xx_HAL_Driver/Src/stm32l5xx_hal_rtc_ex.c **** 
 1783              		.loc 1 1043 5 is_stmt 1 view .LVU583
 1784 0060 194A     		ldr	r2, .L127
 1785 0062 D36A     		ldr	r3, [r2, #44]
 1786 0064 23F4FF43 		bic	r3, r3, #32640
 1787 0068 23F07F03 		bic	r3, r3, #127
 1788 006c 3E43     		orrs	r6, r6, r7
 1789              	.LVL116:
ARM GAS  C:\Users\carlos\AppData\Local\Temp\ccaMGGVT.s 			page 53


1043:../../Drivers/STM32L5xx_HAL_Driver/Src/stm32l5xx_hal_rtc_ex.c **** 
 1790              		.loc 1 1043 5 is_stmt 0 view .LVU584
 1791 006e 3343     		orrs	r3, r3, r6
 1792 0070 D362     		str	r3, [r2, #44]
1046:../../Drivers/STM32L5xx_HAL_Driver/Src/stm32l5xx_hal_rtc_ex.c ****     {
 1793              		.loc 1 1046 5 is_stmt 1 view .LVU585
1046:../../Drivers/STM32L5xx_HAL_Driver/Src/stm32l5xx_hal_rtc_ex.c ****     {
 1794              		.loc 1 1046 9 is_stmt 0 view .LVU586
 1795 0072 9369     		ldr	r3, [r2, #24]
1046:../../Drivers/STM32L5xx_HAL_Driver/Src/stm32l5xx_hal_rtc_ex.c ****     {
 1796              		.loc 1 1046 8 view .LVU587
 1797 0074 13F0200F 		tst	r3, #32
 1798 0078 09D0     		beq	.L126
 1799              	.L122:
1077:../../Drivers/STM32L5xx_HAL_Driver/Src/stm32l5xx_hal_rtc_ex.c **** 
 1800              		.loc 1 1077 3 is_stmt 1 view .LVU588
1077:../../Drivers/STM32L5xx_HAL_Driver/Src/stm32l5xx_hal_rtc_ex.c **** 
 1801              		.loc 1 1077 3 view .LVU589
 1802 007a 134B     		ldr	r3, .L127
 1803 007c FF22     		movs	r2, #255
 1804 007e 5A62     		str	r2, [r3, #36]
1077:../../Drivers/STM32L5xx_HAL_Driver/Src/stm32l5xx_hal_rtc_ex.c **** 
 1805              		.loc 1 1077 3 view .LVU590
1080:../../Drivers/STM32L5xx_HAL_Driver/Src/stm32l5xx_hal_rtc_ex.c **** 
 1806              		.loc 1 1080 3 view .LVU591
1080:../../Drivers/STM32L5xx_HAL_Driver/Src/stm32l5xx_hal_rtc_ex.c **** 
 1807              		.loc 1 1080 15 is_stmt 0 view .LVU592
 1808 0080 0123     		movs	r3, #1
 1809 0082 85F82530 		strb	r3, [r5, #37]
1083:../../Drivers/STM32L5xx_HAL_Driver/Src/stm32l5xx_hal_rtc_ex.c **** 
 1810              		.loc 1 1083 3 is_stmt 1 view .LVU593
1083:../../Drivers/STM32L5xx_HAL_Driver/Src/stm32l5xx_hal_rtc_ex.c **** 
 1811              		.loc 1 1083 3 view .LVU594
 1812 0086 0020     		movs	r0, #0
 1813 0088 85F82400 		strb	r0, [r5, #36]
1083:../../Drivers/STM32L5xx_HAL_Driver/Src/stm32l5xx_hal_rtc_ex.c **** 
 1814              		.loc 1 1083 3 view .LVU595
1085:../../Drivers/STM32L5xx_HAL_Driver/Src/stm32l5xx_hal_rtc_ex.c **** }
 1815              		.loc 1 1085 3 view .LVU596
1085:../../Drivers/STM32L5xx_HAL_Driver/Src/stm32l5xx_hal_rtc_ex.c **** }
 1816              		.loc 1 1085 10 is_stmt 0 view .LVU597
 1817 008c E2E7     		b	.L118
 1818              	.L126:
1048:../../Drivers/STM32L5xx_HAL_Driver/Src/stm32l5xx_hal_rtc_ex.c ****       {
 1819              		.loc 1 1048 7 is_stmt 1 view .LVU598
1048:../../Drivers/STM32L5xx_HAL_Driver/Src/stm32l5xx_hal_rtc_ex.c ****       {
 1820              		.loc 1 1048 11 is_stmt 0 view .LVU599
 1821 008e 2846     		mov	r0, r5
 1822 0090 FFF7FEFF 		bl	HAL_RTC_WaitForSynchro
 1823              	.LVL117:
1048:../../Drivers/STM32L5xx_HAL_Driver/Src/stm32l5xx_hal_rtc_ex.c ****       {
 1824              		.loc 1 1048 10 view .LVU600
 1825 0094 0028     		cmp	r0, #0
 1826 0096 F0D0     		beq	.L122
1051:../../Drivers/STM32L5xx_HAL_Driver/Src/stm32l5xx_hal_rtc_ex.c **** 
 1827              		.loc 1 1051 9 is_stmt 1 view .LVU601
1051:../../Drivers/STM32L5xx_HAL_Driver/Src/stm32l5xx_hal_rtc_ex.c **** 
ARM GAS  C:\Users\carlos\AppData\Local\Temp\ccaMGGVT.s 			page 54


 1828              		.loc 1 1051 9 view .LVU602
 1829 0098 0B4B     		ldr	r3, .L127
 1830 009a FF22     		movs	r2, #255
 1831 009c 5A62     		str	r2, [r3, #36]
1051:../../Drivers/STM32L5xx_HAL_Driver/Src/stm32l5xx_hal_rtc_ex.c **** 
 1832              		.loc 1 1051 9 view .LVU603
1053:../../Drivers/STM32L5xx_HAL_Driver/Src/stm32l5xx_hal_rtc_ex.c **** 
 1833              		.loc 1 1053 9 view .LVU604
1053:../../Drivers/STM32L5xx_HAL_Driver/Src/stm32l5xx_hal_rtc_ex.c **** 
 1834              		.loc 1 1053 21 is_stmt 0 view .LVU605
 1835 009e 0423     		movs	r3, #4
 1836 00a0 85F82530 		strb	r3, [r5, #37]
1056:../../Drivers/STM32L5xx_HAL_Driver/Src/stm32l5xx_hal_rtc_ex.c **** 
 1837              		.loc 1 1056 9 is_stmt 1 view .LVU606
1056:../../Drivers/STM32L5xx_HAL_Driver/Src/stm32l5xx_hal_rtc_ex.c **** 
 1838              		.loc 1 1056 9 view .LVU607
 1839 00a4 0023     		movs	r3, #0
 1840 00a6 85F82430 		strb	r3, [r5, #36]
1056:../../Drivers/STM32L5xx_HAL_Driver/Src/stm32l5xx_hal_rtc_ex.c **** 
 1841              		.loc 1 1056 9 view .LVU608
1058:../../Drivers/STM32L5xx_HAL_Driver/Src/stm32l5xx_hal_rtc_ex.c ****       }
 1842              		.loc 1 1058 9 view .LVU609
1058:../../Drivers/STM32L5xx_HAL_Driver/Src/stm32l5xx_hal_rtc_ex.c ****       }
 1843              		.loc 1 1058 16 is_stmt 0 view .LVU610
 1844 00aa 0120     		movs	r0, #1
 1845 00ac D2E7     		b	.L118
 1846              	.LVL118:
 1847              	.L121:
1065:../../Drivers/STM32L5xx_HAL_Driver/Src/stm32l5xx_hal_rtc_ex.c **** 
 1848              		.loc 1 1065 5 is_stmt 1 view .LVU611
1065:../../Drivers/STM32L5xx_HAL_Driver/Src/stm32l5xx_hal_rtc_ex.c **** 
 1849              		.loc 1 1065 5 view .LVU612
 1850 00ae 064B     		ldr	r3, .L127
 1851 00b0 FF22     		movs	r2, #255
 1852 00b2 5A62     		str	r2, [r3, #36]
1065:../../Drivers/STM32L5xx_HAL_Driver/Src/stm32l5xx_hal_rtc_ex.c **** 
 1853              		.loc 1 1065 5 view .LVU613
1068:../../Drivers/STM32L5xx_HAL_Driver/Src/stm32l5xx_hal_rtc_ex.c **** 
 1854              		.loc 1 1068 5 view .LVU614
1068:../../Drivers/STM32L5xx_HAL_Driver/Src/stm32l5xx_hal_rtc_ex.c **** 
 1855              		.loc 1 1068 17 is_stmt 0 view .LVU615
 1856 00b4 0423     		movs	r3, #4
 1857 00b6 85F82530 		strb	r3, [r5, #37]
1071:../../Drivers/STM32L5xx_HAL_Driver/Src/stm32l5xx_hal_rtc_ex.c **** 
 1858              		.loc 1 1071 5 is_stmt 1 view .LVU616
1071:../../Drivers/STM32L5xx_HAL_Driver/Src/stm32l5xx_hal_rtc_ex.c **** 
 1859              		.loc 1 1071 5 view .LVU617
 1860 00ba 0023     		movs	r3, #0
 1861 00bc 85F82430 		strb	r3, [r5, #36]
1071:../../Drivers/STM32L5xx_HAL_Driver/Src/stm32l5xx_hal_rtc_ex.c **** 
 1862              		.loc 1 1071 5 view .LVU618
1073:../../Drivers/STM32L5xx_HAL_Driver/Src/stm32l5xx_hal_rtc_ex.c ****   }
 1863              		.loc 1 1073 5 view .LVU619
1073:../../Drivers/STM32L5xx_HAL_Driver/Src/stm32l5xx_hal_rtc_ex.c ****   }
 1864              		.loc 1 1073 12 is_stmt 0 view .LVU620
 1865 00c0 0120     		movs	r0, #1
 1866 00c2 C7E7     		b	.L118
ARM GAS  C:\Users\carlos\AppData\Local\Temp\ccaMGGVT.s 			page 55


 1867              	.LVL119:
 1868              	.L123:
1013:../../Drivers/STM32L5xx_HAL_Driver/Src/stm32l5xx_hal_rtc_ex.c **** 
 1869              		.loc 1 1013 3 view .LVU621
 1870 00c4 0220     		movs	r0, #2
 1871              	.LVL120:
1013:../../Drivers/STM32L5xx_HAL_Driver/Src/stm32l5xx_hal_rtc_ex.c **** 
 1872              		.loc 1 1013 3 view .LVU622
 1873 00c6 C5E7     		b	.L118
 1874              	.L128:
 1875              		.align	2
 1876              	.L127:
 1877 00c8 00280050 		.word	1342187520
 1878              		.cfi_endproc
 1879              	.LFE220:
 1881              		.section	.text.HAL_RTCEx_SetCalibrationOutPut,"ax",%progbits
 1882              		.align	1
 1883              		.global	HAL_RTCEx_SetCalibrationOutPut
 1884              		.syntax unified
 1885              		.thumb
 1886              		.thumb_func
 1887              		.fpu fpv4-sp-d16
 1889              	HAL_RTCEx_SetCalibrationOutPut:
 1890              	.LVL121:
 1891              	.LFB221:
1087:../../Drivers/STM32L5xx_HAL_Driver/Src/stm32l5xx_hal_rtc_ex.c **** 
1088:../../Drivers/STM32L5xx_HAL_Driver/Src/stm32l5xx_hal_rtc_ex.c **** /**
1089:../../Drivers/STM32L5xx_HAL_Driver/Src/stm32l5xx_hal_rtc_ex.c ****   * @brief  Configure the Calibration Pinout (RTC_CALIB) Selection (1Hz or 512Hz).
1090:../../Drivers/STM32L5xx_HAL_Driver/Src/stm32l5xx_hal_rtc_ex.c ****   * @param  hrtc RTC handle
1091:../../Drivers/STM32L5xx_HAL_Driver/Src/stm32l5xx_hal_rtc_ex.c ****   * @param  CalibOutput Select the Calibration output Selection .
1092:../../Drivers/STM32L5xx_HAL_Driver/Src/stm32l5xx_hal_rtc_ex.c ****   *          This parameter can be one of the following values:
1093:../../Drivers/STM32L5xx_HAL_Driver/Src/stm32l5xx_hal_rtc_ex.c ****   *             @arg RTC_CALIBOUTPUT_512HZ: A signal has a regular waveform at 512Hz.
1094:../../Drivers/STM32L5xx_HAL_Driver/Src/stm32l5xx_hal_rtc_ex.c ****   *             @arg RTC_CALIBOUTPUT_1HZ: A signal has a regular waveform at 1Hz.
1095:../../Drivers/STM32L5xx_HAL_Driver/Src/stm32l5xx_hal_rtc_ex.c ****   * @retval HAL status
1096:../../Drivers/STM32L5xx_HAL_Driver/Src/stm32l5xx_hal_rtc_ex.c ****   */
1097:../../Drivers/STM32L5xx_HAL_Driver/Src/stm32l5xx_hal_rtc_ex.c **** HAL_StatusTypeDef HAL_RTCEx_SetCalibrationOutPut(RTC_HandleTypeDef *hrtc, uint32_t CalibOutput)
1098:../../Drivers/STM32L5xx_HAL_Driver/Src/stm32l5xx_hal_rtc_ex.c **** {
 1892              		.loc 1 1098 1 is_stmt 1 view -0
 1893              		.cfi_startproc
 1894              		@ args = 0, pretend = 0, frame = 0
 1895              		@ frame_needed = 0, uses_anonymous_args = 0
 1896              		@ link register save eliminated.
1099:../../Drivers/STM32L5xx_HAL_Driver/Src/stm32l5xx_hal_rtc_ex.c ****   /* Check the parameters */
1100:../../Drivers/STM32L5xx_HAL_Driver/Src/stm32l5xx_hal_rtc_ex.c ****   assert_param(IS_RTC_CALIB_OUTPUT(CalibOutput));
 1897              		.loc 1 1100 3 view .LVU624
1101:../../Drivers/STM32L5xx_HAL_Driver/Src/stm32l5xx_hal_rtc_ex.c **** 
1102:../../Drivers/STM32L5xx_HAL_Driver/Src/stm32l5xx_hal_rtc_ex.c ****   /* Process Locked */
1103:../../Drivers/STM32L5xx_HAL_Driver/Src/stm32l5xx_hal_rtc_ex.c ****   __HAL_LOCK(hrtc);
 1898              		.loc 1 1103 3 view .LVU625
 1899              		.loc 1 1103 3 view .LVU626
 1900 0000 90F82430 		ldrb	r3, [r0, #36]	@ zero_extendqisi2
 1901 0004 012B     		cmp	r3, #1
 1902 0006 1DD0     		beq	.L131
 1903              		.loc 1 1103 3 discriminator 2 view .LVU627
 1904 0008 4FF0010C 		mov	ip, #1
 1905 000c 80F824C0 		strb	ip, [r0, #36]
 1906              		.loc 1 1103 3 discriminator 2 view .LVU628
ARM GAS  C:\Users\carlos\AppData\Local\Temp\ccaMGGVT.s 			page 56


1104:../../Drivers/STM32L5xx_HAL_Driver/Src/stm32l5xx_hal_rtc_ex.c **** 
1105:../../Drivers/STM32L5xx_HAL_Driver/Src/stm32l5xx_hal_rtc_ex.c ****   hrtc->State = HAL_RTC_STATE_BUSY;
 1907              		.loc 1 1105 3 discriminator 2 view .LVU629
 1908              		.loc 1 1105 15 is_stmt 0 discriminator 2 view .LVU630
 1909 0010 0223     		movs	r3, #2
 1910 0012 80F82530 		strb	r3, [r0, #37]
1106:../../Drivers/STM32L5xx_HAL_Driver/Src/stm32l5xx_hal_rtc_ex.c **** 
1107:../../Drivers/STM32L5xx_HAL_Driver/Src/stm32l5xx_hal_rtc_ex.c ****   /* Disable the write protection for RTC registers */
1108:../../Drivers/STM32L5xx_HAL_Driver/Src/stm32l5xx_hal_rtc_ex.c ****   __HAL_RTC_WRITEPROTECTION_DISABLE(hrtc);
 1911              		.loc 1 1108 3 is_stmt 1 discriminator 2 view .LVU631
 1912              		.loc 1 1108 3 discriminator 2 view .LVU632
 1913 0016 0C4B     		ldr	r3, .L132
 1914 0018 CA22     		movs	r2, #202
 1915 001a 5A62     		str	r2, [r3, #36]
 1916              		.loc 1 1108 3 discriminator 2 view .LVU633
 1917 001c 5322     		movs	r2, #83
 1918 001e 5A62     		str	r2, [r3, #36]
 1919              		.loc 1 1108 3 discriminator 2 view .LVU634
1109:../../Drivers/STM32L5xx_HAL_Driver/Src/stm32l5xx_hal_rtc_ex.c **** 
1110:../../Drivers/STM32L5xx_HAL_Driver/Src/stm32l5xx_hal_rtc_ex.c ****   /* Configure the RTC_CR register */
1111:../../Drivers/STM32L5xx_HAL_Driver/Src/stm32l5xx_hal_rtc_ex.c ****   MODIFY_REG(RTC->CR, RTC_CR_COSEL, CalibOutput);
 1920              		.loc 1 1111 3 discriminator 2 view .LVU635
 1921 0020 9A69     		ldr	r2, [r3, #24]
 1922 0022 22F40022 		bic	r2, r2, #524288
 1923 0026 1143     		orrs	r1, r1, r2
 1924              	.LVL122:
 1925              		.loc 1 1111 3 is_stmt 0 discriminator 2 view .LVU636
 1926 0028 9961     		str	r1, [r3, #24]
1112:../../Drivers/STM32L5xx_HAL_Driver/Src/stm32l5xx_hal_rtc_ex.c **** 
1113:../../Drivers/STM32L5xx_HAL_Driver/Src/stm32l5xx_hal_rtc_ex.c ****   /* Enable calibration output */
1114:../../Drivers/STM32L5xx_HAL_Driver/Src/stm32l5xx_hal_rtc_ex.c ****   SET_BIT(RTC->CR, RTC_CR_COE);
 1927              		.loc 1 1114 3 is_stmt 1 discriminator 2 view .LVU637
 1928 002a 9A69     		ldr	r2, [r3, #24]
 1929 002c 42F40002 		orr	r2, r2, #8388608
 1930 0030 9A61     		str	r2, [r3, #24]
1115:../../Drivers/STM32L5xx_HAL_Driver/Src/stm32l5xx_hal_rtc_ex.c **** 
1116:../../Drivers/STM32L5xx_HAL_Driver/Src/stm32l5xx_hal_rtc_ex.c ****   /* Enable the write protection for RTC registers */
1117:../../Drivers/STM32L5xx_HAL_Driver/Src/stm32l5xx_hal_rtc_ex.c ****   __HAL_RTC_WRITEPROTECTION_ENABLE(hrtc);
 1931              		.loc 1 1117 3 discriminator 2 view .LVU638
 1932              		.loc 1 1117 3 discriminator 2 view .LVU639
 1933 0032 FF22     		movs	r2, #255
 1934 0034 5A62     		str	r2, [r3, #36]
 1935              		.loc 1 1117 3 discriminator 2 view .LVU640
1118:../../Drivers/STM32L5xx_HAL_Driver/Src/stm32l5xx_hal_rtc_ex.c **** 
1119:../../Drivers/STM32L5xx_HAL_Driver/Src/stm32l5xx_hal_rtc_ex.c ****   /* Change RTC state */
1120:../../Drivers/STM32L5xx_HAL_Driver/Src/stm32l5xx_hal_rtc_ex.c ****   hrtc->State = HAL_RTC_STATE_READY;
 1936              		.loc 1 1120 3 discriminator 2 view .LVU641
 1937              		.loc 1 1120 15 is_stmt 0 discriminator 2 view .LVU642
 1938 0036 80F825C0 		strb	ip, [r0, #37]
1121:../../Drivers/STM32L5xx_HAL_Driver/Src/stm32l5xx_hal_rtc_ex.c **** 
1122:../../Drivers/STM32L5xx_HAL_Driver/Src/stm32l5xx_hal_rtc_ex.c ****   /* Process Unlocked */
1123:../../Drivers/STM32L5xx_HAL_Driver/Src/stm32l5xx_hal_rtc_ex.c ****   __HAL_UNLOCK(hrtc);
 1939              		.loc 1 1123 3 is_stmt 1 discriminator 2 view .LVU643
 1940              		.loc 1 1123 3 discriminator 2 view .LVU644
 1941 003a 0023     		movs	r3, #0
 1942 003c 80F82430 		strb	r3, [r0, #36]
 1943              		.loc 1 1123 3 discriminator 2 view .LVU645
ARM GAS  C:\Users\carlos\AppData\Local\Temp\ccaMGGVT.s 			page 57


1124:../../Drivers/STM32L5xx_HAL_Driver/Src/stm32l5xx_hal_rtc_ex.c **** 
1125:../../Drivers/STM32L5xx_HAL_Driver/Src/stm32l5xx_hal_rtc_ex.c ****   return HAL_OK;
 1944              		.loc 1 1125 3 discriminator 2 view .LVU646
 1945              		.loc 1 1125 10 is_stmt 0 discriminator 2 view .LVU647
 1946 0040 1846     		mov	r0, r3
 1947              	.LVL123:
 1948              		.loc 1 1125 10 discriminator 2 view .LVU648
 1949 0042 7047     		bx	lr
 1950              	.LVL124:
 1951              	.L131:
1103:../../Drivers/STM32L5xx_HAL_Driver/Src/stm32l5xx_hal_rtc_ex.c **** 
 1952              		.loc 1 1103 3 view .LVU649
 1953 0044 0220     		movs	r0, #2
 1954              	.LVL125:
1126:../../Drivers/STM32L5xx_HAL_Driver/Src/stm32l5xx_hal_rtc_ex.c **** }
 1955              		.loc 1 1126 1 view .LVU650
 1956 0046 7047     		bx	lr
 1957              	.L133:
 1958              		.align	2
 1959              	.L132:
 1960 0048 00280050 		.word	1342187520
 1961              		.cfi_endproc
 1962              	.LFE221:
 1964              		.section	.text.HAL_RTCEx_DeactivateCalibrationOutPut,"ax",%progbits
 1965              		.align	1
 1966              		.global	HAL_RTCEx_DeactivateCalibrationOutPut
 1967              		.syntax unified
 1968              		.thumb
 1969              		.thumb_func
 1970              		.fpu fpv4-sp-d16
 1972              	HAL_RTCEx_DeactivateCalibrationOutPut:
 1973              	.LVL126:
 1974              	.LFB222:
1127:../../Drivers/STM32L5xx_HAL_Driver/Src/stm32l5xx_hal_rtc_ex.c **** 
1128:../../Drivers/STM32L5xx_HAL_Driver/Src/stm32l5xx_hal_rtc_ex.c **** /**
1129:../../Drivers/STM32L5xx_HAL_Driver/Src/stm32l5xx_hal_rtc_ex.c ****   * @brief  Deactivate the Calibration Pinout (RTC_CALIB) Selection (1Hz or 512Hz).
1130:../../Drivers/STM32L5xx_HAL_Driver/Src/stm32l5xx_hal_rtc_ex.c ****   * @param  hrtc RTC handle
1131:../../Drivers/STM32L5xx_HAL_Driver/Src/stm32l5xx_hal_rtc_ex.c ****   * @retval HAL status
1132:../../Drivers/STM32L5xx_HAL_Driver/Src/stm32l5xx_hal_rtc_ex.c ****   */
1133:../../Drivers/STM32L5xx_HAL_Driver/Src/stm32l5xx_hal_rtc_ex.c **** HAL_StatusTypeDef HAL_RTCEx_DeactivateCalibrationOutPut(RTC_HandleTypeDef *hrtc)
1134:../../Drivers/STM32L5xx_HAL_Driver/Src/stm32l5xx_hal_rtc_ex.c **** {
 1975              		.loc 1 1134 1 is_stmt 1 view -0
 1976              		.cfi_startproc
 1977              		@ args = 0, pretend = 0, frame = 0
 1978              		@ frame_needed = 0, uses_anonymous_args = 0
 1979              		@ link register save eliminated.
1135:../../Drivers/STM32L5xx_HAL_Driver/Src/stm32l5xx_hal_rtc_ex.c ****   /* Process Locked */
1136:../../Drivers/STM32L5xx_HAL_Driver/Src/stm32l5xx_hal_rtc_ex.c ****   __HAL_LOCK(hrtc);
 1980              		.loc 1 1136 3 view .LVU652
 1981              		.loc 1 1136 3 view .LVU653
 1982 0000 90F82430 		ldrb	r3, [r0, #36]	@ zero_extendqisi2
 1983 0004 012B     		cmp	r3, #1
 1984 0006 17D0     		beq	.L136
 1985              		.loc 1 1136 3 discriminator 2 view .LVU654
 1986 0008 0121     		movs	r1, #1
 1987 000a 80F82410 		strb	r1, [r0, #36]
 1988              		.loc 1 1136 3 discriminator 2 view .LVU655
ARM GAS  C:\Users\carlos\AppData\Local\Temp\ccaMGGVT.s 			page 58


1137:../../Drivers/STM32L5xx_HAL_Driver/Src/stm32l5xx_hal_rtc_ex.c **** 
1138:../../Drivers/STM32L5xx_HAL_Driver/Src/stm32l5xx_hal_rtc_ex.c ****   hrtc->State = HAL_RTC_STATE_BUSY;
 1989              		.loc 1 1138 3 discriminator 2 view .LVU656
 1990              		.loc 1 1138 15 is_stmt 0 discriminator 2 view .LVU657
 1991 000e 0223     		movs	r3, #2
 1992 0010 80F82530 		strb	r3, [r0, #37]
1139:../../Drivers/STM32L5xx_HAL_Driver/Src/stm32l5xx_hal_rtc_ex.c **** 
1140:../../Drivers/STM32L5xx_HAL_Driver/Src/stm32l5xx_hal_rtc_ex.c ****   /* Disable the write protection for RTC registers */
1141:../../Drivers/STM32L5xx_HAL_Driver/Src/stm32l5xx_hal_rtc_ex.c ****   __HAL_RTC_WRITEPROTECTION_DISABLE(hrtc);
 1993              		.loc 1 1141 3 is_stmt 1 discriminator 2 view .LVU658
 1994              		.loc 1 1141 3 discriminator 2 view .LVU659
 1995 0014 094B     		ldr	r3, .L137
 1996 0016 CA22     		movs	r2, #202
 1997 0018 5A62     		str	r2, [r3, #36]
 1998              		.loc 1 1141 3 discriminator 2 view .LVU660
 1999 001a 5322     		movs	r2, #83
 2000 001c 5A62     		str	r2, [r3, #36]
 2001              		.loc 1 1141 3 discriminator 2 view .LVU661
1142:../../Drivers/STM32L5xx_HAL_Driver/Src/stm32l5xx_hal_rtc_ex.c **** 
1143:../../Drivers/STM32L5xx_HAL_Driver/Src/stm32l5xx_hal_rtc_ex.c ****   /* Disable calibration output */
1144:../../Drivers/STM32L5xx_HAL_Driver/Src/stm32l5xx_hal_rtc_ex.c ****   CLEAR_BIT(RTC->CR, RTC_CR_COE);
 2002              		.loc 1 1144 3 discriminator 2 view .LVU662
 2003 001e 9A69     		ldr	r2, [r3, #24]
 2004 0020 22F40002 		bic	r2, r2, #8388608
 2005 0024 9A61     		str	r2, [r3, #24]
1145:../../Drivers/STM32L5xx_HAL_Driver/Src/stm32l5xx_hal_rtc_ex.c **** 
1146:../../Drivers/STM32L5xx_HAL_Driver/Src/stm32l5xx_hal_rtc_ex.c ****   /* Enable the write protection for RTC registers */
1147:../../Drivers/STM32L5xx_HAL_Driver/Src/stm32l5xx_hal_rtc_ex.c ****   __HAL_RTC_WRITEPROTECTION_ENABLE(hrtc);
 2006              		.loc 1 1147 3 discriminator 2 view .LVU663
 2007              		.loc 1 1147 3 discriminator 2 view .LVU664
 2008 0026 FF22     		movs	r2, #255
 2009 0028 5A62     		str	r2, [r3, #36]
 2010              		.loc 1 1147 3 discriminator 2 view .LVU665
1148:../../Drivers/STM32L5xx_HAL_Driver/Src/stm32l5xx_hal_rtc_ex.c **** 
1149:../../Drivers/STM32L5xx_HAL_Driver/Src/stm32l5xx_hal_rtc_ex.c ****   /* Change RTC state */
1150:../../Drivers/STM32L5xx_HAL_Driver/Src/stm32l5xx_hal_rtc_ex.c ****   hrtc->State = HAL_RTC_STATE_READY;
 2011              		.loc 1 1150 3 discriminator 2 view .LVU666
 2012              		.loc 1 1150 15 is_stmt 0 discriminator 2 view .LVU667
 2013 002a 80F82510 		strb	r1, [r0, #37]
1151:../../Drivers/STM32L5xx_HAL_Driver/Src/stm32l5xx_hal_rtc_ex.c **** 
1152:../../Drivers/STM32L5xx_HAL_Driver/Src/stm32l5xx_hal_rtc_ex.c ****   /* Process Unlocked */
1153:../../Drivers/STM32L5xx_HAL_Driver/Src/stm32l5xx_hal_rtc_ex.c ****   __HAL_UNLOCK(hrtc);
 2014              		.loc 1 1153 3 is_stmt 1 discriminator 2 view .LVU668
 2015              		.loc 1 1153 3 discriminator 2 view .LVU669
 2016 002e 0023     		movs	r3, #0
 2017 0030 80F82430 		strb	r3, [r0, #36]
 2018              		.loc 1 1153 3 discriminator 2 view .LVU670
1154:../../Drivers/STM32L5xx_HAL_Driver/Src/stm32l5xx_hal_rtc_ex.c **** 
1155:../../Drivers/STM32L5xx_HAL_Driver/Src/stm32l5xx_hal_rtc_ex.c ****   return HAL_OK;
 2019              		.loc 1 1155 3 discriminator 2 view .LVU671
 2020              		.loc 1 1155 10 is_stmt 0 discriminator 2 view .LVU672
 2021 0034 1846     		mov	r0, r3
 2022              	.LVL127:
 2023              		.loc 1 1155 10 discriminator 2 view .LVU673
 2024 0036 7047     		bx	lr
 2025              	.LVL128:
 2026              	.L136:
ARM GAS  C:\Users\carlos\AppData\Local\Temp\ccaMGGVT.s 			page 59


1136:../../Drivers/STM32L5xx_HAL_Driver/Src/stm32l5xx_hal_rtc_ex.c **** 
 2027              		.loc 1 1136 3 view .LVU674
 2028 0038 0220     		movs	r0, #2
 2029              	.LVL129:
1156:../../Drivers/STM32L5xx_HAL_Driver/Src/stm32l5xx_hal_rtc_ex.c **** }
 2030              		.loc 1 1156 1 view .LVU675
 2031 003a 7047     		bx	lr
 2032              	.L138:
 2033              		.align	2
 2034              	.L137:
 2035 003c 00280050 		.word	1342187520
 2036              		.cfi_endproc
 2037              	.LFE222:
 2039              		.section	.text.HAL_RTCEx_SetRefClock,"ax",%progbits
 2040              		.align	1
 2041              		.global	HAL_RTCEx_SetRefClock
 2042              		.syntax unified
 2043              		.thumb
 2044              		.thumb_func
 2045              		.fpu fpv4-sp-d16
 2047              	HAL_RTCEx_SetRefClock:
 2048              	.LVL130:
 2049              	.LFB223:
1157:../../Drivers/STM32L5xx_HAL_Driver/Src/stm32l5xx_hal_rtc_ex.c **** 
1158:../../Drivers/STM32L5xx_HAL_Driver/Src/stm32l5xx_hal_rtc_ex.c **** /**
1159:../../Drivers/STM32L5xx_HAL_Driver/Src/stm32l5xx_hal_rtc_ex.c ****   * @brief  Enable the RTC reference clock detection.
1160:../../Drivers/STM32L5xx_HAL_Driver/Src/stm32l5xx_hal_rtc_ex.c ****   * @param  hrtc RTC handle
1161:../../Drivers/STM32L5xx_HAL_Driver/Src/stm32l5xx_hal_rtc_ex.c ****   * @retval HAL status
1162:../../Drivers/STM32L5xx_HAL_Driver/Src/stm32l5xx_hal_rtc_ex.c ****   */
1163:../../Drivers/STM32L5xx_HAL_Driver/Src/stm32l5xx_hal_rtc_ex.c **** HAL_StatusTypeDef HAL_RTCEx_SetRefClock(RTC_HandleTypeDef *hrtc)
1164:../../Drivers/STM32L5xx_HAL_Driver/Src/stm32l5xx_hal_rtc_ex.c **** {
 2050              		.loc 1 1164 1 is_stmt 1 view -0
 2051              		.cfi_startproc
 2052              		@ args = 0, pretend = 0, frame = 0
 2053              		@ frame_needed = 0, uses_anonymous_args = 0
1165:../../Drivers/STM32L5xx_HAL_Driver/Src/stm32l5xx_hal_rtc_ex.c ****   HAL_StatusTypeDef status;
 2054              		.loc 1 1165 3 view .LVU677
1166:../../Drivers/STM32L5xx_HAL_Driver/Src/stm32l5xx_hal_rtc_ex.c **** 
1167:../../Drivers/STM32L5xx_HAL_Driver/Src/stm32l5xx_hal_rtc_ex.c ****   /* Process Locked */
1168:../../Drivers/STM32L5xx_HAL_Driver/Src/stm32l5xx_hal_rtc_ex.c ****   __HAL_LOCK(hrtc);
 2055              		.loc 1 1168 3 view .LVU678
 2056              		.loc 1 1168 3 view .LVU679
 2057 0000 90F82430 		ldrb	r3, [r0, #36]	@ zero_extendqisi2
 2058 0004 012B     		cmp	r3, #1
 2059 0006 23D0     		beq	.L143
1164:../../Drivers/STM32L5xx_HAL_Driver/Src/stm32l5xx_hal_rtc_ex.c ****   HAL_StatusTypeDef status;
 2060              		.loc 1 1164 1 is_stmt 0 discriminator 2 view .LVU680
 2061 0008 10B5     		push	{r4, lr}
 2062              	.LCFI10:
 2063              		.cfi_def_cfa_offset 8
 2064              		.cfi_offset 4, -8
 2065              		.cfi_offset 14, -4
 2066 000a 0446     		mov	r4, r0
 2067              		.loc 1 1168 3 is_stmt 1 discriminator 2 view .LVU681
 2068 000c 0123     		movs	r3, #1
 2069 000e 80F82430 		strb	r3, [r0, #36]
 2070              		.loc 1 1168 3 discriminator 2 view .LVU682
ARM GAS  C:\Users\carlos\AppData\Local\Temp\ccaMGGVT.s 			page 60


1169:../../Drivers/STM32L5xx_HAL_Driver/Src/stm32l5xx_hal_rtc_ex.c **** 
1170:../../Drivers/STM32L5xx_HAL_Driver/Src/stm32l5xx_hal_rtc_ex.c ****   hrtc->State = HAL_RTC_STATE_BUSY;
 2071              		.loc 1 1170 3 discriminator 2 view .LVU683
 2072              		.loc 1 1170 15 is_stmt 0 discriminator 2 view .LVU684
 2073 0012 0223     		movs	r3, #2
 2074 0014 80F82530 		strb	r3, [r0, #37]
1171:../../Drivers/STM32L5xx_HAL_Driver/Src/stm32l5xx_hal_rtc_ex.c **** 
1172:../../Drivers/STM32L5xx_HAL_Driver/Src/stm32l5xx_hal_rtc_ex.c ****   /* Disable the write protection for RTC registers */
1173:../../Drivers/STM32L5xx_HAL_Driver/Src/stm32l5xx_hal_rtc_ex.c ****   __HAL_RTC_WRITEPROTECTION_DISABLE(hrtc);
 2075              		.loc 1 1173 3 is_stmt 1 discriminator 2 view .LVU685
 2076              		.loc 1 1173 3 discriminator 2 view .LVU686
 2077 0018 0E4B     		ldr	r3, .L149
 2078 001a CA22     		movs	r2, #202
 2079 001c 5A62     		str	r2, [r3, #36]
 2080              		.loc 1 1173 3 discriminator 2 view .LVU687
 2081 001e 5322     		movs	r2, #83
 2082 0020 5A62     		str	r2, [r3, #36]
 2083              		.loc 1 1173 3 discriminator 2 view .LVU688
1174:../../Drivers/STM32L5xx_HAL_Driver/Src/stm32l5xx_hal_rtc_ex.c **** 
1175:../../Drivers/STM32L5xx_HAL_Driver/Src/stm32l5xx_hal_rtc_ex.c ****   /* Enter Initialization mode */
1176:../../Drivers/STM32L5xx_HAL_Driver/Src/stm32l5xx_hal_rtc_ex.c ****   status = RTC_EnterInitMode(hrtc);
 2084              		.loc 1 1176 3 discriminator 2 view .LVU689
 2085              		.loc 1 1176 12 is_stmt 0 discriminator 2 view .LVU690
 2086 0022 FFF7FEFF 		bl	RTC_EnterInitMode
 2087              	.LVL131:
1177:../../Drivers/STM32L5xx_HAL_Driver/Src/stm32l5xx_hal_rtc_ex.c ****   if (status == HAL_OK)
 2088              		.loc 1 1177 3 is_stmt 1 discriminator 2 view .LVU691
 2089              		.loc 1 1177 6 is_stmt 0 discriminator 2 view .LVU692
 2090 0026 50B1     		cbz	r0, .L148
 2091              	.L141:
1178:../../Drivers/STM32L5xx_HAL_Driver/Src/stm32l5xx_hal_rtc_ex.c ****   {
1179:../../Drivers/STM32L5xx_HAL_Driver/Src/stm32l5xx_hal_rtc_ex.c ****     /* Enable clockref detection */
1180:../../Drivers/STM32L5xx_HAL_Driver/Src/stm32l5xx_hal_rtc_ex.c ****     SET_BIT(RTC->CR, RTC_CR_REFCKON);
1181:../../Drivers/STM32L5xx_HAL_Driver/Src/stm32l5xx_hal_rtc_ex.c **** 
1182:../../Drivers/STM32L5xx_HAL_Driver/Src/stm32l5xx_hal_rtc_ex.c ****     /* Exit Initialization mode */
1183:../../Drivers/STM32L5xx_HAL_Driver/Src/stm32l5xx_hal_rtc_ex.c ****     status = RTC_ExitInitMode(hrtc);
1184:../../Drivers/STM32L5xx_HAL_Driver/Src/stm32l5xx_hal_rtc_ex.c ****   }
1185:../../Drivers/STM32L5xx_HAL_Driver/Src/stm32l5xx_hal_rtc_ex.c **** 
1186:../../Drivers/STM32L5xx_HAL_Driver/Src/stm32l5xx_hal_rtc_ex.c ****   /* Enable the write protection for RTC registers */
1187:../../Drivers/STM32L5xx_HAL_Driver/Src/stm32l5xx_hal_rtc_ex.c ****   __HAL_RTC_WRITEPROTECTION_ENABLE(hrtc);
 2092              		.loc 1 1187 3 is_stmt 1 view .LVU693
 2093              		.loc 1 1187 3 view .LVU694
 2094 0028 0A4B     		ldr	r3, .L149
 2095 002a FF22     		movs	r2, #255
 2096 002c 5A62     		str	r2, [r3, #36]
 2097              		.loc 1 1187 3 view .LVU695
1188:../../Drivers/STM32L5xx_HAL_Driver/Src/stm32l5xx_hal_rtc_ex.c **** 
1189:../../Drivers/STM32L5xx_HAL_Driver/Src/stm32l5xx_hal_rtc_ex.c ****   if (status == HAL_OK)
 2098              		.loc 1 1189 3 view .LVU696
 2099              		.loc 1 1189 6 is_stmt 0 view .LVU697
 2100 002e 10B9     		cbnz	r0, .L142
1190:../../Drivers/STM32L5xx_HAL_Driver/Src/stm32l5xx_hal_rtc_ex.c ****   {
1191:../../Drivers/STM32L5xx_HAL_Driver/Src/stm32l5xx_hal_rtc_ex.c ****     hrtc->State = HAL_RTC_STATE_READY;
 2101              		.loc 1 1191 5 is_stmt 1 view .LVU698
 2102              		.loc 1 1191 17 is_stmt 0 view .LVU699
 2103 0030 0123     		movs	r3, #1
 2104 0032 84F82530 		strb	r3, [r4, #37]
ARM GAS  C:\Users\carlos\AppData\Local\Temp\ccaMGGVT.s 			page 61


 2105              	.L142:
1192:../../Drivers/STM32L5xx_HAL_Driver/Src/stm32l5xx_hal_rtc_ex.c ****   }
1193:../../Drivers/STM32L5xx_HAL_Driver/Src/stm32l5xx_hal_rtc_ex.c **** 
1194:../../Drivers/STM32L5xx_HAL_Driver/Src/stm32l5xx_hal_rtc_ex.c ****   /* Process Unlocked */
1195:../../Drivers/STM32L5xx_HAL_Driver/Src/stm32l5xx_hal_rtc_ex.c ****   __HAL_UNLOCK(hrtc);
 2106              		.loc 1 1195 3 is_stmt 1 view .LVU700
 2107              		.loc 1 1195 3 view .LVU701
 2108 0036 0023     		movs	r3, #0
 2109 0038 84F82430 		strb	r3, [r4, #36]
 2110              		.loc 1 1195 3 view .LVU702
1196:../../Drivers/STM32L5xx_HAL_Driver/Src/stm32l5xx_hal_rtc_ex.c **** 
1197:../../Drivers/STM32L5xx_HAL_Driver/Src/stm32l5xx_hal_rtc_ex.c ****   return status;
 2111              		.loc 1 1197 3 view .LVU703
1198:../../Drivers/STM32L5xx_HAL_Driver/Src/stm32l5xx_hal_rtc_ex.c **** }
 2112              		.loc 1 1198 1 is_stmt 0 view .LVU704
 2113 003c 10BD     		pop	{r4, pc}
 2114              	.LVL132:
 2115              	.L148:
1180:../../Drivers/STM32L5xx_HAL_Driver/Src/stm32l5xx_hal_rtc_ex.c **** 
 2116              		.loc 1 1180 5 is_stmt 1 view .LVU705
 2117 003e 054A     		ldr	r2, .L149
 2118 0040 9369     		ldr	r3, [r2, #24]
 2119 0042 43F01003 		orr	r3, r3, #16
 2120 0046 9361     		str	r3, [r2, #24]
1183:../../Drivers/STM32L5xx_HAL_Driver/Src/stm32l5xx_hal_rtc_ex.c ****   }
 2121              		.loc 1 1183 5 view .LVU706
1183:../../Drivers/STM32L5xx_HAL_Driver/Src/stm32l5xx_hal_rtc_ex.c ****   }
 2122              		.loc 1 1183 14 is_stmt 0 view .LVU707
 2123 0048 2046     		mov	r0, r4
 2124              	.LVL133:
1183:../../Drivers/STM32L5xx_HAL_Driver/Src/stm32l5xx_hal_rtc_ex.c ****   }
 2125              		.loc 1 1183 14 view .LVU708
 2126 004a FFF7FEFF 		bl	RTC_ExitInitMode
 2127              	.LVL134:
1183:../../Drivers/STM32L5xx_HAL_Driver/Src/stm32l5xx_hal_rtc_ex.c ****   }
 2128              		.loc 1 1183 14 view .LVU709
 2129 004e EBE7     		b	.L141
 2130              	.LVL135:
 2131              	.L143:
 2132              	.LCFI11:
 2133              		.cfi_def_cfa_offset 0
 2134              		.cfi_restore 4
 2135              		.cfi_restore 14
1168:../../Drivers/STM32L5xx_HAL_Driver/Src/stm32l5xx_hal_rtc_ex.c **** 
 2136              		.loc 1 1168 3 view .LVU710
 2137 0050 0220     		movs	r0, #2
 2138              	.LVL136:
 2139              		.loc 1 1198 1 view .LVU711
 2140 0052 7047     		bx	lr
 2141              	.L150:
 2142              		.align	2
 2143              	.L149:
 2144 0054 00280050 		.word	1342187520
 2145              		.cfi_endproc
 2146              	.LFE223:
 2148              		.section	.text.HAL_RTCEx_DeactivateRefClock,"ax",%progbits
 2149              		.align	1
ARM GAS  C:\Users\carlos\AppData\Local\Temp\ccaMGGVT.s 			page 62


 2150              		.global	HAL_RTCEx_DeactivateRefClock
 2151              		.syntax unified
 2152              		.thumb
 2153              		.thumb_func
 2154              		.fpu fpv4-sp-d16
 2156              	HAL_RTCEx_DeactivateRefClock:
 2157              	.LVL137:
 2158              	.LFB224:
1199:../../Drivers/STM32L5xx_HAL_Driver/Src/stm32l5xx_hal_rtc_ex.c **** 
1200:../../Drivers/STM32L5xx_HAL_Driver/Src/stm32l5xx_hal_rtc_ex.c **** /**
1201:../../Drivers/STM32L5xx_HAL_Driver/Src/stm32l5xx_hal_rtc_ex.c ****   * @brief  Disable the RTC reference clock detection.
1202:../../Drivers/STM32L5xx_HAL_Driver/Src/stm32l5xx_hal_rtc_ex.c ****   * @param  hrtc RTC handle
1203:../../Drivers/STM32L5xx_HAL_Driver/Src/stm32l5xx_hal_rtc_ex.c ****   * @retval HAL status
1204:../../Drivers/STM32L5xx_HAL_Driver/Src/stm32l5xx_hal_rtc_ex.c ****   */
1205:../../Drivers/STM32L5xx_HAL_Driver/Src/stm32l5xx_hal_rtc_ex.c **** HAL_StatusTypeDef HAL_RTCEx_DeactivateRefClock(RTC_HandleTypeDef *hrtc)
1206:../../Drivers/STM32L5xx_HAL_Driver/Src/stm32l5xx_hal_rtc_ex.c **** {
 2159              		.loc 1 1206 1 is_stmt 1 view -0
 2160              		.cfi_startproc
 2161              		@ args = 0, pretend = 0, frame = 0
 2162              		@ frame_needed = 0, uses_anonymous_args = 0
1207:../../Drivers/STM32L5xx_HAL_Driver/Src/stm32l5xx_hal_rtc_ex.c ****   HAL_StatusTypeDef status;
 2163              		.loc 1 1207 3 view .LVU713
1208:../../Drivers/STM32L5xx_HAL_Driver/Src/stm32l5xx_hal_rtc_ex.c **** 
1209:../../Drivers/STM32L5xx_HAL_Driver/Src/stm32l5xx_hal_rtc_ex.c ****   /* Process Locked */
1210:../../Drivers/STM32L5xx_HAL_Driver/Src/stm32l5xx_hal_rtc_ex.c ****   __HAL_LOCK(hrtc);
 2164              		.loc 1 1210 3 view .LVU714
 2165              		.loc 1 1210 3 view .LVU715
 2166 0000 90F82430 		ldrb	r3, [r0, #36]	@ zero_extendqisi2
 2167 0004 012B     		cmp	r3, #1
 2168 0006 23D0     		beq	.L155
1206:../../Drivers/STM32L5xx_HAL_Driver/Src/stm32l5xx_hal_rtc_ex.c ****   HAL_StatusTypeDef status;
 2169              		.loc 1 1206 1 is_stmt 0 discriminator 2 view .LVU716
 2170 0008 10B5     		push	{r4, lr}
 2171              	.LCFI12:
 2172              		.cfi_def_cfa_offset 8
 2173              		.cfi_offset 4, -8
 2174              		.cfi_offset 14, -4
 2175 000a 0446     		mov	r4, r0
 2176              		.loc 1 1210 3 is_stmt 1 discriminator 2 view .LVU717
 2177 000c 0123     		movs	r3, #1
 2178 000e 80F82430 		strb	r3, [r0, #36]
 2179              		.loc 1 1210 3 discriminator 2 view .LVU718
1211:../../Drivers/STM32L5xx_HAL_Driver/Src/stm32l5xx_hal_rtc_ex.c **** 
1212:../../Drivers/STM32L5xx_HAL_Driver/Src/stm32l5xx_hal_rtc_ex.c ****   hrtc->State = HAL_RTC_STATE_BUSY;
 2180              		.loc 1 1212 3 discriminator 2 view .LVU719
 2181              		.loc 1 1212 15 is_stmt 0 discriminator 2 view .LVU720
 2182 0012 0223     		movs	r3, #2
 2183 0014 80F82530 		strb	r3, [r0, #37]
1213:../../Drivers/STM32L5xx_HAL_Driver/Src/stm32l5xx_hal_rtc_ex.c **** 
1214:../../Drivers/STM32L5xx_HAL_Driver/Src/stm32l5xx_hal_rtc_ex.c ****   /* Disable the write protection for RTC registers */
1215:../../Drivers/STM32L5xx_HAL_Driver/Src/stm32l5xx_hal_rtc_ex.c ****   __HAL_RTC_WRITEPROTECTION_DISABLE(hrtc);
 2184              		.loc 1 1215 3 is_stmt 1 discriminator 2 view .LVU721
 2185              		.loc 1 1215 3 discriminator 2 view .LVU722
 2186 0018 0E4B     		ldr	r3, .L161
 2187 001a CA22     		movs	r2, #202
 2188 001c 5A62     		str	r2, [r3, #36]
 2189              		.loc 1 1215 3 discriminator 2 view .LVU723
ARM GAS  C:\Users\carlos\AppData\Local\Temp\ccaMGGVT.s 			page 63


 2190 001e 5322     		movs	r2, #83
 2191 0020 5A62     		str	r2, [r3, #36]
 2192              		.loc 1 1215 3 discriminator 2 view .LVU724
1216:../../Drivers/STM32L5xx_HAL_Driver/Src/stm32l5xx_hal_rtc_ex.c **** 
1217:../../Drivers/STM32L5xx_HAL_Driver/Src/stm32l5xx_hal_rtc_ex.c ****   /* Enter Initialization mode */
1218:../../Drivers/STM32L5xx_HAL_Driver/Src/stm32l5xx_hal_rtc_ex.c ****   status = RTC_EnterInitMode(hrtc);
 2193              		.loc 1 1218 3 discriminator 2 view .LVU725
 2194              		.loc 1 1218 12 is_stmt 0 discriminator 2 view .LVU726
 2195 0022 FFF7FEFF 		bl	RTC_EnterInitMode
 2196              	.LVL138:
1219:../../Drivers/STM32L5xx_HAL_Driver/Src/stm32l5xx_hal_rtc_ex.c ****   if (status == HAL_OK)
 2197              		.loc 1 1219 3 is_stmt 1 discriminator 2 view .LVU727
 2198              		.loc 1 1219 6 is_stmt 0 discriminator 2 view .LVU728
 2199 0026 50B1     		cbz	r0, .L160
 2200              	.L153:
1220:../../Drivers/STM32L5xx_HAL_Driver/Src/stm32l5xx_hal_rtc_ex.c ****   {
1221:../../Drivers/STM32L5xx_HAL_Driver/Src/stm32l5xx_hal_rtc_ex.c ****     /* Disable clockref detection */
1222:../../Drivers/STM32L5xx_HAL_Driver/Src/stm32l5xx_hal_rtc_ex.c ****     CLEAR_BIT(RTC->CR, RTC_CR_REFCKON);
1223:../../Drivers/STM32L5xx_HAL_Driver/Src/stm32l5xx_hal_rtc_ex.c **** 
1224:../../Drivers/STM32L5xx_HAL_Driver/Src/stm32l5xx_hal_rtc_ex.c ****     /* Exit Initialization mode */
1225:../../Drivers/STM32L5xx_HAL_Driver/Src/stm32l5xx_hal_rtc_ex.c ****     status = RTC_ExitInitMode(hrtc);
1226:../../Drivers/STM32L5xx_HAL_Driver/Src/stm32l5xx_hal_rtc_ex.c ****   }
1227:../../Drivers/STM32L5xx_HAL_Driver/Src/stm32l5xx_hal_rtc_ex.c **** 
1228:../../Drivers/STM32L5xx_HAL_Driver/Src/stm32l5xx_hal_rtc_ex.c ****   /* Enable the write protection for RTC registers */
1229:../../Drivers/STM32L5xx_HAL_Driver/Src/stm32l5xx_hal_rtc_ex.c ****   __HAL_RTC_WRITEPROTECTION_ENABLE(hrtc);
 2201              		.loc 1 1229 3 is_stmt 1 view .LVU729
 2202              		.loc 1 1229 3 view .LVU730
 2203 0028 0A4B     		ldr	r3, .L161
 2204 002a FF22     		movs	r2, #255
 2205 002c 5A62     		str	r2, [r3, #36]
 2206              		.loc 1 1229 3 view .LVU731
1230:../../Drivers/STM32L5xx_HAL_Driver/Src/stm32l5xx_hal_rtc_ex.c **** 
1231:../../Drivers/STM32L5xx_HAL_Driver/Src/stm32l5xx_hal_rtc_ex.c ****   if (status == HAL_OK)
 2207              		.loc 1 1231 3 view .LVU732
 2208              		.loc 1 1231 6 is_stmt 0 view .LVU733
 2209 002e 10B9     		cbnz	r0, .L154
1232:../../Drivers/STM32L5xx_HAL_Driver/Src/stm32l5xx_hal_rtc_ex.c ****   {
1233:../../Drivers/STM32L5xx_HAL_Driver/Src/stm32l5xx_hal_rtc_ex.c ****     hrtc->State = HAL_RTC_STATE_READY;
 2210              		.loc 1 1233 5 is_stmt 1 view .LVU734
 2211              		.loc 1 1233 17 is_stmt 0 view .LVU735
 2212 0030 0123     		movs	r3, #1
 2213 0032 84F82530 		strb	r3, [r4, #37]
 2214              	.L154:
1234:../../Drivers/STM32L5xx_HAL_Driver/Src/stm32l5xx_hal_rtc_ex.c ****   }
1235:../../Drivers/STM32L5xx_HAL_Driver/Src/stm32l5xx_hal_rtc_ex.c **** 
1236:../../Drivers/STM32L5xx_HAL_Driver/Src/stm32l5xx_hal_rtc_ex.c ****   /* Process Unlocked */
1237:../../Drivers/STM32L5xx_HAL_Driver/Src/stm32l5xx_hal_rtc_ex.c ****   __HAL_UNLOCK(hrtc);
 2215              		.loc 1 1237 3 is_stmt 1 view .LVU736
 2216              		.loc 1 1237 3 view .LVU737
 2217 0036 0023     		movs	r3, #0
 2218 0038 84F82430 		strb	r3, [r4, #36]
 2219              		.loc 1 1237 3 view .LVU738
1238:../../Drivers/STM32L5xx_HAL_Driver/Src/stm32l5xx_hal_rtc_ex.c **** 
1239:../../Drivers/STM32L5xx_HAL_Driver/Src/stm32l5xx_hal_rtc_ex.c ****   return status;
 2220              		.loc 1 1239 3 view .LVU739
1240:../../Drivers/STM32L5xx_HAL_Driver/Src/stm32l5xx_hal_rtc_ex.c **** }
 2221              		.loc 1 1240 1 is_stmt 0 view .LVU740
ARM GAS  C:\Users\carlos\AppData\Local\Temp\ccaMGGVT.s 			page 64


 2222 003c 10BD     		pop	{r4, pc}
 2223              	.LVL139:
 2224              	.L160:
1222:../../Drivers/STM32L5xx_HAL_Driver/Src/stm32l5xx_hal_rtc_ex.c **** 
 2225              		.loc 1 1222 5 is_stmt 1 view .LVU741
 2226 003e 054A     		ldr	r2, .L161
 2227 0040 9369     		ldr	r3, [r2, #24]
 2228 0042 23F01003 		bic	r3, r3, #16
 2229 0046 9361     		str	r3, [r2, #24]
1225:../../Drivers/STM32L5xx_HAL_Driver/Src/stm32l5xx_hal_rtc_ex.c ****   }
 2230              		.loc 1 1225 5 view .LVU742
1225:../../Drivers/STM32L5xx_HAL_Driver/Src/stm32l5xx_hal_rtc_ex.c ****   }
 2231              		.loc 1 1225 14 is_stmt 0 view .LVU743
 2232 0048 2046     		mov	r0, r4
 2233              	.LVL140:
1225:../../Drivers/STM32L5xx_HAL_Driver/Src/stm32l5xx_hal_rtc_ex.c ****   }
 2234              		.loc 1 1225 14 view .LVU744
 2235 004a FFF7FEFF 		bl	RTC_ExitInitMode
 2236              	.LVL141:
1225:../../Drivers/STM32L5xx_HAL_Driver/Src/stm32l5xx_hal_rtc_ex.c ****   }
 2237              		.loc 1 1225 14 view .LVU745
 2238 004e EBE7     		b	.L153
 2239              	.LVL142:
 2240              	.L155:
 2241              	.LCFI13:
 2242              		.cfi_def_cfa_offset 0
 2243              		.cfi_restore 4
 2244              		.cfi_restore 14
1210:../../Drivers/STM32L5xx_HAL_Driver/Src/stm32l5xx_hal_rtc_ex.c **** 
 2245              		.loc 1 1210 3 view .LVU746
 2246 0050 0220     		movs	r0, #2
 2247              	.LVL143:
 2248              		.loc 1 1240 1 view .LVU747
 2249 0052 7047     		bx	lr
 2250              	.L162:
 2251              		.align	2
 2252              	.L161:
 2253 0054 00280050 		.word	1342187520
 2254              		.cfi_endproc
 2255              	.LFE224:
 2257              		.section	.text.HAL_RTCEx_EnableBypassShadow,"ax",%progbits
 2258              		.align	1
 2259              		.global	HAL_RTCEx_EnableBypassShadow
 2260              		.syntax unified
 2261              		.thumb
 2262              		.thumb_func
 2263              		.fpu fpv4-sp-d16
 2265              	HAL_RTCEx_EnableBypassShadow:
 2266              	.LVL144:
 2267              	.LFB225:
1241:../../Drivers/STM32L5xx_HAL_Driver/Src/stm32l5xx_hal_rtc_ex.c **** 
1242:../../Drivers/STM32L5xx_HAL_Driver/Src/stm32l5xx_hal_rtc_ex.c **** /**
1243:../../Drivers/STM32L5xx_HAL_Driver/Src/stm32l5xx_hal_rtc_ex.c ****   * @brief  Enable the Bypass Shadow feature.
1244:../../Drivers/STM32L5xx_HAL_Driver/Src/stm32l5xx_hal_rtc_ex.c ****   * @note   When the Bypass Shadow is enabled the calendar value are taken
1245:../../Drivers/STM32L5xx_HAL_Driver/Src/stm32l5xx_hal_rtc_ex.c ****   *         directly from the Calendar counter.
1246:../../Drivers/STM32L5xx_HAL_Driver/Src/stm32l5xx_hal_rtc_ex.c ****   * @param  hrtc RTC handle
1247:../../Drivers/STM32L5xx_HAL_Driver/Src/stm32l5xx_hal_rtc_ex.c ****   * @retval HAL status
ARM GAS  C:\Users\carlos\AppData\Local\Temp\ccaMGGVT.s 			page 65


1248:../../Drivers/STM32L5xx_HAL_Driver/Src/stm32l5xx_hal_rtc_ex.c ****   */
1249:../../Drivers/STM32L5xx_HAL_Driver/Src/stm32l5xx_hal_rtc_ex.c **** HAL_StatusTypeDef HAL_RTCEx_EnableBypassShadow(RTC_HandleTypeDef *hrtc)
1250:../../Drivers/STM32L5xx_HAL_Driver/Src/stm32l5xx_hal_rtc_ex.c **** {
 2268              		.loc 1 1250 1 is_stmt 1 view -0
 2269              		.cfi_startproc
 2270              		@ args = 0, pretend = 0, frame = 0
 2271              		@ frame_needed = 0, uses_anonymous_args = 0
 2272              		@ link register save eliminated.
1251:../../Drivers/STM32L5xx_HAL_Driver/Src/stm32l5xx_hal_rtc_ex.c ****   /* Process Locked */
1252:../../Drivers/STM32L5xx_HAL_Driver/Src/stm32l5xx_hal_rtc_ex.c ****   __HAL_LOCK(hrtc);
 2273              		.loc 1 1252 3 view .LVU749
 2274              		.loc 1 1252 3 view .LVU750
 2275 0000 90F82430 		ldrb	r3, [r0, #36]	@ zero_extendqisi2
 2276 0004 012B     		cmp	r3, #1
 2277 0006 17D0     		beq	.L165
 2278              		.loc 1 1252 3 discriminator 2 view .LVU751
 2279 0008 0121     		movs	r1, #1
 2280 000a 80F82410 		strb	r1, [r0, #36]
 2281              		.loc 1 1252 3 discriminator 2 view .LVU752
1253:../../Drivers/STM32L5xx_HAL_Driver/Src/stm32l5xx_hal_rtc_ex.c **** 
1254:../../Drivers/STM32L5xx_HAL_Driver/Src/stm32l5xx_hal_rtc_ex.c ****   hrtc->State = HAL_RTC_STATE_BUSY;
 2282              		.loc 1 1254 3 discriminator 2 view .LVU753
 2283              		.loc 1 1254 15 is_stmt 0 discriminator 2 view .LVU754
 2284 000e 0223     		movs	r3, #2
 2285 0010 80F82530 		strb	r3, [r0, #37]
1255:../../Drivers/STM32L5xx_HAL_Driver/Src/stm32l5xx_hal_rtc_ex.c **** 
1256:../../Drivers/STM32L5xx_HAL_Driver/Src/stm32l5xx_hal_rtc_ex.c ****   /* Disable the write protection for RTC registers */
1257:../../Drivers/STM32L5xx_HAL_Driver/Src/stm32l5xx_hal_rtc_ex.c ****   __HAL_RTC_WRITEPROTECTION_DISABLE(hrtc);
 2286              		.loc 1 1257 3 is_stmt 1 discriminator 2 view .LVU755
 2287              		.loc 1 1257 3 discriminator 2 view .LVU756
 2288 0014 094B     		ldr	r3, .L166
 2289 0016 CA22     		movs	r2, #202
 2290 0018 5A62     		str	r2, [r3, #36]
 2291              		.loc 1 1257 3 discriminator 2 view .LVU757
 2292 001a 5322     		movs	r2, #83
 2293 001c 5A62     		str	r2, [r3, #36]
 2294              		.loc 1 1257 3 discriminator 2 view .LVU758
1258:../../Drivers/STM32L5xx_HAL_Driver/Src/stm32l5xx_hal_rtc_ex.c **** 
1259:../../Drivers/STM32L5xx_HAL_Driver/Src/stm32l5xx_hal_rtc_ex.c ****   /* Set the BYPSHAD bit */
1260:../../Drivers/STM32L5xx_HAL_Driver/Src/stm32l5xx_hal_rtc_ex.c ****   SET_BIT(RTC->CR, RTC_CR_BYPSHAD);
 2295              		.loc 1 1260 3 discriminator 2 view .LVU759
 2296 001e 9A69     		ldr	r2, [r3, #24]
 2297 0020 42F02002 		orr	r2, r2, #32
 2298 0024 9A61     		str	r2, [r3, #24]
1261:../../Drivers/STM32L5xx_HAL_Driver/Src/stm32l5xx_hal_rtc_ex.c **** 
1262:../../Drivers/STM32L5xx_HAL_Driver/Src/stm32l5xx_hal_rtc_ex.c ****   /* Enable the write protection for RTC registers */
1263:../../Drivers/STM32L5xx_HAL_Driver/Src/stm32l5xx_hal_rtc_ex.c ****   __HAL_RTC_WRITEPROTECTION_ENABLE(hrtc);
 2299              		.loc 1 1263 3 discriminator 2 view .LVU760
 2300              		.loc 1 1263 3 discriminator 2 view .LVU761
 2301 0026 FF22     		movs	r2, #255
 2302 0028 5A62     		str	r2, [r3, #36]
 2303              		.loc 1 1263 3 discriminator 2 view .LVU762
1264:../../Drivers/STM32L5xx_HAL_Driver/Src/stm32l5xx_hal_rtc_ex.c **** 
1265:../../Drivers/STM32L5xx_HAL_Driver/Src/stm32l5xx_hal_rtc_ex.c ****   /* Change RTC state */
1266:../../Drivers/STM32L5xx_HAL_Driver/Src/stm32l5xx_hal_rtc_ex.c ****   hrtc->State = HAL_RTC_STATE_READY;
 2304              		.loc 1 1266 3 discriminator 2 view .LVU763
 2305              		.loc 1 1266 15 is_stmt 0 discriminator 2 view .LVU764
ARM GAS  C:\Users\carlos\AppData\Local\Temp\ccaMGGVT.s 			page 66


 2306 002a 80F82510 		strb	r1, [r0, #37]
1267:../../Drivers/STM32L5xx_HAL_Driver/Src/stm32l5xx_hal_rtc_ex.c **** 
1268:../../Drivers/STM32L5xx_HAL_Driver/Src/stm32l5xx_hal_rtc_ex.c ****   /* Process Unlocked */
1269:../../Drivers/STM32L5xx_HAL_Driver/Src/stm32l5xx_hal_rtc_ex.c ****   __HAL_UNLOCK(hrtc);
 2307              		.loc 1 1269 3 is_stmt 1 discriminator 2 view .LVU765
 2308              		.loc 1 1269 3 discriminator 2 view .LVU766
 2309 002e 0023     		movs	r3, #0
 2310 0030 80F82430 		strb	r3, [r0, #36]
 2311              		.loc 1 1269 3 discriminator 2 view .LVU767
1270:../../Drivers/STM32L5xx_HAL_Driver/Src/stm32l5xx_hal_rtc_ex.c **** 
1271:../../Drivers/STM32L5xx_HAL_Driver/Src/stm32l5xx_hal_rtc_ex.c ****   return HAL_OK;
 2312              		.loc 1 1271 3 discriminator 2 view .LVU768
 2313              		.loc 1 1271 10 is_stmt 0 discriminator 2 view .LVU769
 2314 0034 1846     		mov	r0, r3
 2315              	.LVL145:
 2316              		.loc 1 1271 10 discriminator 2 view .LVU770
 2317 0036 7047     		bx	lr
 2318              	.LVL146:
 2319              	.L165:
1252:../../Drivers/STM32L5xx_HAL_Driver/Src/stm32l5xx_hal_rtc_ex.c **** 
 2320              		.loc 1 1252 3 view .LVU771
 2321 0038 0220     		movs	r0, #2
 2322              	.LVL147:
1272:../../Drivers/STM32L5xx_HAL_Driver/Src/stm32l5xx_hal_rtc_ex.c **** }
 2323              		.loc 1 1272 1 view .LVU772
 2324 003a 7047     		bx	lr
 2325              	.L167:
 2326              		.align	2
 2327              	.L166:
 2328 003c 00280050 		.word	1342187520
 2329              		.cfi_endproc
 2330              	.LFE225:
 2332              		.section	.text.HAL_RTCEx_DisableBypassShadow,"ax",%progbits
 2333              		.align	1
 2334              		.global	HAL_RTCEx_DisableBypassShadow
 2335              		.syntax unified
 2336              		.thumb
 2337              		.thumb_func
 2338              		.fpu fpv4-sp-d16
 2340              	HAL_RTCEx_DisableBypassShadow:
 2341              	.LVL148:
 2342              	.LFB226:
1273:../../Drivers/STM32L5xx_HAL_Driver/Src/stm32l5xx_hal_rtc_ex.c **** 
1274:../../Drivers/STM32L5xx_HAL_Driver/Src/stm32l5xx_hal_rtc_ex.c **** /**
1275:../../Drivers/STM32L5xx_HAL_Driver/Src/stm32l5xx_hal_rtc_ex.c ****   * @brief  Disable the Bypass Shadow feature.
1276:../../Drivers/STM32L5xx_HAL_Driver/Src/stm32l5xx_hal_rtc_ex.c ****   * @note   When the Bypass Shadow is enabled the calendar value are taken
1277:../../Drivers/STM32L5xx_HAL_Driver/Src/stm32l5xx_hal_rtc_ex.c ****   *         directly from the Calendar counter.
1278:../../Drivers/STM32L5xx_HAL_Driver/Src/stm32l5xx_hal_rtc_ex.c ****   * @param  hrtc RTC handle
1279:../../Drivers/STM32L5xx_HAL_Driver/Src/stm32l5xx_hal_rtc_ex.c ****   * @retval HAL status
1280:../../Drivers/STM32L5xx_HAL_Driver/Src/stm32l5xx_hal_rtc_ex.c ****   */
1281:../../Drivers/STM32L5xx_HAL_Driver/Src/stm32l5xx_hal_rtc_ex.c **** HAL_StatusTypeDef HAL_RTCEx_DisableBypassShadow(RTC_HandleTypeDef *hrtc)
1282:../../Drivers/STM32L5xx_HAL_Driver/Src/stm32l5xx_hal_rtc_ex.c **** {
 2343              		.loc 1 1282 1 is_stmt 1 view -0
 2344              		.cfi_startproc
 2345              		@ args = 0, pretend = 0, frame = 0
 2346              		@ frame_needed = 0, uses_anonymous_args = 0
 2347              		@ link register save eliminated.
ARM GAS  C:\Users\carlos\AppData\Local\Temp\ccaMGGVT.s 			page 67


1283:../../Drivers/STM32L5xx_HAL_Driver/Src/stm32l5xx_hal_rtc_ex.c ****   /* Process Locked */
1284:../../Drivers/STM32L5xx_HAL_Driver/Src/stm32l5xx_hal_rtc_ex.c ****   __HAL_LOCK(hrtc);
 2348              		.loc 1 1284 3 view .LVU774
 2349              		.loc 1 1284 3 view .LVU775
 2350 0000 90F82430 		ldrb	r3, [r0, #36]	@ zero_extendqisi2
 2351 0004 012B     		cmp	r3, #1
 2352 0006 17D0     		beq	.L170
 2353              		.loc 1 1284 3 discriminator 2 view .LVU776
 2354 0008 0121     		movs	r1, #1
 2355 000a 80F82410 		strb	r1, [r0, #36]
 2356              		.loc 1 1284 3 discriminator 2 view .LVU777
1285:../../Drivers/STM32L5xx_HAL_Driver/Src/stm32l5xx_hal_rtc_ex.c **** 
1286:../../Drivers/STM32L5xx_HAL_Driver/Src/stm32l5xx_hal_rtc_ex.c ****   hrtc->State = HAL_RTC_STATE_BUSY;
 2357              		.loc 1 1286 3 discriminator 2 view .LVU778
 2358              		.loc 1 1286 15 is_stmt 0 discriminator 2 view .LVU779
 2359 000e 0223     		movs	r3, #2
 2360 0010 80F82530 		strb	r3, [r0, #37]
1287:../../Drivers/STM32L5xx_HAL_Driver/Src/stm32l5xx_hal_rtc_ex.c **** 
1288:../../Drivers/STM32L5xx_HAL_Driver/Src/stm32l5xx_hal_rtc_ex.c ****   /* Disable the write protection for RTC registers */
1289:../../Drivers/STM32L5xx_HAL_Driver/Src/stm32l5xx_hal_rtc_ex.c ****   __HAL_RTC_WRITEPROTECTION_DISABLE(hrtc);
 2361              		.loc 1 1289 3 is_stmt 1 discriminator 2 view .LVU780
 2362              		.loc 1 1289 3 discriminator 2 view .LVU781
 2363 0014 094B     		ldr	r3, .L171
 2364 0016 CA22     		movs	r2, #202
 2365 0018 5A62     		str	r2, [r3, #36]
 2366              		.loc 1 1289 3 discriminator 2 view .LVU782
 2367 001a 5322     		movs	r2, #83
 2368 001c 5A62     		str	r2, [r3, #36]
 2369              		.loc 1 1289 3 discriminator 2 view .LVU783
1290:../../Drivers/STM32L5xx_HAL_Driver/Src/stm32l5xx_hal_rtc_ex.c **** 
1291:../../Drivers/STM32L5xx_HAL_Driver/Src/stm32l5xx_hal_rtc_ex.c ****   /* Reset the BYPSHAD bit */
1292:../../Drivers/STM32L5xx_HAL_Driver/Src/stm32l5xx_hal_rtc_ex.c ****   CLEAR_BIT(RTC->CR, RTC_CR_BYPSHAD);
 2370              		.loc 1 1292 3 discriminator 2 view .LVU784
 2371 001e 9A69     		ldr	r2, [r3, #24]
 2372 0020 22F02002 		bic	r2, r2, #32
 2373 0024 9A61     		str	r2, [r3, #24]
1293:../../Drivers/STM32L5xx_HAL_Driver/Src/stm32l5xx_hal_rtc_ex.c **** 
1294:../../Drivers/STM32L5xx_HAL_Driver/Src/stm32l5xx_hal_rtc_ex.c ****   /* Enable the write protection for RTC registers */
1295:../../Drivers/STM32L5xx_HAL_Driver/Src/stm32l5xx_hal_rtc_ex.c ****   __HAL_RTC_WRITEPROTECTION_ENABLE(hrtc);
 2374              		.loc 1 1295 3 discriminator 2 view .LVU785
 2375              		.loc 1 1295 3 discriminator 2 view .LVU786
 2376 0026 FF22     		movs	r2, #255
 2377 0028 5A62     		str	r2, [r3, #36]
 2378              		.loc 1 1295 3 discriminator 2 view .LVU787
1296:../../Drivers/STM32L5xx_HAL_Driver/Src/stm32l5xx_hal_rtc_ex.c **** 
1297:../../Drivers/STM32L5xx_HAL_Driver/Src/stm32l5xx_hal_rtc_ex.c ****   /* Change RTC state */
1298:../../Drivers/STM32L5xx_HAL_Driver/Src/stm32l5xx_hal_rtc_ex.c ****   hrtc->State = HAL_RTC_STATE_READY;
 2379              		.loc 1 1298 3 discriminator 2 view .LVU788
 2380              		.loc 1 1298 15 is_stmt 0 discriminator 2 view .LVU789
 2381 002a 80F82510 		strb	r1, [r0, #37]
1299:../../Drivers/STM32L5xx_HAL_Driver/Src/stm32l5xx_hal_rtc_ex.c **** 
1300:../../Drivers/STM32L5xx_HAL_Driver/Src/stm32l5xx_hal_rtc_ex.c ****   /* Process Unlocked */
1301:../../Drivers/STM32L5xx_HAL_Driver/Src/stm32l5xx_hal_rtc_ex.c ****   __HAL_UNLOCK(hrtc);
 2382              		.loc 1 1301 3 is_stmt 1 discriminator 2 view .LVU790
 2383              		.loc 1 1301 3 discriminator 2 view .LVU791
 2384 002e 0023     		movs	r3, #0
 2385 0030 80F82430 		strb	r3, [r0, #36]
ARM GAS  C:\Users\carlos\AppData\Local\Temp\ccaMGGVT.s 			page 68


 2386              		.loc 1 1301 3 discriminator 2 view .LVU792
1302:../../Drivers/STM32L5xx_HAL_Driver/Src/stm32l5xx_hal_rtc_ex.c **** 
1303:../../Drivers/STM32L5xx_HAL_Driver/Src/stm32l5xx_hal_rtc_ex.c ****   return HAL_OK;
 2387              		.loc 1 1303 3 discriminator 2 view .LVU793
 2388              		.loc 1 1303 10 is_stmt 0 discriminator 2 view .LVU794
 2389 0034 1846     		mov	r0, r3
 2390              	.LVL149:
 2391              		.loc 1 1303 10 discriminator 2 view .LVU795
 2392 0036 7047     		bx	lr
 2393              	.LVL150:
 2394              	.L170:
1284:../../Drivers/STM32L5xx_HAL_Driver/Src/stm32l5xx_hal_rtc_ex.c **** 
 2395              		.loc 1 1284 3 view .LVU796
 2396 0038 0220     		movs	r0, #2
 2397              	.LVL151:
1304:../../Drivers/STM32L5xx_HAL_Driver/Src/stm32l5xx_hal_rtc_ex.c **** }
 2398              		.loc 1 1304 1 view .LVU797
 2399 003a 7047     		bx	lr
 2400              	.L172:
 2401              		.align	2
 2402              	.L171:
 2403 003c 00280050 		.word	1342187520
 2404              		.cfi_endproc
 2405              	.LFE226:
 2407              		.section	.text.HAL_RTCEx_MonotonicCounterIncrement,"ax",%progbits
 2408              		.align	1
 2409              		.global	HAL_RTCEx_MonotonicCounterIncrement
 2410              		.syntax unified
 2411              		.thumb
 2412              		.thumb_func
 2413              		.fpu fpv4-sp-d16
 2415              	HAL_RTCEx_MonotonicCounterIncrement:
 2416              	.LVL152:
 2417              	.LFB227:
1305:../../Drivers/STM32L5xx_HAL_Driver/Src/stm32l5xx_hal_rtc_ex.c **** 
1306:../../Drivers/STM32L5xx_HAL_Driver/Src/stm32l5xx_hal_rtc_ex.c **** /**
1307:../../Drivers/STM32L5xx_HAL_Driver/Src/stm32l5xx_hal_rtc_ex.c ****   * @brief  Increment Monotonic counter.
1308:../../Drivers/STM32L5xx_HAL_Driver/Src/stm32l5xx_hal_rtc_ex.c ****   * @param  hrtc RTC handle
1309:../../Drivers/STM32L5xx_HAL_Driver/Src/stm32l5xx_hal_rtc_ex.c ****   * @param  Instance  Monotonic counter Instance
1310:../../Drivers/STM32L5xx_HAL_Driver/Src/stm32l5xx_hal_rtc_ex.c ****   *         This parameter can be can be one of the following values :
1311:../../Drivers/STM32L5xx_HAL_Driver/Src/stm32l5xx_hal_rtc_ex.c ****   *           @arg RTC_MONOTONIC_COUNTER_1
1312:../../Drivers/STM32L5xx_HAL_Driver/Src/stm32l5xx_hal_rtc_ex.c ****   * @retval HAL status
1313:../../Drivers/STM32L5xx_HAL_Driver/Src/stm32l5xx_hal_rtc_ex.c ****   */
1314:../../Drivers/STM32L5xx_HAL_Driver/Src/stm32l5xx_hal_rtc_ex.c **** HAL_StatusTypeDef HAL_RTCEx_MonotonicCounterIncrement(RTC_HandleTypeDef *hrtc, uint32_t Instance)
1315:../../Drivers/STM32L5xx_HAL_Driver/Src/stm32l5xx_hal_rtc_ex.c **** {
 2418              		.loc 1 1315 1 is_stmt 1 view -0
 2419              		.cfi_startproc
 2420              		@ args = 0, pretend = 0, frame = 0
 2421              		@ frame_needed = 0, uses_anonymous_args = 0
 2422              		@ link register save eliminated.
1316:../../Drivers/STM32L5xx_HAL_Driver/Src/stm32l5xx_hal_rtc_ex.c ****   UNUSED(hrtc);
 2423              		.loc 1 1316 3 view .LVU799
1317:../../Drivers/STM32L5xx_HAL_Driver/Src/stm32l5xx_hal_rtc_ex.c ****   UNUSED(Instance);
 2424              		.loc 1 1317 3 view .LVU800
1318:../../Drivers/STM32L5xx_HAL_Driver/Src/stm32l5xx_hal_rtc_ex.c ****   /* This register is read-only only and is incremented by one when a write access is done to this
1319:../../Drivers/STM32L5xx_HAL_Driver/Src/stm32l5xx_hal_rtc_ex.c ****      register. This register cannot roll-over and is frozen when reaching the maximum value. */
1320:../../Drivers/STM32L5xx_HAL_Driver/Src/stm32l5xx_hal_rtc_ex.c ****   CLEAR_REG(TAMP->COUNTR);
ARM GAS  C:\Users\carlos\AppData\Local\Temp\ccaMGGVT.s 			page 69


 2425              		.loc 1 1320 3 view .LVU801
 2426 0000 0020     		movs	r0, #0
 2427              	.LVL153:
 2428              		.loc 1 1320 3 is_stmt 0 view .LVU802
 2429 0002 014B     		ldr	r3, .L174
 2430 0004 1864     		str	r0, [r3, #64]
1321:../../Drivers/STM32L5xx_HAL_Driver/Src/stm32l5xx_hal_rtc_ex.c **** 
1322:../../Drivers/STM32L5xx_HAL_Driver/Src/stm32l5xx_hal_rtc_ex.c ****   return HAL_OK;
 2431              		.loc 1 1322 3 is_stmt 1 view .LVU803
1323:../../Drivers/STM32L5xx_HAL_Driver/Src/stm32l5xx_hal_rtc_ex.c **** }
 2432              		.loc 1 1323 1 is_stmt 0 view .LVU804
 2433 0006 7047     		bx	lr
 2434              	.L175:
 2435              		.align	2
 2436              	.L174:
 2437 0008 00340050 		.word	1342190592
 2438              		.cfi_endproc
 2439              	.LFE227:
 2441              		.section	.text.HAL_RTCEx_MonotonicCounterGet,"ax",%progbits
 2442              		.align	1
 2443              		.global	HAL_RTCEx_MonotonicCounterGet
 2444              		.syntax unified
 2445              		.thumb
 2446              		.thumb_func
 2447              		.fpu fpv4-sp-d16
 2449              	HAL_RTCEx_MonotonicCounterGet:
 2450              	.LVL154:
 2451              	.LFB228:
1324:../../Drivers/STM32L5xx_HAL_Driver/Src/stm32l5xx_hal_rtc_ex.c **** 
1325:../../Drivers/STM32L5xx_HAL_Driver/Src/stm32l5xx_hal_rtc_ex.c **** /**
1326:../../Drivers/STM32L5xx_HAL_Driver/Src/stm32l5xx_hal_rtc_ex.c ****   * @brief  Monotonic counter incrementation.
1327:../../Drivers/STM32L5xx_HAL_Driver/Src/stm32l5xx_hal_rtc_ex.c ****   * @param  hrtc RTC handle
1328:../../Drivers/STM32L5xx_HAL_Driver/Src/stm32l5xx_hal_rtc_ex.c ****   * @param  Instance  Monotonic counter Instance
1329:../../Drivers/STM32L5xx_HAL_Driver/Src/stm32l5xx_hal_rtc_ex.c ****   *         This parameter can be can be one of the following values :
1330:../../Drivers/STM32L5xx_HAL_Driver/Src/stm32l5xx_hal_rtc_ex.c ****   *           @arg RTC_MONOTONIC_COUNTER_1
1331:../../Drivers/STM32L5xx_HAL_Driver/Src/stm32l5xx_hal_rtc_ex.c ****   * @param  Value Pointer to the counter monotonic counter value
1332:../../Drivers/STM32L5xx_HAL_Driver/Src/stm32l5xx_hal_rtc_ex.c ****   * @retval HAL status
1333:../../Drivers/STM32L5xx_HAL_Driver/Src/stm32l5xx_hal_rtc_ex.c ****   */
1334:../../Drivers/STM32L5xx_HAL_Driver/Src/stm32l5xx_hal_rtc_ex.c **** HAL_StatusTypeDef HAL_RTCEx_MonotonicCounterGet(RTC_HandleTypeDef *hrtc, uint32_t Instance, uint32_
1335:../../Drivers/STM32L5xx_HAL_Driver/Src/stm32l5xx_hal_rtc_ex.c **** {
 2452              		.loc 1 1335 1 is_stmt 1 view -0
 2453              		.cfi_startproc
 2454              		@ args = 0, pretend = 0, frame = 0
 2455              		@ frame_needed = 0, uses_anonymous_args = 0
 2456              		@ link register save eliminated.
1336:../../Drivers/STM32L5xx_HAL_Driver/Src/stm32l5xx_hal_rtc_ex.c ****   UNUSED(hrtc);
 2457              		.loc 1 1336 3 view .LVU806
1337:../../Drivers/STM32L5xx_HAL_Driver/Src/stm32l5xx_hal_rtc_ex.c ****   UNUSED(Instance);
 2458              		.loc 1 1337 3 view .LVU807
1338:../../Drivers/STM32L5xx_HAL_Driver/Src/stm32l5xx_hal_rtc_ex.c **** 
1339:../../Drivers/STM32L5xx_HAL_Driver/Src/stm32l5xx_hal_rtc_ex.c ****   /* This register is read-only only and is incremented by one when a write access is done to this
1340:../../Drivers/STM32L5xx_HAL_Driver/Src/stm32l5xx_hal_rtc_ex.c ****      register. This register cannot roll-over and is frozen when reaching the maximum value. */
1341:../../Drivers/STM32L5xx_HAL_Driver/Src/stm32l5xx_hal_rtc_ex.c ****   *Value = READ_REG(TAMP->COUNTR);
 2459              		.loc 1 1341 3 view .LVU808
 2460              		.loc 1 1341 12 is_stmt 0 view .LVU809
 2461 0000 024B     		ldr	r3, .L177
 2462 0002 1B6C     		ldr	r3, [r3, #64]
ARM GAS  C:\Users\carlos\AppData\Local\Temp\ccaMGGVT.s 			page 70


 2463              		.loc 1 1341 10 view .LVU810
 2464 0004 1360     		str	r3, [r2]
1342:../../Drivers/STM32L5xx_HAL_Driver/Src/stm32l5xx_hal_rtc_ex.c **** 
1343:../../Drivers/STM32L5xx_HAL_Driver/Src/stm32l5xx_hal_rtc_ex.c ****   return HAL_OK;
 2465              		.loc 1 1343 3 is_stmt 1 view .LVU811
1344:../../Drivers/STM32L5xx_HAL_Driver/Src/stm32l5xx_hal_rtc_ex.c **** }
 2466              		.loc 1 1344 1 is_stmt 0 view .LVU812
 2467 0006 0020     		movs	r0, #0
 2468              	.LVL155:
 2469              		.loc 1 1344 1 view .LVU813
 2470 0008 7047     		bx	lr
 2471              	.L178:
 2472 000a 00BF     		.align	2
 2473              	.L177:
 2474 000c 00340050 		.word	1342190592
 2475              		.cfi_endproc
 2476              	.LFE228:
 2478              		.section	.text.HAL_RTCEx_AlarmBEventCallback,"ax",%progbits
 2479              		.align	1
 2480              		.weak	HAL_RTCEx_AlarmBEventCallback
 2481              		.syntax unified
 2482              		.thumb
 2483              		.thumb_func
 2484              		.fpu fpv4-sp-d16
 2486              	HAL_RTCEx_AlarmBEventCallback:
 2487              	.LVL156:
 2488              	.LFB229:
1345:../../Drivers/STM32L5xx_HAL_Driver/Src/stm32l5xx_hal_rtc_ex.c **** 
1346:../../Drivers/STM32L5xx_HAL_Driver/Src/stm32l5xx_hal_rtc_ex.c **** /**
1347:../../Drivers/STM32L5xx_HAL_Driver/Src/stm32l5xx_hal_rtc_ex.c ****   * @}
1348:../../Drivers/STM32L5xx_HAL_Driver/Src/stm32l5xx_hal_rtc_ex.c ****   */
1349:../../Drivers/STM32L5xx_HAL_Driver/Src/stm32l5xx_hal_rtc_ex.c **** 
1350:../../Drivers/STM32L5xx_HAL_Driver/Src/stm32l5xx_hal_rtc_ex.c **** /** @addtogroup RTCEx_Exported_Functions_Group4
1351:../../Drivers/STM32L5xx_HAL_Driver/Src/stm32l5xx_hal_rtc_ex.c ****   * @brief    Extended features functions
1352:../../Drivers/STM32L5xx_HAL_Driver/Src/stm32l5xx_hal_rtc_ex.c ****   *
1353:../../Drivers/STM32L5xx_HAL_Driver/Src/stm32l5xx_hal_rtc_ex.c **** @verbatim
1354:../../Drivers/STM32L5xx_HAL_Driver/Src/stm32l5xx_hal_rtc_ex.c ****  ===============================================================================
1355:../../Drivers/STM32L5xx_HAL_Driver/Src/stm32l5xx_hal_rtc_ex.c ****                  ##### Extended features functions #####
1356:../../Drivers/STM32L5xx_HAL_Driver/Src/stm32l5xx_hal_rtc_ex.c ****  ===============================================================================
1357:../../Drivers/STM32L5xx_HAL_Driver/Src/stm32l5xx_hal_rtc_ex.c ****     [..]  This section provides functions allowing to:
1358:../../Drivers/STM32L5xx_HAL_Driver/Src/stm32l5xx_hal_rtc_ex.c ****       (+) RTC Alarm B callback
1359:../../Drivers/STM32L5xx_HAL_Driver/Src/stm32l5xx_hal_rtc_ex.c ****       (+) RTC Poll for Alarm B request
1360:../../Drivers/STM32L5xx_HAL_Driver/Src/stm32l5xx_hal_rtc_ex.c **** 
1361:../../Drivers/STM32L5xx_HAL_Driver/Src/stm32l5xx_hal_rtc_ex.c **** @endverbatim
1362:../../Drivers/STM32L5xx_HAL_Driver/Src/stm32l5xx_hal_rtc_ex.c ****   * @{
1363:../../Drivers/STM32L5xx_HAL_Driver/Src/stm32l5xx_hal_rtc_ex.c ****   */
1364:../../Drivers/STM32L5xx_HAL_Driver/Src/stm32l5xx_hal_rtc_ex.c **** 
1365:../../Drivers/STM32L5xx_HAL_Driver/Src/stm32l5xx_hal_rtc_ex.c **** /**
1366:../../Drivers/STM32L5xx_HAL_Driver/Src/stm32l5xx_hal_rtc_ex.c ****   * @brief  Alarm B callback.
1367:../../Drivers/STM32L5xx_HAL_Driver/Src/stm32l5xx_hal_rtc_ex.c ****   * @param  hrtc RTC handle
1368:../../Drivers/STM32L5xx_HAL_Driver/Src/stm32l5xx_hal_rtc_ex.c ****   * @retval None
1369:../../Drivers/STM32L5xx_HAL_Driver/Src/stm32l5xx_hal_rtc_ex.c ****   */
1370:../../Drivers/STM32L5xx_HAL_Driver/Src/stm32l5xx_hal_rtc_ex.c **** __weak void HAL_RTCEx_AlarmBEventCallback(RTC_HandleTypeDef *hrtc)
1371:../../Drivers/STM32L5xx_HAL_Driver/Src/stm32l5xx_hal_rtc_ex.c **** {
 2489              		.loc 1 1371 1 is_stmt 1 view -0
 2490              		.cfi_startproc
 2491              		@ args = 0, pretend = 0, frame = 0
ARM GAS  C:\Users\carlos\AppData\Local\Temp\ccaMGGVT.s 			page 71


 2492              		@ frame_needed = 0, uses_anonymous_args = 0
 2493              		@ link register save eliminated.
1372:../../Drivers/STM32L5xx_HAL_Driver/Src/stm32l5xx_hal_rtc_ex.c ****   /* Prevent unused argument(s) compilation warning */
1373:../../Drivers/STM32L5xx_HAL_Driver/Src/stm32l5xx_hal_rtc_ex.c ****   UNUSED(hrtc);
 2494              		.loc 1 1373 3 view .LVU815
1374:../../Drivers/STM32L5xx_HAL_Driver/Src/stm32l5xx_hal_rtc_ex.c **** 
1375:../../Drivers/STM32L5xx_HAL_Driver/Src/stm32l5xx_hal_rtc_ex.c ****   /* NOTE : This function should not be modified, when the callback is needed,
1376:../../Drivers/STM32L5xx_HAL_Driver/Src/stm32l5xx_hal_rtc_ex.c ****             the HAL_RTCEx_AlarmBEventCallback could be implemented in the user file
1377:../../Drivers/STM32L5xx_HAL_Driver/Src/stm32l5xx_hal_rtc_ex.c ****    */
1378:../../Drivers/STM32L5xx_HAL_Driver/Src/stm32l5xx_hal_rtc_ex.c **** }
 2495              		.loc 1 1378 1 is_stmt 0 view .LVU816
 2496 0000 7047     		bx	lr
 2497              		.cfi_endproc
 2498              	.LFE229:
 2500              		.section	.text.HAL_RTCEx_PollForAlarmBEvent,"ax",%progbits
 2501              		.align	1
 2502              		.global	HAL_RTCEx_PollForAlarmBEvent
 2503              		.syntax unified
 2504              		.thumb
 2505              		.thumb_func
 2506              		.fpu fpv4-sp-d16
 2508              	HAL_RTCEx_PollForAlarmBEvent:
 2509              	.LVL157:
 2510              	.LFB230:
1379:../../Drivers/STM32L5xx_HAL_Driver/Src/stm32l5xx_hal_rtc_ex.c **** 
1380:../../Drivers/STM32L5xx_HAL_Driver/Src/stm32l5xx_hal_rtc_ex.c **** /**
1381:../../Drivers/STM32L5xx_HAL_Driver/Src/stm32l5xx_hal_rtc_ex.c ****   * @brief  Handle Alarm B Polling request.
1382:../../Drivers/STM32L5xx_HAL_Driver/Src/stm32l5xx_hal_rtc_ex.c ****   * @param  hrtc RTC handle
1383:../../Drivers/STM32L5xx_HAL_Driver/Src/stm32l5xx_hal_rtc_ex.c ****   * @param  Timeout Timeout duration
1384:../../Drivers/STM32L5xx_HAL_Driver/Src/stm32l5xx_hal_rtc_ex.c ****   * @retval HAL status
1385:../../Drivers/STM32L5xx_HAL_Driver/Src/stm32l5xx_hal_rtc_ex.c ****   */
1386:../../Drivers/STM32L5xx_HAL_Driver/Src/stm32l5xx_hal_rtc_ex.c **** HAL_StatusTypeDef HAL_RTCEx_PollForAlarmBEvent(RTC_HandleTypeDef *hrtc, uint32_t Timeout)
1387:../../Drivers/STM32L5xx_HAL_Driver/Src/stm32l5xx_hal_rtc_ex.c **** {
 2511              		.loc 1 1387 1 is_stmt 1 view -0
 2512              		.cfi_startproc
 2513              		@ args = 0, pretend = 0, frame = 0
 2514              		@ frame_needed = 0, uses_anonymous_args = 0
 2515              		.loc 1 1387 1 is_stmt 0 view .LVU818
 2516 0000 70B5     		push	{r4, r5, r6, lr}
 2517              	.LCFI14:
 2518              		.cfi_def_cfa_offset 16
 2519              		.cfi_offset 4, -16
 2520              		.cfi_offset 5, -12
 2521              		.cfi_offset 6, -8
 2522              		.cfi_offset 14, -4
 2523 0002 0546     		mov	r5, r0
 2524 0004 0C46     		mov	r4, r1
1388:../../Drivers/STM32L5xx_HAL_Driver/Src/stm32l5xx_hal_rtc_ex.c ****   uint32_t tickstart = HAL_GetTick();
 2525              		.loc 1 1388 3 is_stmt 1 view .LVU819
 2526              		.loc 1 1388 24 is_stmt 0 view .LVU820
 2527 0006 FFF7FEFF 		bl	HAL_GetTick
 2528              	.LVL158:
 2529              		.loc 1 1388 24 view .LVU821
 2530 000a 0646     		mov	r6, r0
 2531              	.LVL159:
1389:../../Drivers/STM32L5xx_HAL_Driver/Src/stm32l5xx_hal_rtc_ex.c **** 
1390:../../Drivers/STM32L5xx_HAL_Driver/Src/stm32l5xx_hal_rtc_ex.c ****   while (READ_BIT(RTC->SR, RTC_SR_ALRBF) == 0U)
ARM GAS  C:\Users\carlos\AppData\Local\Temp\ccaMGGVT.s 			page 72


 2532              		.loc 1 1390 3 is_stmt 1 view .LVU822
 2533              	.L182:
 2534              		.loc 1 1390 9 view .LVU823
 2535              		.loc 1 1390 10 is_stmt 0 view .LVU824
 2536 000c 0D4B     		ldr	r3, .L188
 2537 000e 1B6D     		ldr	r3, [r3, #80]
 2538              		.loc 1 1390 9 view .LVU825
 2539 0010 13F0020F 		tst	r3, #2
 2540 0014 0DD1     		bne	.L187
1391:../../Drivers/STM32L5xx_HAL_Driver/Src/stm32l5xx_hal_rtc_ex.c ****   {
1392:../../Drivers/STM32L5xx_HAL_Driver/Src/stm32l5xx_hal_rtc_ex.c ****     if (Timeout != HAL_MAX_DELAY)
 2541              		.loc 1 1392 5 is_stmt 1 view .LVU826
 2542              		.loc 1 1392 8 is_stmt 0 view .LVU827
 2543 0016 B4F1FF3F 		cmp	r4, #-1
 2544 001a F7D0     		beq	.L182
1393:../../Drivers/STM32L5xx_HAL_Driver/Src/stm32l5xx_hal_rtc_ex.c ****     {
1394:../../Drivers/STM32L5xx_HAL_Driver/Src/stm32l5xx_hal_rtc_ex.c ****       if (((HAL_GetTick() - tickstart) > Timeout) || (Timeout == 0U))
 2545              		.loc 1 1394 7 is_stmt 1 view .LVU828
 2546              		.loc 1 1394 13 is_stmt 0 view .LVU829
 2547 001c FFF7FEFF 		bl	HAL_GetTick
 2548              	.LVL160:
 2549              		.loc 1 1394 27 view .LVU830
 2550 0020 801B     		subs	r0, r0, r6
 2551              		.loc 1 1394 10 view .LVU831
 2552 0022 A042     		cmp	r0, r4
 2553 0024 01D8     		bhi	.L183
 2554              		.loc 1 1394 51 discriminator 1 view .LVU832
 2555 0026 002C     		cmp	r4, #0
 2556 0028 F0D1     		bne	.L182
 2557              	.L183:
1395:../../Drivers/STM32L5xx_HAL_Driver/Src/stm32l5xx_hal_rtc_ex.c ****       {
1396:../../Drivers/STM32L5xx_HAL_Driver/Src/stm32l5xx_hal_rtc_ex.c ****         hrtc->State = HAL_RTC_STATE_TIMEOUT;
 2558              		.loc 1 1396 9 is_stmt 1 view .LVU833
 2559              		.loc 1 1396 21 is_stmt 0 view .LVU834
 2560 002a 0320     		movs	r0, #3
 2561 002c 85F82500 		strb	r0, [r5, #37]
1397:../../Drivers/STM32L5xx_HAL_Driver/Src/stm32l5xx_hal_rtc_ex.c ****         return HAL_TIMEOUT;
 2562              		.loc 1 1397 9 is_stmt 1 view .LVU835
 2563              		.loc 1 1397 16 is_stmt 0 view .LVU836
 2564 0030 06E0     		b	.L184
 2565              	.L187:
1398:../../Drivers/STM32L5xx_HAL_Driver/Src/stm32l5xx_hal_rtc_ex.c ****       }
1399:../../Drivers/STM32L5xx_HAL_Driver/Src/stm32l5xx_hal_rtc_ex.c ****     }
1400:../../Drivers/STM32L5xx_HAL_Driver/Src/stm32l5xx_hal_rtc_ex.c ****   }
1401:../../Drivers/STM32L5xx_HAL_Driver/Src/stm32l5xx_hal_rtc_ex.c **** 
1402:../../Drivers/STM32L5xx_HAL_Driver/Src/stm32l5xx_hal_rtc_ex.c ****   /* Clear the Alarm Flag */
1403:../../Drivers/STM32L5xx_HAL_Driver/Src/stm32l5xx_hal_rtc_ex.c ****   WRITE_REG(RTC->SCR, RTC_SCR_CALRBF);
 2566              		.loc 1 1403 3 is_stmt 1 view .LVU837
 2567 0032 044B     		ldr	r3, .L188
 2568 0034 0222     		movs	r2, #2
 2569 0036 DA65     		str	r2, [r3, #92]
1404:../../Drivers/STM32L5xx_HAL_Driver/Src/stm32l5xx_hal_rtc_ex.c **** 
1405:../../Drivers/STM32L5xx_HAL_Driver/Src/stm32l5xx_hal_rtc_ex.c ****   /* Change RTC state */
1406:../../Drivers/STM32L5xx_HAL_Driver/Src/stm32l5xx_hal_rtc_ex.c ****   hrtc->State = HAL_RTC_STATE_READY;
 2570              		.loc 1 1406 3 view .LVU838
 2571              		.loc 1 1406 15 is_stmt 0 view .LVU839
 2572 0038 0123     		movs	r3, #1
ARM GAS  C:\Users\carlos\AppData\Local\Temp\ccaMGGVT.s 			page 73


 2573 003a 85F82530 		strb	r3, [r5, #37]
1407:../../Drivers/STM32L5xx_HAL_Driver/Src/stm32l5xx_hal_rtc_ex.c **** 
1408:../../Drivers/STM32L5xx_HAL_Driver/Src/stm32l5xx_hal_rtc_ex.c ****   return HAL_OK;
 2574              		.loc 1 1408 3 is_stmt 1 view .LVU840
 2575              		.loc 1 1408 10 is_stmt 0 view .LVU841
 2576 003e 0020     		movs	r0, #0
 2577              	.L184:
1409:../../Drivers/STM32L5xx_HAL_Driver/Src/stm32l5xx_hal_rtc_ex.c **** }
 2578              		.loc 1 1409 1 view .LVU842
 2579 0040 70BD     		pop	{r4, r5, r6, pc}
 2580              	.LVL161:
 2581              	.L189:
 2582              		.loc 1 1409 1 view .LVU843
 2583 0042 00BF     		.align	2
 2584              	.L188:
 2585 0044 00280050 		.word	1342187520
 2586              		.cfi_endproc
 2587              	.LFE230:
 2589              		.section	.text.HAL_RTCEx_SetTamper,"ax",%progbits
 2590              		.align	1
 2591              		.global	HAL_RTCEx_SetTamper
 2592              		.syntax unified
 2593              		.thumb
 2594              		.thumb_func
 2595              		.fpu fpv4-sp-d16
 2597              	HAL_RTCEx_SetTamper:
 2598              	.LVL162:
 2599              	.LFB231:
1410:../../Drivers/STM32L5xx_HAL_Driver/Src/stm32l5xx_hal_rtc_ex.c **** 
1411:../../Drivers/STM32L5xx_HAL_Driver/Src/stm32l5xx_hal_rtc_ex.c **** /**
1412:../../Drivers/STM32L5xx_HAL_Driver/Src/stm32l5xx_hal_rtc_ex.c ****   * @}
1413:../../Drivers/STM32L5xx_HAL_Driver/Src/stm32l5xx_hal_rtc_ex.c ****   */
1414:../../Drivers/STM32L5xx_HAL_Driver/Src/stm32l5xx_hal_rtc_ex.c **** 
1415:../../Drivers/STM32L5xx_HAL_Driver/Src/stm32l5xx_hal_rtc_ex.c **** /** @addtogroup RTCEx_Exported_Functions_Group5
1416:../../Drivers/STM32L5xx_HAL_Driver/Src/stm32l5xx_hal_rtc_ex.c ****   * @brief      Extended RTC Tamper functions
1417:../../Drivers/STM32L5xx_HAL_Driver/Src/stm32l5xx_hal_rtc_ex.c ****   *
1418:../../Drivers/STM32L5xx_HAL_Driver/Src/stm32l5xx_hal_rtc_ex.c **** @verbatim
1419:../../Drivers/STM32L5xx_HAL_Driver/Src/stm32l5xx_hal_rtc_ex.c ****   ==============================================================================
1420:../../Drivers/STM32L5xx_HAL_Driver/Src/stm32l5xx_hal_rtc_ex.c ****                          ##### Tamper functions #####
1421:../../Drivers/STM32L5xx_HAL_Driver/Src/stm32l5xx_hal_rtc_ex.c ****   ==============================================================================
1422:../../Drivers/STM32L5xx_HAL_Driver/Src/stm32l5xx_hal_rtc_ex.c ****   [..]
1423:../../Drivers/STM32L5xx_HAL_Driver/Src/stm32l5xx_hal_rtc_ex.c ****    (+) Before calling any tamper or internal tamper function, you have to call first
1424:../../Drivers/STM32L5xx_HAL_Driver/Src/stm32l5xx_hal_rtc_ex.c ****        HAL_RTC_Init() function.
1425:../../Drivers/STM32L5xx_HAL_Driver/Src/stm32l5xx_hal_rtc_ex.c ****    (+) In that ine you can select to output tamper event on RTC pin.
1426:../../Drivers/STM32L5xx_HAL_Driver/Src/stm32l5xx_hal_rtc_ex.c ****   [..]
1427:../../Drivers/STM32L5xx_HAL_Driver/Src/stm32l5xx_hal_rtc_ex.c ****    (+) Enable the Tamper and configure the Tamper filter count, trigger Edge
1428:../../Drivers/STM32L5xx_HAL_Driver/Src/stm32l5xx_hal_rtc_ex.c ****        or Level according to the Tamper filter (if equal to 0 Edge else Level)
1429:../../Drivers/STM32L5xx_HAL_Driver/Src/stm32l5xx_hal_rtc_ex.c ****        value, sampling frequency, NoErase, MaskFlag, precharge or discharge and
1430:../../Drivers/STM32L5xx_HAL_Driver/Src/stm32l5xx_hal_rtc_ex.c ****        Pull-UP, timestamp using the HAL_RTCEx_SetTamper() function.
1431:../../Drivers/STM32L5xx_HAL_Driver/Src/stm32l5xx_hal_rtc_ex.c ****        You can configure Tamper with interrupt mode using HAL_RTCEx_SetTamper_IT() function.
1432:../../Drivers/STM32L5xx_HAL_Driver/Src/stm32l5xx_hal_rtc_ex.c ****    (+) The default configuration of the Tamper erases the backup registers. To avoid
1433:../../Drivers/STM32L5xx_HAL_Driver/Src/stm32l5xx_hal_rtc_ex.c ****        erase, enable the NoErase field on the TAMP_TAMPCR register.
1434:../../Drivers/STM32L5xx_HAL_Driver/Src/stm32l5xx_hal_rtc_ex.c ****   [..]
1435:../../Drivers/STM32L5xx_HAL_Driver/Src/stm32l5xx_hal_rtc_ex.c ****    (+) Enable Internal Tamper and configure it with interrupt, timestamp using
1436:../../Drivers/STM32L5xx_HAL_Driver/Src/stm32l5xx_hal_rtc_ex.c ****        the HAL_RTCEx_SetInternalTamper() function.
1437:../../Drivers/STM32L5xx_HAL_Driver/Src/stm32l5xx_hal_rtc_ex.c **** 
1438:../../Drivers/STM32L5xx_HAL_Driver/Src/stm32l5xx_hal_rtc_ex.c **** @endverbatim
ARM GAS  C:\Users\carlos\AppData\Local\Temp\ccaMGGVT.s 			page 74


1439:../../Drivers/STM32L5xx_HAL_Driver/Src/stm32l5xx_hal_rtc_ex.c ****   * @{
1440:../../Drivers/STM32L5xx_HAL_Driver/Src/stm32l5xx_hal_rtc_ex.c ****   */
1441:../../Drivers/STM32L5xx_HAL_Driver/Src/stm32l5xx_hal_rtc_ex.c **** 
1442:../../Drivers/STM32L5xx_HAL_Driver/Src/stm32l5xx_hal_rtc_ex.c **** 
1443:../../Drivers/STM32L5xx_HAL_Driver/Src/stm32l5xx_hal_rtc_ex.c **** /**
1444:../../Drivers/STM32L5xx_HAL_Driver/Src/stm32l5xx_hal_rtc_ex.c ****   * @brief  Set Tamper
1445:../../Drivers/STM32L5xx_HAL_Driver/Src/stm32l5xx_hal_rtc_ex.c ****   * @param  hrtc RTC handle
1446:../../Drivers/STM32L5xx_HAL_Driver/Src/stm32l5xx_hal_rtc_ex.c ****   * @param  sTamper Pointer to Tamper Structure.
1447:../../Drivers/STM32L5xx_HAL_Driver/Src/stm32l5xx_hal_rtc_ex.c ****   * @retval HAL status
1448:../../Drivers/STM32L5xx_HAL_Driver/Src/stm32l5xx_hal_rtc_ex.c ****   */
1449:../../Drivers/STM32L5xx_HAL_Driver/Src/stm32l5xx_hal_rtc_ex.c **** HAL_StatusTypeDef HAL_RTCEx_SetTamper(RTC_HandleTypeDef *hrtc, RTC_TamperTypeDef *sTamper)
1450:../../Drivers/STM32L5xx_HAL_Driver/Src/stm32l5xx_hal_rtc_ex.c **** {
 2600              		.loc 1 1450 1 is_stmt 1 view -0
 2601              		.cfi_startproc
 2602              		@ args = 0, pretend = 0, frame = 0
 2603              		@ frame_needed = 0, uses_anonymous_args = 0
 2604              		.loc 1 1450 1 is_stmt 0 view .LVU845
 2605 0000 00B5     		push	{lr}
 2606              	.LCFI15:
 2607              		.cfi_def_cfa_offset 4
 2608              		.cfi_offset 14, -4
1451:../../Drivers/STM32L5xx_HAL_Driver/Src/stm32l5xx_hal_rtc_ex.c ****   uint32_t tmpreg;
 2609              		.loc 1 1451 3 is_stmt 1 view .LVU846
1452:../../Drivers/STM32L5xx_HAL_Driver/Src/stm32l5xx_hal_rtc_ex.c **** 
1453:../../Drivers/STM32L5xx_HAL_Driver/Src/stm32l5xx_hal_rtc_ex.c ****   /* Prevent unused argument(s) compilation warning */
1454:../../Drivers/STM32L5xx_HAL_Driver/Src/stm32l5xx_hal_rtc_ex.c ****   UNUSED(hrtc);
 2610              		.loc 1 1454 3 view .LVU847
1455:../../Drivers/STM32L5xx_HAL_Driver/Src/stm32l5xx_hal_rtc_ex.c **** 
1456:../../Drivers/STM32L5xx_HAL_Driver/Src/stm32l5xx_hal_rtc_ex.c ****   /* Check the parameters */
1457:../../Drivers/STM32L5xx_HAL_Driver/Src/stm32l5xx_hal_rtc_ex.c ****   assert_param(IS_RTC_TAMPER(sTamper->Tamper));
 2611              		.loc 1 1457 3 view .LVU848
1458:../../Drivers/STM32L5xx_HAL_Driver/Src/stm32l5xx_hal_rtc_ex.c ****   assert_param(IS_RTC_TAMPER_TRIGGER(sTamper->Trigger));
 2612              		.loc 1 1458 3 view .LVU849
1459:../../Drivers/STM32L5xx_HAL_Driver/Src/stm32l5xx_hal_rtc_ex.c ****   assert_param(IS_RTC_TAMPER_ERASE_MODE(sTamper->NoErase));
 2613              		.loc 1 1459 3 view .LVU850
1460:../../Drivers/STM32L5xx_HAL_Driver/Src/stm32l5xx_hal_rtc_ex.c ****   assert_param(IS_RTC_TAMPER_MASKFLAG_STATE(sTamper->MaskFlag));
 2614              		.loc 1 1460 3 view .LVU851
1461:../../Drivers/STM32L5xx_HAL_Driver/Src/stm32l5xx_hal_rtc_ex.c ****   assert_param(IS_RTC_TAMPER_TIMESTAMPONTAMPER_DETECTION(sTamper->TimeStampOnTamperDetection));
 2615              		.loc 1 1461 3 view .LVU852
1462:../../Drivers/STM32L5xx_HAL_Driver/Src/stm32l5xx_hal_rtc_ex.c ****   /* Mask flag only supported by TAMPER 1, 2 and 3 */
1463:../../Drivers/STM32L5xx_HAL_Driver/Src/stm32l5xx_hal_rtc_ex.c ****   assert_param(!((sTamper->MaskFlag != RTC_TAMPERMASK_FLAG_DISABLE) && (sTamper->Tamper > RTC_TAMPE
 2616              		.loc 1 1463 3 view .LVU853
1464:../../Drivers/STM32L5xx_HAL_Driver/Src/stm32l5xx_hal_rtc_ex.c ****   assert_param(IS_RTC_TAMPER_FILTER(sTamper->Filter));
 2617              		.loc 1 1464 3 view .LVU854
1465:../../Drivers/STM32L5xx_HAL_Driver/Src/stm32l5xx_hal_rtc_ex.c ****   assert_param(IS_RTC_TAMPER_SAMPLING_FREQ(sTamper->SamplingFrequency));
 2618              		.loc 1 1465 3 view .LVU855
1466:../../Drivers/STM32L5xx_HAL_Driver/Src/stm32l5xx_hal_rtc_ex.c ****   assert_param(IS_RTC_TAMPER_PRECHARGE_DURATION(sTamper->PrechargeDuration));
 2619              		.loc 1 1466 3 view .LVU856
1467:../../Drivers/STM32L5xx_HAL_Driver/Src/stm32l5xx_hal_rtc_ex.c ****   assert_param(IS_RTC_TAMPER_PULLUP_STATE(sTamper->TamperPullUp));
 2620              		.loc 1 1467 3 view .LVU857
1468:../../Drivers/STM32L5xx_HAL_Driver/Src/stm32l5xx_hal_rtc_ex.c ****   /* Trigger and Filter have exclusive configurations */
1469:../../Drivers/STM32L5xx_HAL_Driver/Src/stm32l5xx_hal_rtc_ex.c ****   assert_param(((sTamper->Filter != RTC_TAMPERFILTER_DISABLE) && ((sTamper->Trigger == RTC_TAMPERTR
 2621              		.loc 1 1469 3 view .LVU858
1470:../../Drivers/STM32L5xx_HAL_Driver/Src/stm32l5xx_hal_rtc_ex.c ****                || ((sTamper->Filter == RTC_TAMPERFILTER_DISABLE) && ((sTamper->Trigger == RTC_TAMPE
1471:../../Drivers/STM32L5xx_HAL_Driver/Src/stm32l5xx_hal_rtc_ex.c **** 
1472:../../Drivers/STM32L5xx_HAL_Driver/Src/stm32l5xx_hal_rtc_ex.c ****   /* Configuration register 2 */
1473:../../Drivers/STM32L5xx_HAL_Driver/Src/stm32l5xx_hal_rtc_ex.c ****   tmpreg = READ_REG(TAMP->CR2);
ARM GAS  C:\Users\carlos\AppData\Local\Temp\ccaMGGVT.s 			page 75


 2622              		.loc 1 1473 3 view .LVU859
 2623              		.loc 1 1473 10 is_stmt 0 view .LVU860
 2624 0002 204B     		ldr	r3, .L197
 2625 0004 5B68     		ldr	r3, [r3, #4]
 2626              	.LVL163:
1474:../../Drivers/STM32L5xx_HAL_Driver/Src/stm32l5xx_hal_rtc_ex.c ****   tmpreg &= ~((sTamper->Tamper << TAMP_CR2_TAMP1TRG_Pos) | (sTamper->Tamper << TAMP_CR2_TAMP1MSK_Po
 2627              		.loc 1 1474 3 is_stmt 1 view .LVU861
 2628              		.loc 1 1474 23 is_stmt 0 view .LVU862
 2629 0006 0A68     		ldr	r2, [r1]
 2630              		.loc 1 1474 32 view .LVU863
 2631 0008 4FEA026E 		lsl	lr, r2, #24
 2632              		.loc 1 1474 77 view .LVU864
 2633 000c 4FEA024C 		lsl	ip, r2, #16
 2634              		.loc 1 1474 58 view .LVU865
 2635 0010 4CEA0260 		orr	r0, ip, r2, lsl #24
 2636              	.LVL164:
 2637              		.loc 1 1474 103 view .LVU866
 2638 0014 1043     		orrs	r0, r0, r2
 2639              		.loc 1 1474 10 view .LVU867
 2640 0016 23EA0003 		bic	r3, r3, r0
 2641              	.LVL165:
1475:../../Drivers/STM32L5xx_HAL_Driver/Src/stm32l5xx_hal_rtc_ex.c **** 
1476:../../Drivers/STM32L5xx_HAL_Driver/Src/stm32l5xx_hal_rtc_ex.c ****   if ((sTamper->Trigger == RTC_TAMPERTRIGGER_HIGHLEVEL) || (sTamper->Trigger == RTC_TAMPERTRIGGER_F
 2642              		.loc 1 1476 3 is_stmt 1 view .LVU868
 2643              		.loc 1 1476 15 is_stmt 0 view .LVU869
 2644 001a 4868     		ldr	r0, [r1, #4]
 2645              		.loc 1 1476 6 view .LVU870
 2646 001c 0328     		cmp	r0, #3
 2647 001e 01D0     		beq	.L191
 2648              		.loc 1 1476 57 discriminator 1 view .LVU871
 2649 0020 0128     		cmp	r0, #1
 2650 0022 01D1     		bne	.L192
 2651              	.L191:
1477:../../Drivers/STM32L5xx_HAL_Driver/Src/stm32l5xx_hal_rtc_ex.c ****   {
1478:../../Drivers/STM32L5xx_HAL_Driver/Src/stm32l5xx_hal_rtc_ex.c ****     tmpreg |= (sTamper->Tamper << TAMP_CR2_TAMP1TRG_Pos);
 2652              		.loc 1 1478 5 is_stmt 1 view .LVU872
 2653              		.loc 1 1478 12 is_stmt 0 view .LVU873
 2654 0024 43EA0E03 		orr	r3, r3, lr
 2655              	.LVL166:
 2656              	.L192:
1479:../../Drivers/STM32L5xx_HAL_Driver/Src/stm32l5xx_hal_rtc_ex.c ****   }
1480:../../Drivers/STM32L5xx_HAL_Driver/Src/stm32l5xx_hal_rtc_ex.c **** 
1481:../../Drivers/STM32L5xx_HAL_Driver/Src/stm32l5xx_hal_rtc_ex.c ****   if (sTamper->MaskFlag != RTC_TAMPERMASK_FLAG_DISABLE)
 2657              		.loc 1 1481 3 is_stmt 1 view .LVU874
 2658              		.loc 1 1481 14 is_stmt 0 view .LVU875
 2659 0028 C868     		ldr	r0, [r1, #12]
 2660              		.loc 1 1481 6 view .LVU876
 2661 002a 08B1     		cbz	r0, .L193
1482:../../Drivers/STM32L5xx_HAL_Driver/Src/stm32l5xx_hal_rtc_ex.c ****   {
1483:../../Drivers/STM32L5xx_HAL_Driver/Src/stm32l5xx_hal_rtc_ex.c ****     tmpreg |= (sTamper->Tamper << TAMP_CR2_TAMP1MSK_Pos);
 2662              		.loc 1 1483 5 is_stmt 1 view .LVU877
 2663              		.loc 1 1483 12 is_stmt 0 view .LVU878
 2664 002c 43EA0C03 		orr	r3, r3, ip
 2665              	.LVL167:
 2666              	.L193:
1484:../../Drivers/STM32L5xx_HAL_Driver/Src/stm32l5xx_hal_rtc_ex.c ****   }
1485:../../Drivers/STM32L5xx_HAL_Driver/Src/stm32l5xx_hal_rtc_ex.c **** 
ARM GAS  C:\Users\carlos\AppData\Local\Temp\ccaMGGVT.s 			page 76


1486:../../Drivers/STM32L5xx_HAL_Driver/Src/stm32l5xx_hal_rtc_ex.c ****   if (sTamper->NoErase != RTC_TAMPER_ERASE_BACKUP_ENABLE)
 2667              		.loc 1 1486 3 is_stmt 1 view .LVU879
 2668              		.loc 1 1486 14 is_stmt 0 view .LVU880
 2669 0030 8868     		ldr	r0, [r1, #8]
 2670              		.loc 1 1486 6 view .LVU881
 2671 0032 00B1     		cbz	r0, .L194
1487:../../Drivers/STM32L5xx_HAL_Driver/Src/stm32l5xx_hal_rtc_ex.c ****   {
1488:../../Drivers/STM32L5xx_HAL_Driver/Src/stm32l5xx_hal_rtc_ex.c ****     tmpreg |= (sTamper->Tamper << TAMP_CR2_TAMP1NOERASE_Pos);
 2672              		.loc 1 1488 5 is_stmt 1 view .LVU882
 2673              		.loc 1 1488 12 is_stmt 0 view .LVU883
 2674 0034 1343     		orrs	r3, r3, r2
 2675              	.LVL168:
 2676              	.L194:
1489:../../Drivers/STM32L5xx_HAL_Driver/Src/stm32l5xx_hal_rtc_ex.c ****   }
1490:../../Drivers/STM32L5xx_HAL_Driver/Src/stm32l5xx_hal_rtc_ex.c ****   WRITE_REG(TAMP->CR2, tmpreg);
 2677              		.loc 1 1490 3 is_stmt 1 view .LVU884
 2678 0036 134A     		ldr	r2, .L197
 2679 0038 5360     		str	r3, [r2, #4]
1491:../../Drivers/STM32L5xx_HAL_Driver/Src/stm32l5xx_hal_rtc_ex.c **** 
1492:../../Drivers/STM32L5xx_HAL_Driver/Src/stm32l5xx_hal_rtc_ex.c ****   /* Filter control register */
1493:../../Drivers/STM32L5xx_HAL_Driver/Src/stm32l5xx_hal_rtc_ex.c ****   WRITE_REG(TAMP->FLTCR, sTamper->Filter | sTamper->SamplingFrequency | sTamper->PrechargeDuration 
 2680              		.loc 1 1493 3 view .LVU885
 2681 003a 0B69     		ldr	r3, [r1, #16]
 2682              	.LVL169:
 2683              		.loc 1 1493 3 is_stmt 0 view .LVU886
 2684 003c 4869     		ldr	r0, [r1, #20]
 2685 003e 0343     		orrs	r3, r3, r0
 2686 0040 8869     		ldr	r0, [r1, #24]
 2687 0042 0343     		orrs	r3, r3, r0
 2688 0044 C869     		ldr	r0, [r1, #28]
 2689 0046 0343     		orrs	r3, r3, r0
 2690 0048 D360     		str	r3, [r2, #12]
 2691              	.LVL170:
1494:../../Drivers/STM32L5xx_HAL_Driver/Src/stm32l5xx_hal_rtc_ex.c **** 
1495:../../Drivers/STM32L5xx_HAL_Driver/Src/stm32l5xx_hal_rtc_ex.c ****   /* Timestamp on tamper */
1496:../../Drivers/STM32L5xx_HAL_Driver/Src/stm32l5xx_hal_rtc_ex.c ****   if (READ_BIT(RTC->CR, RTC_CR_TAMPTS) != sTamper->TimeStampOnTamperDetection)
 2692              		.loc 1 1496 3 is_stmt 1 view .LVU887
 2693              		.loc 1 1496 7 is_stmt 0 view .LVU888
 2694 004a 0F4B     		ldr	r3, .L197+4
 2695 004c 9B69     		ldr	r3, [r3, #24]
 2696 004e 03F00073 		and	r3, r3, #33554432
 2697              		.loc 1 1496 50 view .LVU889
 2698 0052 0A6A     		ldr	r2, [r1, #32]
 2699              		.loc 1 1496 6 view .LVU890
 2700 0054 9342     		cmp	r3, r2
 2701 0056 0CD0     		beq	.L195
1497:../../Drivers/STM32L5xx_HAL_Driver/Src/stm32l5xx_hal_rtc_ex.c ****   {
1498:../../Drivers/STM32L5xx_HAL_Driver/Src/stm32l5xx_hal_rtc_ex.c ****     __HAL_RTC_WRITEPROTECTION_DISABLE(hrtc);
 2702              		.loc 1 1498 5 is_stmt 1 view .LVU891
 2703              		.loc 1 1498 5 view .LVU892
 2704 0058 0B4B     		ldr	r3, .L197+4
 2705 005a CA22     		movs	r2, #202
 2706 005c 5A62     		str	r2, [r3, #36]
 2707              		.loc 1 1498 5 view .LVU893
 2708 005e 5322     		movs	r2, #83
 2709 0060 5A62     		str	r2, [r3, #36]
 2710              		.loc 1 1498 5 view .LVU894
ARM GAS  C:\Users\carlos\AppData\Local\Temp\ccaMGGVT.s 			page 77


1499:../../Drivers/STM32L5xx_HAL_Driver/Src/stm32l5xx_hal_rtc_ex.c ****     MODIFY_REG(RTC->CR, RTC_CR_TAMPTS, sTamper->TimeStampOnTamperDetection);
 2711              		.loc 1 1499 5 view .LVU895
 2712 0062 9A69     		ldr	r2, [r3, #24]
 2713 0064 22F00072 		bic	r2, r2, #33554432
 2714 0068 086A     		ldr	r0, [r1, #32]
 2715 006a 0243     		orrs	r2, r2, r0
 2716 006c 9A61     		str	r2, [r3, #24]
1500:../../Drivers/STM32L5xx_HAL_Driver/Src/stm32l5xx_hal_rtc_ex.c ****     __HAL_RTC_WRITEPROTECTION_ENABLE(hrtc);
 2717              		.loc 1 1500 5 view .LVU896
 2718              		.loc 1 1500 5 view .LVU897
 2719 006e FF22     		movs	r2, #255
 2720 0070 5A62     		str	r2, [r3, #36]
 2721              	.L195:
 2722              		.loc 1 1500 5 discriminator 1 view .LVU898
1501:../../Drivers/STM32L5xx_HAL_Driver/Src/stm32l5xx_hal_rtc_ex.c ****   }
1502:../../Drivers/STM32L5xx_HAL_Driver/Src/stm32l5xx_hal_rtc_ex.c **** 
1503:../../Drivers/STM32L5xx_HAL_Driver/Src/stm32l5xx_hal_rtc_ex.c ****   /* Control register 1 */
1504:../../Drivers/STM32L5xx_HAL_Driver/Src/stm32l5xx_hal_rtc_ex.c ****   SET_BIT(TAMP->CR1, sTamper->Tamper);
 2723              		.loc 1 1504 3 discriminator 1 view .LVU899
 2724 0072 044A     		ldr	r2, .L197
 2725 0074 1368     		ldr	r3, [r2]
 2726 0076 0968     		ldr	r1, [r1]
 2727              	.LVL171:
 2728              		.loc 1 1504 3 is_stmt 0 discriminator 1 view .LVU900
 2729 0078 0B43     		orrs	r3, r3, r1
 2730 007a 1360     		str	r3, [r2]
1505:../../Drivers/STM32L5xx_HAL_Driver/Src/stm32l5xx_hal_rtc_ex.c **** 
1506:../../Drivers/STM32L5xx_HAL_Driver/Src/stm32l5xx_hal_rtc_ex.c ****   return HAL_OK;
 2731              		.loc 1 1506 3 is_stmt 1 discriminator 1 view .LVU901
1507:../../Drivers/STM32L5xx_HAL_Driver/Src/stm32l5xx_hal_rtc_ex.c **** }
 2732              		.loc 1 1507 1 is_stmt 0 discriminator 1 view .LVU902
 2733 007c 0020     		movs	r0, #0
 2734 007e 5DF804FB 		ldr	pc, [sp], #4
 2735              	.L198:
 2736 0082 00BF     		.align	2
 2737              	.L197:
 2738 0084 00340050 		.word	1342190592
 2739 0088 00280050 		.word	1342187520
 2740              		.cfi_endproc
 2741              	.LFE231:
 2743              		.section	.text.HAL_RTCEx_SetTamper_IT,"ax",%progbits
 2744              		.align	1
 2745              		.global	HAL_RTCEx_SetTamper_IT
 2746              		.syntax unified
 2747              		.thumb
 2748              		.thumb_func
 2749              		.fpu fpv4-sp-d16
 2751              	HAL_RTCEx_SetTamper_IT:
 2752              	.LVL172:
 2753              	.LFB232:
1508:../../Drivers/STM32L5xx_HAL_Driver/Src/stm32l5xx_hal_rtc_ex.c **** 
1509:../../Drivers/STM32L5xx_HAL_Driver/Src/stm32l5xx_hal_rtc_ex.c **** 
1510:../../Drivers/STM32L5xx_HAL_Driver/Src/stm32l5xx_hal_rtc_ex.c **** /**
1511:../../Drivers/STM32L5xx_HAL_Driver/Src/stm32l5xx_hal_rtc_ex.c ****   * @brief  Set Tamper in IT mode
1512:../../Drivers/STM32L5xx_HAL_Driver/Src/stm32l5xx_hal_rtc_ex.c ****   * @param  hrtc RTC handle
1513:../../Drivers/STM32L5xx_HAL_Driver/Src/stm32l5xx_hal_rtc_ex.c ****   * @param  sTamper Pointer to Tamper Structure.
1514:../../Drivers/STM32L5xx_HAL_Driver/Src/stm32l5xx_hal_rtc_ex.c ****   * @retval HAL status
ARM GAS  C:\Users\carlos\AppData\Local\Temp\ccaMGGVT.s 			page 78


1515:../../Drivers/STM32L5xx_HAL_Driver/Src/stm32l5xx_hal_rtc_ex.c ****   */
1516:../../Drivers/STM32L5xx_HAL_Driver/Src/stm32l5xx_hal_rtc_ex.c **** HAL_StatusTypeDef HAL_RTCEx_SetTamper_IT(RTC_HandleTypeDef *hrtc, RTC_TamperTypeDef *sTamper)
1517:../../Drivers/STM32L5xx_HAL_Driver/Src/stm32l5xx_hal_rtc_ex.c **** {
 2754              		.loc 1 1517 1 is_stmt 1 view -0
 2755              		.cfi_startproc
 2756              		@ args = 0, pretend = 0, frame = 0
 2757              		@ frame_needed = 0, uses_anonymous_args = 0
 2758              		@ link register save eliminated.
1518:../../Drivers/STM32L5xx_HAL_Driver/Src/stm32l5xx_hal_rtc_ex.c ****   uint32_t tmpreg;
 2759              		.loc 1 1518 3 view .LVU904
1519:../../Drivers/STM32L5xx_HAL_Driver/Src/stm32l5xx_hal_rtc_ex.c **** 
1520:../../Drivers/STM32L5xx_HAL_Driver/Src/stm32l5xx_hal_rtc_ex.c ****   /* Prevent unused argument(s) compilation warning */
1521:../../Drivers/STM32L5xx_HAL_Driver/Src/stm32l5xx_hal_rtc_ex.c ****   UNUSED(hrtc);
 2760              		.loc 1 1521 3 view .LVU905
1522:../../Drivers/STM32L5xx_HAL_Driver/Src/stm32l5xx_hal_rtc_ex.c **** 
1523:../../Drivers/STM32L5xx_HAL_Driver/Src/stm32l5xx_hal_rtc_ex.c ****   /* Check the parameters */
1524:../../Drivers/STM32L5xx_HAL_Driver/Src/stm32l5xx_hal_rtc_ex.c ****   assert_param(IS_RTC_TAMPER(sTamper->Tamper));
 2761              		.loc 1 1524 3 view .LVU906
1525:../../Drivers/STM32L5xx_HAL_Driver/Src/stm32l5xx_hal_rtc_ex.c ****   assert_param(IS_RTC_TAMPER_TRIGGER(sTamper->Trigger));
 2762              		.loc 1 1525 3 view .LVU907
1526:../../Drivers/STM32L5xx_HAL_Driver/Src/stm32l5xx_hal_rtc_ex.c ****   assert_param(IS_RTC_TAMPER_ERASE_MODE(sTamper->NoErase));
 2763              		.loc 1 1526 3 view .LVU908
1527:../../Drivers/STM32L5xx_HAL_Driver/Src/stm32l5xx_hal_rtc_ex.c ****   assert_param(IS_RTC_TAMPER_TIMESTAMPONTAMPER_DETECTION(sTamper->TimeStampOnTamperDetection));
 2764              		.loc 1 1527 3 view .LVU909
1528:../../Drivers/STM32L5xx_HAL_Driver/Src/stm32l5xx_hal_rtc_ex.c ****   /* The interrupt must not be enabled when TAMPxMSK is set. */
1529:../../Drivers/STM32L5xx_HAL_Driver/Src/stm32l5xx_hal_rtc_ex.c ****   assert_param(sTamper->MaskFlag == RTC_TAMPERMASK_FLAG_DISABLE);
 2765              		.loc 1 1529 3 view .LVU910
1530:../../Drivers/STM32L5xx_HAL_Driver/Src/stm32l5xx_hal_rtc_ex.c ****   assert_param(IS_RTC_TAMPER_FILTER(sTamper->Filter));
 2766              		.loc 1 1530 3 view .LVU911
1531:../../Drivers/STM32L5xx_HAL_Driver/Src/stm32l5xx_hal_rtc_ex.c ****   assert_param(IS_RTC_TAMPER_SAMPLING_FREQ(sTamper->SamplingFrequency));
 2767              		.loc 1 1531 3 view .LVU912
1532:../../Drivers/STM32L5xx_HAL_Driver/Src/stm32l5xx_hal_rtc_ex.c ****   assert_param(IS_RTC_TAMPER_PRECHARGE_DURATION(sTamper->PrechargeDuration));
 2768              		.loc 1 1532 3 view .LVU913
1533:../../Drivers/STM32L5xx_HAL_Driver/Src/stm32l5xx_hal_rtc_ex.c ****   assert_param(IS_RTC_TAMPER_PULLUP_STATE(sTamper->TamperPullUp));
 2769              		.loc 1 1533 3 view .LVU914
1534:../../Drivers/STM32L5xx_HAL_Driver/Src/stm32l5xx_hal_rtc_ex.c ****   /* Trigger and Filter have exclusive configurations */
1535:../../Drivers/STM32L5xx_HAL_Driver/Src/stm32l5xx_hal_rtc_ex.c ****   assert_param(((sTamper->Filter != RTC_TAMPERFILTER_DISABLE) && ((sTamper->Trigger == RTC_TAMPERTR
 2770              		.loc 1 1535 3 view .LVU915
1536:../../Drivers/STM32L5xx_HAL_Driver/Src/stm32l5xx_hal_rtc_ex.c ****                || ((sTamper->Filter == RTC_TAMPERFILTER_DISABLE) && ((sTamper->Trigger == RTC_TAMPE
1537:../../Drivers/STM32L5xx_HAL_Driver/Src/stm32l5xx_hal_rtc_ex.c **** 
1538:../../Drivers/STM32L5xx_HAL_Driver/Src/stm32l5xx_hal_rtc_ex.c ****   /* Configuration register 2 */
1539:../../Drivers/STM32L5xx_HAL_Driver/Src/stm32l5xx_hal_rtc_ex.c ****   tmpreg = READ_REG(TAMP->CR2);
 2771              		.loc 1 1539 3 view .LVU916
 2772              		.loc 1 1539 10 is_stmt 0 view .LVU917
 2773 0000 224B     		ldr	r3, .L204
 2774 0002 5B68     		ldr	r3, [r3, #4]
 2775              	.LVL173:
1540:../../Drivers/STM32L5xx_HAL_Driver/Src/stm32l5xx_hal_rtc_ex.c ****   tmpreg &= ~((sTamper->Tamper << TAMP_CR2_TAMP1TRG_Pos) | (sTamper->Tamper << TAMP_CR2_TAMP1MSK_Po
 2776              		.loc 1 1540 3 is_stmt 1 view .LVU918
 2777              		.loc 1 1540 23 is_stmt 0 view .LVU919
 2778 0004 0868     		ldr	r0, [r1]
 2779              	.LVL174:
 2780              		.loc 1 1540 32 view .LVU920
 2781 0006 4FEA006C 		lsl	ip, r0, #24
 2782              		.loc 1 1540 77 view .LVU921
 2783 000a 0204     		lsls	r2, r0, #16
 2784              		.loc 1 1540 58 view .LVU922
ARM GAS  C:\Users\carlos\AppData\Local\Temp\ccaMGGVT.s 			page 79


 2785 000c 42EA0062 		orr	r2, r2, r0, lsl #24
 2786              		.loc 1 1540 103 view .LVU923
 2787 0010 0243     		orrs	r2, r2, r0
 2788              		.loc 1 1540 10 view .LVU924
 2789 0012 23EA0203 		bic	r3, r3, r2
 2790              	.LVL175:
1541:../../Drivers/STM32L5xx_HAL_Driver/Src/stm32l5xx_hal_rtc_ex.c **** 
1542:../../Drivers/STM32L5xx_HAL_Driver/Src/stm32l5xx_hal_rtc_ex.c ****   if ((sTamper->Trigger == RTC_TAMPERTRIGGER_HIGHLEVEL) || (sTamper->Trigger == RTC_TAMPERTRIGGER_F
 2791              		.loc 1 1542 3 is_stmt 1 view .LVU925
 2792              		.loc 1 1542 15 is_stmt 0 view .LVU926
 2793 0016 4A68     		ldr	r2, [r1, #4]
 2794              		.loc 1 1542 6 view .LVU927
 2795 0018 032A     		cmp	r2, #3
 2796 001a 01D0     		beq	.L200
 2797              		.loc 1 1542 57 discriminator 1 view .LVU928
 2798 001c 012A     		cmp	r2, #1
 2799 001e 01D1     		bne	.L201
 2800              	.L200:
1543:../../Drivers/STM32L5xx_HAL_Driver/Src/stm32l5xx_hal_rtc_ex.c ****   {
1544:../../Drivers/STM32L5xx_HAL_Driver/Src/stm32l5xx_hal_rtc_ex.c ****     tmpreg |= (sTamper->Tamper << TAMP_CR2_TAMP1TRG_Pos);
 2801              		.loc 1 1544 5 is_stmt 1 view .LVU929
 2802              		.loc 1 1544 12 is_stmt 0 view .LVU930
 2803 0020 43EA0C03 		orr	r3, r3, ip
 2804              	.LVL176:
 2805              	.L201:
1545:../../Drivers/STM32L5xx_HAL_Driver/Src/stm32l5xx_hal_rtc_ex.c ****   }
1546:../../Drivers/STM32L5xx_HAL_Driver/Src/stm32l5xx_hal_rtc_ex.c **** 
1547:../../Drivers/STM32L5xx_HAL_Driver/Src/stm32l5xx_hal_rtc_ex.c ****   if (sTamper->NoErase != RTC_TAMPER_ERASE_BACKUP_ENABLE)
 2806              		.loc 1 1547 3 is_stmt 1 view .LVU931
 2807              		.loc 1 1547 14 is_stmt 0 view .LVU932
 2808 0024 8A68     		ldr	r2, [r1, #8]
 2809              		.loc 1 1547 6 view .LVU933
 2810 0026 02B1     		cbz	r2, .L202
1548:../../Drivers/STM32L5xx_HAL_Driver/Src/stm32l5xx_hal_rtc_ex.c ****   {
1549:../../Drivers/STM32L5xx_HAL_Driver/Src/stm32l5xx_hal_rtc_ex.c ****     tmpreg |= (sTamper->Tamper << TAMP_CR2_TAMP1NOERASE_Pos);
 2811              		.loc 1 1549 5 is_stmt 1 view .LVU934
 2812              		.loc 1 1549 12 is_stmt 0 view .LVU935
 2813 0028 0343     		orrs	r3, r3, r0
 2814              	.LVL177:
 2815              	.L202:
1550:../../Drivers/STM32L5xx_HAL_Driver/Src/stm32l5xx_hal_rtc_ex.c ****   }
1551:../../Drivers/STM32L5xx_HAL_Driver/Src/stm32l5xx_hal_rtc_ex.c ****   WRITE_REG(TAMP->CR2, tmpreg);
 2816              		.loc 1 1551 3 is_stmt 1 view .LVU936
 2817 002a 184A     		ldr	r2, .L204
 2818 002c 5360     		str	r3, [r2, #4]
1552:../../Drivers/STM32L5xx_HAL_Driver/Src/stm32l5xx_hal_rtc_ex.c **** 
1553:../../Drivers/STM32L5xx_HAL_Driver/Src/stm32l5xx_hal_rtc_ex.c ****   /* Filter control register */
1554:../../Drivers/STM32L5xx_HAL_Driver/Src/stm32l5xx_hal_rtc_ex.c ****   WRITE_REG(TAMP->FLTCR, sTamper->Filter | sTamper->SamplingFrequency | sTamper->PrechargeDuration 
 2819              		.loc 1 1554 3 view .LVU937
 2820 002e 0B69     		ldr	r3, [r1, #16]
 2821              	.LVL178:
 2822              		.loc 1 1554 3 is_stmt 0 view .LVU938
 2823 0030 4869     		ldr	r0, [r1, #20]
 2824 0032 0343     		orrs	r3, r3, r0
 2825 0034 8869     		ldr	r0, [r1, #24]
 2826 0036 0343     		orrs	r3, r3, r0
 2827 0038 C869     		ldr	r0, [r1, #28]
ARM GAS  C:\Users\carlos\AppData\Local\Temp\ccaMGGVT.s 			page 80


 2828 003a 0343     		orrs	r3, r3, r0
 2829 003c D360     		str	r3, [r2, #12]
 2830              	.LVL179:
1555:../../Drivers/STM32L5xx_HAL_Driver/Src/stm32l5xx_hal_rtc_ex.c **** 
1556:../../Drivers/STM32L5xx_HAL_Driver/Src/stm32l5xx_hal_rtc_ex.c ****   /* Timestamp on tamper */
1557:../../Drivers/STM32L5xx_HAL_Driver/Src/stm32l5xx_hal_rtc_ex.c ****   if (READ_BIT(RTC->CR, RTC_CR_TAMPTS) != sTamper->TimeStampOnTamperDetection)
 2831              		.loc 1 1557 3 is_stmt 1 view .LVU939
 2832              		.loc 1 1557 7 is_stmt 0 view .LVU940
 2833 003e 144B     		ldr	r3, .L204+4
 2834 0040 9B69     		ldr	r3, [r3, #24]
 2835 0042 03F00073 		and	r3, r3, #33554432
 2836              		.loc 1 1557 50 view .LVU941
 2837 0046 0A6A     		ldr	r2, [r1, #32]
 2838              		.loc 1 1557 6 view .LVU942
 2839 0048 9342     		cmp	r3, r2
 2840 004a 0CD0     		beq	.L203
1558:../../Drivers/STM32L5xx_HAL_Driver/Src/stm32l5xx_hal_rtc_ex.c ****   {
1559:../../Drivers/STM32L5xx_HAL_Driver/Src/stm32l5xx_hal_rtc_ex.c ****     __HAL_RTC_WRITEPROTECTION_DISABLE(hrtc);
 2841              		.loc 1 1559 5 is_stmt 1 view .LVU943
 2842              		.loc 1 1559 5 view .LVU944
 2843 004c 104B     		ldr	r3, .L204+4
 2844 004e CA22     		movs	r2, #202
 2845 0050 5A62     		str	r2, [r3, #36]
 2846              		.loc 1 1559 5 view .LVU945
 2847 0052 5322     		movs	r2, #83
 2848 0054 5A62     		str	r2, [r3, #36]
 2849              		.loc 1 1559 5 view .LVU946
1560:../../Drivers/STM32L5xx_HAL_Driver/Src/stm32l5xx_hal_rtc_ex.c ****     MODIFY_REG(RTC->CR, RTC_CR_TAMPTS, sTamper->TimeStampOnTamperDetection);
 2850              		.loc 1 1560 5 view .LVU947
 2851 0056 9A69     		ldr	r2, [r3, #24]
 2852 0058 22F00072 		bic	r2, r2, #33554432
 2853 005c 086A     		ldr	r0, [r1, #32]
 2854 005e 0243     		orrs	r2, r2, r0
 2855 0060 9A61     		str	r2, [r3, #24]
1561:../../Drivers/STM32L5xx_HAL_Driver/Src/stm32l5xx_hal_rtc_ex.c ****     __HAL_RTC_WRITEPROTECTION_ENABLE(hrtc);
 2856              		.loc 1 1561 5 view .LVU948
 2857              		.loc 1 1561 5 view .LVU949
 2858 0062 FF22     		movs	r2, #255
 2859 0064 5A62     		str	r2, [r3, #36]
 2860              	.L203:
 2861              		.loc 1 1561 5 discriminator 1 view .LVU950
1562:../../Drivers/STM32L5xx_HAL_Driver/Src/stm32l5xx_hal_rtc_ex.c ****   }
1563:../../Drivers/STM32L5xx_HAL_Driver/Src/stm32l5xx_hal_rtc_ex.c **** 
1564:../../Drivers/STM32L5xx_HAL_Driver/Src/stm32l5xx_hal_rtc_ex.c ****   /* RTC Tamper Interrupt Configuration: EXTI configuration */
1565:../../Drivers/STM32L5xx_HAL_Driver/Src/stm32l5xx_hal_rtc_ex.c ****   __HAL_RTC_TAMPER_EXTI_ENABLE_IT();
 2862              		.loc 1 1565 3 discriminator 1 view .LVU951
 2863 0066 0B4A     		ldr	r2, .L204+8
 2864 0068 D2F88030 		ldr	r3, [r2, #128]
 2865 006c 43F48013 		orr	r3, r3, #1048576
 2866 0070 C2F88030 		str	r3, [r2, #128]
1566:../../Drivers/STM32L5xx_HAL_Driver/Src/stm32l5xx_hal_rtc_ex.c **** 
1567:../../Drivers/STM32L5xx_HAL_Driver/Src/stm32l5xx_hal_rtc_ex.c ****   /* Interrupt enable register */
1568:../../Drivers/STM32L5xx_HAL_Driver/Src/stm32l5xx_hal_rtc_ex.c ****   SET_BIT(TAMP->IER, sTamper->Tamper);
 2867              		.loc 1 1568 3 discriminator 1 view .LVU952
 2868 0074 054B     		ldr	r3, .L204
 2869 0076 DA6A     		ldr	r2, [r3, #44]
 2870 0078 0868     		ldr	r0, [r1]
ARM GAS  C:\Users\carlos\AppData\Local\Temp\ccaMGGVT.s 			page 81


 2871 007a 0243     		orrs	r2, r2, r0
 2872 007c DA62     		str	r2, [r3, #44]
1569:../../Drivers/STM32L5xx_HAL_Driver/Src/stm32l5xx_hal_rtc_ex.c **** 
1570:../../Drivers/STM32L5xx_HAL_Driver/Src/stm32l5xx_hal_rtc_ex.c ****   /* Control register 1 */
1571:../../Drivers/STM32L5xx_HAL_Driver/Src/stm32l5xx_hal_rtc_ex.c ****   SET_BIT(TAMP->CR1, sTamper->Tamper);
 2873              		.loc 1 1571 3 discriminator 1 view .LVU953
 2874 007e 1A68     		ldr	r2, [r3]
 2875 0080 0968     		ldr	r1, [r1]
 2876              	.LVL180:
 2877              		.loc 1 1571 3 is_stmt 0 discriminator 1 view .LVU954
 2878 0082 0A43     		orrs	r2, r2, r1
 2879 0084 1A60     		str	r2, [r3]
1572:../../Drivers/STM32L5xx_HAL_Driver/Src/stm32l5xx_hal_rtc_ex.c **** 
1573:../../Drivers/STM32L5xx_HAL_Driver/Src/stm32l5xx_hal_rtc_ex.c ****   return HAL_OK;
 2880              		.loc 1 1573 3 is_stmt 1 discriminator 1 view .LVU955
1574:../../Drivers/STM32L5xx_HAL_Driver/Src/stm32l5xx_hal_rtc_ex.c **** }
 2881              		.loc 1 1574 1 is_stmt 0 discriminator 1 view .LVU956
 2882 0086 0020     		movs	r0, #0
 2883 0088 7047     		bx	lr
 2884              	.L205:
 2885 008a 00BF     		.align	2
 2886              	.L204:
 2887 008c 00340050 		.word	1342190592
 2888 0090 00280050 		.word	1342187520
 2889 0094 00F40250 		.word	1342370816
 2890              		.cfi_endproc
 2891              	.LFE232:
 2893              		.section	.text.HAL_RTCEx_DeactivateTamper,"ax",%progbits
 2894              		.align	1
 2895              		.global	HAL_RTCEx_DeactivateTamper
 2896              		.syntax unified
 2897              		.thumb
 2898              		.thumb_func
 2899              		.fpu fpv4-sp-d16
 2901              	HAL_RTCEx_DeactivateTamper:
 2902              	.LVL181:
 2903              	.LFB233:
1575:../../Drivers/STM32L5xx_HAL_Driver/Src/stm32l5xx_hal_rtc_ex.c **** 
1576:../../Drivers/STM32L5xx_HAL_Driver/Src/stm32l5xx_hal_rtc_ex.c **** /**
1577:../../Drivers/STM32L5xx_HAL_Driver/Src/stm32l5xx_hal_rtc_ex.c ****   * @brief  Deactivate Tamper.
1578:../../Drivers/STM32L5xx_HAL_Driver/Src/stm32l5xx_hal_rtc_ex.c ****   * @param  hrtc RTC handle
1579:../../Drivers/STM32L5xx_HAL_Driver/Src/stm32l5xx_hal_rtc_ex.c ****   * @param  Tamper Selected tamper pin.
1580:../../Drivers/STM32L5xx_HAL_Driver/Src/stm32l5xx_hal_rtc_ex.c ****   *         This parameter can be a combination of the following values:
1581:../../Drivers/STM32L5xx_HAL_Driver/Src/stm32l5xx_hal_rtc_ex.c ****   *         @arg RTC_TAMPER_1
1582:../../Drivers/STM32L5xx_HAL_Driver/Src/stm32l5xx_hal_rtc_ex.c ****   *         @arg RTC_TAMPER_2
1583:../../Drivers/STM32L5xx_HAL_Driver/Src/stm32l5xx_hal_rtc_ex.c ****   *         @arg RTC_TAMPER_3
1584:../../Drivers/STM32L5xx_HAL_Driver/Src/stm32l5xx_hal_rtc_ex.c ****   *         @arg RTC_TAMPER_4
1585:../../Drivers/STM32L5xx_HAL_Driver/Src/stm32l5xx_hal_rtc_ex.c ****   *         @arg RTC_TAMPER_5
1586:../../Drivers/STM32L5xx_HAL_Driver/Src/stm32l5xx_hal_rtc_ex.c ****   *         @arg RTC_TAMPER_6
1587:../../Drivers/STM32L5xx_HAL_Driver/Src/stm32l5xx_hal_rtc_ex.c ****   *         @arg RTC_TAMPER_7
1588:../../Drivers/STM32L5xx_HAL_Driver/Src/stm32l5xx_hal_rtc_ex.c ****   *         @arg RTC_TAMPER_8
1589:../../Drivers/STM32L5xx_HAL_Driver/Src/stm32l5xx_hal_rtc_ex.c ****   * @retval HAL status
1590:../../Drivers/STM32L5xx_HAL_Driver/Src/stm32l5xx_hal_rtc_ex.c ****   */
1591:../../Drivers/STM32L5xx_HAL_Driver/Src/stm32l5xx_hal_rtc_ex.c **** HAL_StatusTypeDef HAL_RTCEx_DeactivateTamper(RTC_HandleTypeDef *hrtc, uint32_t Tamper)
1592:../../Drivers/STM32L5xx_HAL_Driver/Src/stm32l5xx_hal_rtc_ex.c **** {
 2904              		.loc 1 1592 1 is_stmt 1 view -0
 2905              		.cfi_startproc
ARM GAS  C:\Users\carlos\AppData\Local\Temp\ccaMGGVT.s 			page 82


 2906              		@ args = 0, pretend = 0, frame = 0
 2907              		@ frame_needed = 0, uses_anonymous_args = 0
 2908              		@ link register save eliminated.
1593:../../Drivers/STM32L5xx_HAL_Driver/Src/stm32l5xx_hal_rtc_ex.c ****   UNUSED(hrtc);
 2909              		.loc 1 1593 3 view .LVU958
1594:../../Drivers/STM32L5xx_HAL_Driver/Src/stm32l5xx_hal_rtc_ex.c ****   assert_param(IS_RTC_TAMPER(Tamper));
 2910              		.loc 1 1594 3 view .LVU959
1595:../../Drivers/STM32L5xx_HAL_Driver/Src/stm32l5xx_hal_rtc_ex.c **** 
1596:../../Drivers/STM32L5xx_HAL_Driver/Src/stm32l5xx_hal_rtc_ex.c ****   /* Disable the selected Tamper pin */
1597:../../Drivers/STM32L5xx_HAL_Driver/Src/stm32l5xx_hal_rtc_ex.c ****   CLEAR_BIT(TAMP->CR1, Tamper);
 2911              		.loc 1 1597 3 view .LVU960
 2912 0000 094B     		ldr	r3, .L207
 2913 0002 1A68     		ldr	r2, [r3]
 2914 0004 22EA0102 		bic	r2, r2, r1
 2915 0008 1A60     		str	r2, [r3]
1598:../../Drivers/STM32L5xx_HAL_Driver/Src/stm32l5xx_hal_rtc_ex.c **** 
1599:../../Drivers/STM32L5xx_HAL_Driver/Src/stm32l5xx_hal_rtc_ex.c ****   /* Clear tamper mask/noerase/trigger configuration */
1600:../../Drivers/STM32L5xx_HAL_Driver/Src/stm32l5xx_hal_rtc_ex.c ****   CLEAR_BIT(TAMP->CR2, (Tamper << TAMP_CR2_TAMP1TRG_Pos) | (Tamper << TAMP_CR2_TAMP1MSK_Pos) | (Tam
 2916              		.loc 1 1600 3 view .LVU961
 2917 000a 5868     		ldr	r0, [r3, #4]
 2918              	.LVL182:
 2919              		.loc 1 1600 3 is_stmt 0 view .LVU962
 2920 000c 0A04     		lsls	r2, r1, #16
 2921 000e 42EA0162 		orr	r2, r2, r1, lsl #24
 2922 0012 0A43     		orrs	r2, r2, r1
 2923 0014 20EA0202 		bic	r2, r0, r2
 2924 0018 5A60     		str	r2, [r3, #4]
1601:../../Drivers/STM32L5xx_HAL_Driver/Src/stm32l5xx_hal_rtc_ex.c **** 
1602:../../Drivers/STM32L5xx_HAL_Driver/Src/stm32l5xx_hal_rtc_ex.c ****   /* Clear tamper interrupt mode configuration */
1603:../../Drivers/STM32L5xx_HAL_Driver/Src/stm32l5xx_hal_rtc_ex.c ****   CLEAR_BIT(TAMP->IER, Tamper);
 2925              		.loc 1 1603 3 is_stmt 1 view .LVU963
 2926 001a DA6A     		ldr	r2, [r3, #44]
 2927 001c 22EA0102 		bic	r2, r2, r1
 2928 0020 DA62     		str	r2, [r3, #44]
1604:../../Drivers/STM32L5xx_HAL_Driver/Src/stm32l5xx_hal_rtc_ex.c **** 
1605:../../Drivers/STM32L5xx_HAL_Driver/Src/stm32l5xx_hal_rtc_ex.c ****   /* Clear tamper interrupt and event flags (WO register) */
1606:../../Drivers/STM32L5xx_HAL_Driver/Src/stm32l5xx_hal_rtc_ex.c ****   WRITE_REG(TAMP->SCR, Tamper);
 2929              		.loc 1 1606 3 view .LVU964
 2930 0022 D963     		str	r1, [r3, #60]
1607:../../Drivers/STM32L5xx_HAL_Driver/Src/stm32l5xx_hal_rtc_ex.c **** 
1608:../../Drivers/STM32L5xx_HAL_Driver/Src/stm32l5xx_hal_rtc_ex.c ****   return HAL_OK;
 2931              		.loc 1 1608 3 view .LVU965
1609:../../Drivers/STM32L5xx_HAL_Driver/Src/stm32l5xx_hal_rtc_ex.c **** }
 2932              		.loc 1 1609 1 is_stmt 0 view .LVU966
 2933 0024 0020     		movs	r0, #0
 2934 0026 7047     		bx	lr
 2935              	.L208:
 2936              		.align	2
 2937              	.L207:
 2938 0028 00340050 		.word	1342190592
 2939              		.cfi_endproc
 2940              	.LFE233:
 2942              		.section	.text.HAL_RTCEx_SetActiveSeed,"ax",%progbits
 2943              		.align	1
 2944              		.global	HAL_RTCEx_SetActiveSeed
 2945              		.syntax unified
 2946              		.thumb
ARM GAS  C:\Users\carlos\AppData\Local\Temp\ccaMGGVT.s 			page 83


 2947              		.thumb_func
 2948              		.fpu fpv4-sp-d16
 2950              	HAL_RTCEx_SetActiveSeed:
 2951              	.LVL183:
 2952              	.LFB235:
1610:../../Drivers/STM32L5xx_HAL_Driver/Src/stm32l5xx_hal_rtc_ex.c **** 
1611:../../Drivers/STM32L5xx_HAL_Driver/Src/stm32l5xx_hal_rtc_ex.c **** /**
1612:../../Drivers/STM32L5xx_HAL_Driver/Src/stm32l5xx_hal_rtc_ex.c ****   * @brief  Set all active Tampers at the same time.
1613:../../Drivers/STM32L5xx_HAL_Driver/Src/stm32l5xx_hal_rtc_ex.c ****   * @param  hrtc RTC handle
1614:../../Drivers/STM32L5xx_HAL_Driver/Src/stm32l5xx_hal_rtc_ex.c ****   * @param  sAllTamper Pointer to active Tamper Structure.
1615:../../Drivers/STM32L5xx_HAL_Driver/Src/stm32l5xx_hal_rtc_ex.c ****   * @retval HAL status
1616:../../Drivers/STM32L5xx_HAL_Driver/Src/stm32l5xx_hal_rtc_ex.c ****   */
1617:../../Drivers/STM32L5xx_HAL_Driver/Src/stm32l5xx_hal_rtc_ex.c **** HAL_StatusTypeDef HAL_RTCEx_SetActiveTampers(RTC_HandleTypeDef *hrtc, RTC_ActiveTampersTypeDef *sAl
1618:../../Drivers/STM32L5xx_HAL_Driver/Src/stm32l5xx_hal_rtc_ex.c **** {
1619:../../Drivers/STM32L5xx_HAL_Driver/Src/stm32l5xx_hal_rtc_ex.c ****   uint32_t IER, CR1, CR2, ATCR1, ATCR2, CR, i, tickstart;
1620:../../Drivers/STM32L5xx_HAL_Driver/Src/stm32l5xx_hal_rtc_ex.c **** 
1621:../../Drivers/STM32L5xx_HAL_Driver/Src/stm32l5xx_hal_rtc_ex.c **** #ifdef  USE_FULL_ASSERT
1622:../../Drivers/STM32L5xx_HAL_Driver/Src/stm32l5xx_hal_rtc_ex.c ****   for (i = 0; i < RTC_TAMP_NB; i++)
1623:../../Drivers/STM32L5xx_HAL_Driver/Src/stm32l5xx_hal_rtc_ex.c ****   {
1624:../../Drivers/STM32L5xx_HAL_Driver/Src/stm32l5xx_hal_rtc_ex.c ****     assert_param(IS_RTC_TAMPER_ERASE_MODE(sAllTamper->TampInput[i].NoErase));
1625:../../Drivers/STM32L5xx_HAL_Driver/Src/stm32l5xx_hal_rtc_ex.c ****     assert_param(IS_RTC_TAMPER_MASKFLAG_STATE(sAllTamper->TampInput[i].MaskFlag));
1626:../../Drivers/STM32L5xx_HAL_Driver/Src/stm32l5xx_hal_rtc_ex.c ****     /* Mask flag only supported by TAMPER 1, 2 and 3 */
1627:../../Drivers/STM32L5xx_HAL_Driver/Src/stm32l5xx_hal_rtc_ex.c ****     assert_param(!((sAllTamper->TampInput[i].MaskFlag == RTC_TAMPERMASK_FLAG_ENABLE) && (i >= RTC_T
1628:../../Drivers/STM32L5xx_HAL_Driver/Src/stm32l5xx_hal_rtc_ex.c ****   }
1629:../../Drivers/STM32L5xx_HAL_Driver/Src/stm32l5xx_hal_rtc_ex.c ****   assert_param(IS_RTC_TAMPER_TIMESTAMPONTAMPER_DETECTION(sAllTamper->TimeStampOnTamperDetection));
1630:../../Drivers/STM32L5xx_HAL_Driver/Src/stm32l5xx_hal_rtc_ex.c **** #endif /* #ifdef  USE_FULL_ASSERT */
1631:../../Drivers/STM32L5xx_HAL_Driver/Src/stm32l5xx_hal_rtc_ex.c **** 
1632:../../Drivers/STM32L5xx_HAL_Driver/Src/stm32l5xx_hal_rtc_ex.c ****   /* Active Tampers must not be already enabled */
1633:../../Drivers/STM32L5xx_HAL_Driver/Src/stm32l5xx_hal_rtc_ex.c ****   if (READ_BIT(TAMP->ATOR, TAMP_ATOR_INITS) != 0U)
1634:../../Drivers/STM32L5xx_HAL_Driver/Src/stm32l5xx_hal_rtc_ex.c ****   {
1635:../../Drivers/STM32L5xx_HAL_Driver/Src/stm32l5xx_hal_rtc_ex.c ****     /* Disable all actives tampers with HAL_RTCEx_DeactivateActiveTampers.
1636:../../Drivers/STM32L5xx_HAL_Driver/Src/stm32l5xx_hal_rtc_ex.c ****        No need to check return value because it returns always HAL_OK */
1637:../../Drivers/STM32L5xx_HAL_Driver/Src/stm32l5xx_hal_rtc_ex.c ****     (void) HAL_RTCEx_DeactivateActiveTampers(hrtc);
1638:../../Drivers/STM32L5xx_HAL_Driver/Src/stm32l5xx_hal_rtc_ex.c ****   }
1639:../../Drivers/STM32L5xx_HAL_Driver/Src/stm32l5xx_hal_rtc_ex.c **** 
1640:../../Drivers/STM32L5xx_HAL_Driver/Src/stm32l5xx_hal_rtc_ex.c ****   /* Set TimeStamp on tamper detection */
1641:../../Drivers/STM32L5xx_HAL_Driver/Src/stm32l5xx_hal_rtc_ex.c ****   CR = READ_REG(RTC->CR);
1642:../../Drivers/STM32L5xx_HAL_Driver/Src/stm32l5xx_hal_rtc_ex.c ****   if ((CR & RTC_CR_TAMPTS) != (sAllTamper->TimeStampOnTamperDetection))
1643:../../Drivers/STM32L5xx_HAL_Driver/Src/stm32l5xx_hal_rtc_ex.c ****   {
1644:../../Drivers/STM32L5xx_HAL_Driver/Src/stm32l5xx_hal_rtc_ex.c ****     __HAL_RTC_WRITEPROTECTION_DISABLE(hrtc);
1645:../../Drivers/STM32L5xx_HAL_Driver/Src/stm32l5xx_hal_rtc_ex.c ****     MODIFY_REG(RTC->CR, RTC_CR_TAMPTS, sAllTamper->TimeStampOnTamperDetection);
1646:../../Drivers/STM32L5xx_HAL_Driver/Src/stm32l5xx_hal_rtc_ex.c ****     __HAL_RTC_WRITEPROTECTION_ENABLE(hrtc);
1647:../../Drivers/STM32L5xx_HAL_Driver/Src/stm32l5xx_hal_rtc_ex.c ****   }
1648:../../Drivers/STM32L5xx_HAL_Driver/Src/stm32l5xx_hal_rtc_ex.c **** 
1649:../../Drivers/STM32L5xx_HAL_Driver/Src/stm32l5xx_hal_rtc_ex.c ****   CR1 = READ_REG(TAMP->CR1);
1650:../../Drivers/STM32L5xx_HAL_Driver/Src/stm32l5xx_hal_rtc_ex.c ****   CR2 = READ_REG(TAMP->CR2);
1651:../../Drivers/STM32L5xx_HAL_Driver/Src/stm32l5xx_hal_rtc_ex.c ****   ATCR2 = 0U;
1652:../../Drivers/STM32L5xx_HAL_Driver/Src/stm32l5xx_hal_rtc_ex.c ****   IER = READ_REG(TAMP->IER);
1653:../../Drivers/STM32L5xx_HAL_Driver/Src/stm32l5xx_hal_rtc_ex.c **** 
1654:../../Drivers/STM32L5xx_HAL_Driver/Src/stm32l5xx_hal_rtc_ex.c ****   /* Set common parameters */
1655:../../Drivers/STM32L5xx_HAL_Driver/Src/stm32l5xx_hal_rtc_ex.c ****   ATCR1 = (sAllTamper->ActiveFilter | (sAllTamper->ActiveOutputChangePeriod << TAMP_ATCR1_ATPER_Pos
1656:../../Drivers/STM32L5xx_HAL_Driver/Src/stm32l5xx_hal_rtc_ex.c **** 
1657:../../Drivers/STM32L5xx_HAL_Driver/Src/stm32l5xx_hal_rtc_ex.c ****   /* Set specific parameters for each active tamper inputs if enable */
1658:../../Drivers/STM32L5xx_HAL_Driver/Src/stm32l5xx_hal_rtc_ex.c ****   for (i = 0; i < RTC_TAMP_NB; i++)
1659:../../Drivers/STM32L5xx_HAL_Driver/Src/stm32l5xx_hal_rtc_ex.c ****   {
1660:../../Drivers/STM32L5xx_HAL_Driver/Src/stm32l5xx_hal_rtc_ex.c ****     if (sAllTamper->TampInput[i].Enable != RTC_ATAMP_DISABLE)
1661:../../Drivers/STM32L5xx_HAL_Driver/Src/stm32l5xx_hal_rtc_ex.c ****     {
ARM GAS  C:\Users\carlos\AppData\Local\Temp\ccaMGGVT.s 			page 84


1662:../../Drivers/STM32L5xx_HAL_Driver/Src/stm32l5xx_hal_rtc_ex.c ****       CR1 |= (TAMP_CR1_TAMP1E << i);
1663:../../Drivers/STM32L5xx_HAL_Driver/Src/stm32l5xx_hal_rtc_ex.c ****       ATCR1 |= (TAMP_ATCR1_TAMP1AM << i);
1664:../../Drivers/STM32L5xx_HAL_Driver/Src/stm32l5xx_hal_rtc_ex.c **** 
1665:../../Drivers/STM32L5xx_HAL_Driver/Src/stm32l5xx_hal_rtc_ex.c ****       if (sAllTamper->TampInput[i].Interrupt != RTC_ATAMP_INTERRUPT_DISABLE)
1666:../../Drivers/STM32L5xx_HAL_Driver/Src/stm32l5xx_hal_rtc_ex.c ****       {
1667:../../Drivers/STM32L5xx_HAL_Driver/Src/stm32l5xx_hal_rtc_ex.c ****         /* RTC Tamper Interrupt Configuration: EXTI configuration */
1668:../../Drivers/STM32L5xx_HAL_Driver/Src/stm32l5xx_hal_rtc_ex.c ****         __HAL_RTC_TAMPER_EXTI_ENABLE_IT();
1669:../../Drivers/STM32L5xx_HAL_Driver/Src/stm32l5xx_hal_rtc_ex.c **** 
1670:../../Drivers/STM32L5xx_HAL_Driver/Src/stm32l5xx_hal_rtc_ex.c ****         /* Interrupt enable register */
1671:../../Drivers/STM32L5xx_HAL_Driver/Src/stm32l5xx_hal_rtc_ex.c ****         IER |= (TAMP_IER_TAMP1IE << i);
1672:../../Drivers/STM32L5xx_HAL_Driver/Src/stm32l5xx_hal_rtc_ex.c ****       }
1673:../../Drivers/STM32L5xx_HAL_Driver/Src/stm32l5xx_hal_rtc_ex.c **** 
1674:../../Drivers/STM32L5xx_HAL_Driver/Src/stm32l5xx_hal_rtc_ex.c ****       if (sAllTamper->TampInput[i].MaskFlag != RTC_TAMPERMASK_FLAG_DISABLE)
1675:../../Drivers/STM32L5xx_HAL_Driver/Src/stm32l5xx_hal_rtc_ex.c ****       {
1676:../../Drivers/STM32L5xx_HAL_Driver/Src/stm32l5xx_hal_rtc_ex.c ****         CR2 |= (TAMP_CR2_TAMP1MSK << i);
1677:../../Drivers/STM32L5xx_HAL_Driver/Src/stm32l5xx_hal_rtc_ex.c ****       }
1678:../../Drivers/STM32L5xx_HAL_Driver/Src/stm32l5xx_hal_rtc_ex.c **** 
1679:../../Drivers/STM32L5xx_HAL_Driver/Src/stm32l5xx_hal_rtc_ex.c ****       if (sAllTamper->TampInput[i].NoErase != RTC_TAMPER_ERASE_BACKUP_ENABLE)
1680:../../Drivers/STM32L5xx_HAL_Driver/Src/stm32l5xx_hal_rtc_ex.c ****       {
1681:../../Drivers/STM32L5xx_HAL_Driver/Src/stm32l5xx_hal_rtc_ex.c ****         CR2 |= (TAMP_CR2_TAMP1NOERASE << i);
1682:../../Drivers/STM32L5xx_HAL_Driver/Src/stm32l5xx_hal_rtc_ex.c ****       }
1683:../../Drivers/STM32L5xx_HAL_Driver/Src/stm32l5xx_hal_rtc_ex.c **** 
1684:../../Drivers/STM32L5xx_HAL_Driver/Src/stm32l5xx_hal_rtc_ex.c ****       /* Configure ATOSELx[] in case of output sharing */
1685:../../Drivers/STM32L5xx_HAL_Driver/Src/stm32l5xx_hal_rtc_ex.c ****       ATCR2 |= sAllTamper->TampInput[i].Output << ((3u * i) + TAMP_ATCR2_ATOSEL1_Pos);
1686:../../Drivers/STM32L5xx_HAL_Driver/Src/stm32l5xx_hal_rtc_ex.c **** 
1687:../../Drivers/STM32L5xx_HAL_Driver/Src/stm32l5xx_hal_rtc_ex.c ****       if (i != sAllTamper->TampInput[i].Output)
1688:../../Drivers/STM32L5xx_HAL_Driver/Src/stm32l5xx_hal_rtc_ex.c ****       {
1689:../../Drivers/STM32L5xx_HAL_Driver/Src/stm32l5xx_hal_rtc_ex.c ****         ATCR1 |= TAMP_ATCR1_ATOSHARE;
1690:../../Drivers/STM32L5xx_HAL_Driver/Src/stm32l5xx_hal_rtc_ex.c ****       }
1691:../../Drivers/STM32L5xx_HAL_Driver/Src/stm32l5xx_hal_rtc_ex.c ****     }
1692:../../Drivers/STM32L5xx_HAL_Driver/Src/stm32l5xx_hal_rtc_ex.c ****   }
1693:../../Drivers/STM32L5xx_HAL_Driver/Src/stm32l5xx_hal_rtc_ex.c **** 
1694:../../Drivers/STM32L5xx_HAL_Driver/Src/stm32l5xx_hal_rtc_ex.c ****   WRITE_REG(TAMP->IER, IER);
1695:../../Drivers/STM32L5xx_HAL_Driver/Src/stm32l5xx_hal_rtc_ex.c ****   WRITE_REG(TAMP->IER, IER);
1696:../../Drivers/STM32L5xx_HAL_Driver/Src/stm32l5xx_hal_rtc_ex.c ****   WRITE_REG(TAMP->ATCR1, ATCR1);
1697:../../Drivers/STM32L5xx_HAL_Driver/Src/stm32l5xx_hal_rtc_ex.c ****   WRITE_REG(TAMP->ATCR2, ATCR2);
1698:../../Drivers/STM32L5xx_HAL_Driver/Src/stm32l5xx_hal_rtc_ex.c ****   WRITE_REG(TAMP->CR2, CR2);
1699:../../Drivers/STM32L5xx_HAL_Driver/Src/stm32l5xx_hal_rtc_ex.c ****   WRITE_REG(TAMP->CR1, CR1);
1700:../../Drivers/STM32L5xx_HAL_Driver/Src/stm32l5xx_hal_rtc_ex.c **** 
1701:../../Drivers/STM32L5xx_HAL_Driver/Src/stm32l5xx_hal_rtc_ex.c ****   /* Write seed */
1702:../../Drivers/STM32L5xx_HAL_Driver/Src/stm32l5xx_hal_rtc_ex.c ****   for (i = 0; i < RTC_ATAMP_SEED_NB_UINT32; i++)
1703:../../Drivers/STM32L5xx_HAL_Driver/Src/stm32l5xx_hal_rtc_ex.c ****   {
1704:../../Drivers/STM32L5xx_HAL_Driver/Src/stm32l5xx_hal_rtc_ex.c ****     WRITE_REG(TAMP->ATSEEDR, sAllTamper->Seed[i]);
1705:../../Drivers/STM32L5xx_HAL_Driver/Src/stm32l5xx_hal_rtc_ex.c ****   }
1706:../../Drivers/STM32L5xx_HAL_Driver/Src/stm32l5xx_hal_rtc_ex.c **** 
1707:../../Drivers/STM32L5xx_HAL_Driver/Src/stm32l5xx_hal_rtc_ex.c ****   /* Wait till RTC SEEDF flag is set and if Time out is reached exit */
1708:../../Drivers/STM32L5xx_HAL_Driver/Src/stm32l5xx_hal_rtc_ex.c ****   tickstart = HAL_GetTick();
1709:../../Drivers/STM32L5xx_HAL_Driver/Src/stm32l5xx_hal_rtc_ex.c ****   while (READ_BIT(TAMP->ATOR,  TAMP_ATOR_SEEDF) != 0u)
1710:../../Drivers/STM32L5xx_HAL_Driver/Src/stm32l5xx_hal_rtc_ex.c ****   {
1711:../../Drivers/STM32L5xx_HAL_Driver/Src/stm32l5xx_hal_rtc_ex.c ****     if ((HAL_GetTick() - tickstart) > RTC_TIMEOUT_VALUE)
1712:../../Drivers/STM32L5xx_HAL_Driver/Src/stm32l5xx_hal_rtc_ex.c ****     {
1713:../../Drivers/STM32L5xx_HAL_Driver/Src/stm32l5xx_hal_rtc_ex.c ****       hrtc->State = HAL_RTC_STATE_TIMEOUT;
1714:../../Drivers/STM32L5xx_HAL_Driver/Src/stm32l5xx_hal_rtc_ex.c ****       return HAL_TIMEOUT;
1715:../../Drivers/STM32L5xx_HAL_Driver/Src/stm32l5xx_hal_rtc_ex.c ****     }
1716:../../Drivers/STM32L5xx_HAL_Driver/Src/stm32l5xx_hal_rtc_ex.c ****   }
1717:../../Drivers/STM32L5xx_HAL_Driver/Src/stm32l5xx_hal_rtc_ex.c **** 
1718:../../Drivers/STM32L5xx_HAL_Driver/Src/stm32l5xx_hal_rtc_ex.c ****   return HAL_OK;
ARM GAS  C:\Users\carlos\AppData\Local\Temp\ccaMGGVT.s 			page 85


1719:../../Drivers/STM32L5xx_HAL_Driver/Src/stm32l5xx_hal_rtc_ex.c **** }
1720:../../Drivers/STM32L5xx_HAL_Driver/Src/stm32l5xx_hal_rtc_ex.c **** 
1721:../../Drivers/STM32L5xx_HAL_Driver/Src/stm32l5xx_hal_rtc_ex.c **** /**
1722:../../Drivers/STM32L5xx_HAL_Driver/Src/stm32l5xx_hal_rtc_ex.c ****   * @brief  Write a new seed. Active tamper must be enabled.
1723:../../Drivers/STM32L5xx_HAL_Driver/Src/stm32l5xx_hal_rtc_ex.c ****   * @param  hrtc RTC handle
1724:../../Drivers/STM32L5xx_HAL_Driver/Src/stm32l5xx_hal_rtc_ex.c ****   * @param  pSeed Pointer to active tamper seed values.
1725:../../Drivers/STM32L5xx_HAL_Driver/Src/stm32l5xx_hal_rtc_ex.c ****   * @retval HAL status
1726:../../Drivers/STM32L5xx_HAL_Driver/Src/stm32l5xx_hal_rtc_ex.c ****   */
1727:../../Drivers/STM32L5xx_HAL_Driver/Src/stm32l5xx_hal_rtc_ex.c **** HAL_StatusTypeDef HAL_RTCEx_SetActiveSeed(RTC_HandleTypeDef *hrtc, uint32_t *pSeed)
1728:../../Drivers/STM32L5xx_HAL_Driver/Src/stm32l5xx_hal_rtc_ex.c **** {
 2953              		.loc 1 1728 1 is_stmt 1 view -0
 2954              		.cfi_startproc
 2955              		@ args = 0, pretend = 0, frame = 0
 2956              		@ frame_needed = 0, uses_anonymous_args = 0
 2957              		.loc 1 1728 1 is_stmt 0 view .LVU968
 2958 0000 38B5     		push	{r3, r4, r5, lr}
 2959              	.LCFI16:
 2960              		.cfi_def_cfa_offset 16
 2961              		.cfi_offset 3, -16
 2962              		.cfi_offset 4, -12
 2963              		.cfi_offset 5, -8
 2964              		.cfi_offset 14, -4
1729:../../Drivers/STM32L5xx_HAL_Driver/Src/stm32l5xx_hal_rtc_ex.c ****   uint32_t i, tickstart;
 2965              		.loc 1 1729 3 is_stmt 1 view .LVU969
1730:../../Drivers/STM32L5xx_HAL_Driver/Src/stm32l5xx_hal_rtc_ex.c **** 
1731:../../Drivers/STM32L5xx_HAL_Driver/Src/stm32l5xx_hal_rtc_ex.c ****   /* Active Tampers must be enabled */
1732:../../Drivers/STM32L5xx_HAL_Driver/Src/stm32l5xx_hal_rtc_ex.c ****   if (READ_BIT(TAMP->ATOR,  TAMP_ATOR_INITS) == 0U)
 2966              		.loc 1 1732 3 view .LVU970
 2967              		.loc 1 1732 7 is_stmt 0 view .LVU971
 2968 0002 124B     		ldr	r3, .L219
 2969 0004 9B69     		ldr	r3, [r3, #24]
 2970              		.loc 1 1732 6 view .LVU972
 2971 0006 13F4004F 		tst	r3, #32768
 2972 000a 1DD0     		beq	.L215
 2973 000c 0546     		mov	r5, r0
1733:../../Drivers/STM32L5xx_HAL_Driver/Src/stm32l5xx_hal_rtc_ex.c ****   {
1734:../../Drivers/STM32L5xx_HAL_Driver/Src/stm32l5xx_hal_rtc_ex.c ****     return HAL_ERROR;
1735:../../Drivers/STM32L5xx_HAL_Driver/Src/stm32l5xx_hal_rtc_ex.c ****   }
1736:../../Drivers/STM32L5xx_HAL_Driver/Src/stm32l5xx_hal_rtc_ex.c **** 
1737:../../Drivers/STM32L5xx_HAL_Driver/Src/stm32l5xx_hal_rtc_ex.c ****   for (i = 0; i < RTC_ATAMP_SEED_NB_UINT32; i++)
 2974              		.loc 1 1737 10 view .LVU973
 2975 000e 0023     		movs	r3, #0
 2976              	.LVL184:
 2977              	.L211:
 2978              		.loc 1 1737 15 is_stmt 1 discriminator 1 view .LVU974
 2979              		.loc 1 1737 3 is_stmt 0 discriminator 1 view .LVU975
 2980 0010 032B     		cmp	r3, #3
 2981 0012 05D8     		bhi	.L217
1738:../../Drivers/STM32L5xx_HAL_Driver/Src/stm32l5xx_hal_rtc_ex.c ****   {
1739:../../Drivers/STM32L5xx_HAL_Driver/Src/stm32l5xx_hal_rtc_ex.c ****     WRITE_REG(TAMP->ATSEEDR, pSeed[i]);
 2982              		.loc 1 1739 5 is_stmt 1 discriminator 3 view .LVU976
 2983 0014 51F82300 		ldr	r0, [r1, r3, lsl #2]
 2984 0018 0C4A     		ldr	r2, .L219
 2985 001a 5061     		str	r0, [r2, #20]
1737:../../Drivers/STM32L5xx_HAL_Driver/Src/stm32l5xx_hal_rtc_ex.c ****   {
 2986              		.loc 1 1737 45 discriminator 3 view .LVU977
1737:../../Drivers/STM32L5xx_HAL_Driver/Src/stm32l5xx_hal_rtc_ex.c ****   {
ARM GAS  C:\Users\carlos\AppData\Local\Temp\ccaMGGVT.s 			page 86


 2987              		.loc 1 1737 46 is_stmt 0 discriminator 3 view .LVU978
 2988 001c 0133     		adds	r3, r3, #1
 2989              	.LVL185:
1737:../../Drivers/STM32L5xx_HAL_Driver/Src/stm32l5xx_hal_rtc_ex.c ****   {
 2990              		.loc 1 1737 46 discriminator 3 view .LVU979
 2991 001e F7E7     		b	.L211
 2992              	.L217:
1740:../../Drivers/STM32L5xx_HAL_Driver/Src/stm32l5xx_hal_rtc_ex.c ****   }
1741:../../Drivers/STM32L5xx_HAL_Driver/Src/stm32l5xx_hal_rtc_ex.c **** 
1742:../../Drivers/STM32L5xx_HAL_Driver/Src/stm32l5xx_hal_rtc_ex.c ****   /* Wait till RTC SEEDF flag is set and if Time out is reached exit */
1743:../../Drivers/STM32L5xx_HAL_Driver/Src/stm32l5xx_hal_rtc_ex.c ****   tickstart = HAL_GetTick();
 2993              		.loc 1 1743 3 is_stmt 1 view .LVU980
 2994              		.loc 1 1743 15 is_stmt 0 view .LVU981
 2995 0020 FFF7FEFF 		bl	HAL_GetTick
 2996              	.LVL186:
 2997              		.loc 1 1743 15 view .LVU982
 2998 0024 0446     		mov	r4, r0
 2999              	.LVL187:
1744:../../Drivers/STM32L5xx_HAL_Driver/Src/stm32l5xx_hal_rtc_ex.c ****   while (READ_BIT(TAMP->ATOR,  TAMP_ATOR_SEEDF) != 0U)
 3000              		.loc 1 1744 3 is_stmt 1 view .LVU983
 3001              	.L213:
 3002              		.loc 1 1744 9 view .LVU984
 3003              		.loc 1 1744 10 is_stmt 0 view .LVU985
 3004 0026 094B     		ldr	r3, .L219
 3005 0028 9B69     		ldr	r3, [r3, #24]
 3006              		.loc 1 1744 9 view .LVU986
 3007 002a 13F4804F 		tst	r3, #16384
 3008 002e 09D0     		beq	.L218
1745:../../Drivers/STM32L5xx_HAL_Driver/Src/stm32l5xx_hal_rtc_ex.c ****   {
1746:../../Drivers/STM32L5xx_HAL_Driver/Src/stm32l5xx_hal_rtc_ex.c ****     if ((HAL_GetTick() - tickstart) > RTC_TIMEOUT_VALUE)
 3009              		.loc 1 1746 5 is_stmt 1 view .LVU987
 3010              		.loc 1 1746 10 is_stmt 0 view .LVU988
 3011 0030 FFF7FEFF 		bl	HAL_GetTick
 3012              	.LVL188:
 3013              		.loc 1 1746 24 view .LVU989
 3014 0034 031B     		subs	r3, r0, r4
 3015              		.loc 1 1746 8 view .LVU990
 3016 0036 B3F57A7F 		cmp	r3, #1000
 3017 003a F4D9     		bls	.L213
1747:../../Drivers/STM32L5xx_HAL_Driver/Src/stm32l5xx_hal_rtc_ex.c ****     {
1748:../../Drivers/STM32L5xx_HAL_Driver/Src/stm32l5xx_hal_rtc_ex.c ****       hrtc->State = HAL_RTC_STATE_TIMEOUT;
 3018              		.loc 1 1748 7 is_stmt 1 view .LVU991
 3019              		.loc 1 1748 19 is_stmt 0 view .LVU992
 3020 003c 0320     		movs	r0, #3
 3021 003e 85F82500 		strb	r0, [r5, #37]
1749:../../Drivers/STM32L5xx_HAL_Driver/Src/stm32l5xx_hal_rtc_ex.c ****       return HAL_TIMEOUT;
 3022              		.loc 1 1749 7 is_stmt 1 view .LVU993
 3023              		.loc 1 1749 14 is_stmt 0 view .LVU994
 3024 0042 02E0     		b	.L210
 3025              	.L218:
1750:../../Drivers/STM32L5xx_HAL_Driver/Src/stm32l5xx_hal_rtc_ex.c ****     }
1751:../../Drivers/STM32L5xx_HAL_Driver/Src/stm32l5xx_hal_rtc_ex.c ****   }
1752:../../Drivers/STM32L5xx_HAL_Driver/Src/stm32l5xx_hal_rtc_ex.c **** 
1753:../../Drivers/STM32L5xx_HAL_Driver/Src/stm32l5xx_hal_rtc_ex.c ****   return HAL_OK;
 3026              		.loc 1 1753 10 view .LVU995
 3027 0044 0020     		movs	r0, #0
 3028 0046 00E0     		b	.L210
ARM GAS  C:\Users\carlos\AppData\Local\Temp\ccaMGGVT.s 			page 87


 3029              	.LVL189:
 3030              	.L215:
1734:../../Drivers/STM32L5xx_HAL_Driver/Src/stm32l5xx_hal_rtc_ex.c ****   }
 3031              		.loc 1 1734 12 view .LVU996
 3032 0048 0120     		movs	r0, #1
 3033              	.LVL190:
 3034              	.L210:
1754:../../Drivers/STM32L5xx_HAL_Driver/Src/stm32l5xx_hal_rtc_ex.c **** }
 3035              		.loc 1 1754 1 view .LVU997
 3036 004a 38BD     		pop	{r3, r4, r5, pc}
 3037              	.L220:
 3038              		.align	2
 3039              	.L219:
 3040 004c 00340050 		.word	1342190592
 3041              		.cfi_endproc
 3042              	.LFE235:
 3044              		.section	.text.HAL_RTCEx_DeactivateActiveTampers,"ax",%progbits
 3045              		.align	1
 3046              		.global	HAL_RTCEx_DeactivateActiveTampers
 3047              		.syntax unified
 3048              		.thumb
 3049              		.thumb_func
 3050              		.fpu fpv4-sp-d16
 3052              	HAL_RTCEx_DeactivateActiveTampers:
 3053              	.LVL191:
 3054              	.LFB236:
1755:../../Drivers/STM32L5xx_HAL_Driver/Src/stm32l5xx_hal_rtc_ex.c **** 
1756:../../Drivers/STM32L5xx_HAL_Driver/Src/stm32l5xx_hal_rtc_ex.c **** /**
1757:../../Drivers/STM32L5xx_HAL_Driver/Src/stm32l5xx_hal_rtc_ex.c ****   * @brief  Deactivate all Active Tampers at the same time.
1758:../../Drivers/STM32L5xx_HAL_Driver/Src/stm32l5xx_hal_rtc_ex.c ****   * @param  hrtc RTC handle
1759:../../Drivers/STM32L5xx_HAL_Driver/Src/stm32l5xx_hal_rtc_ex.c ****   * @retval HAL status
1760:../../Drivers/STM32L5xx_HAL_Driver/Src/stm32l5xx_hal_rtc_ex.c ****   */
1761:../../Drivers/STM32L5xx_HAL_Driver/Src/stm32l5xx_hal_rtc_ex.c **** HAL_StatusTypeDef HAL_RTCEx_DeactivateActiveTampers(RTC_HandleTypeDef *hrtc)
1762:../../Drivers/STM32L5xx_HAL_Driver/Src/stm32l5xx_hal_rtc_ex.c **** {
 3055              		.loc 1 1762 1 is_stmt 1 view -0
 3056              		.cfi_startproc
 3057              		@ args = 0, pretend = 0, frame = 0
 3058              		@ frame_needed = 0, uses_anonymous_args = 0
 3059              		@ link register save eliminated.
1763:../../Drivers/STM32L5xx_HAL_Driver/Src/stm32l5xx_hal_rtc_ex.c ****   /* Get Active tampers */
1764:../../Drivers/STM32L5xx_HAL_Driver/Src/stm32l5xx_hal_rtc_ex.c ****   uint32_t ATamp_mask = READ_BIT(TAMP->ATCR1, TAMP_ALL);
 3060              		.loc 1 1764 3 view .LVU999
 3061              		.loc 1 1764 25 is_stmt 0 view .LVU1000
 3062 0000 0E4B     		ldr	r3, .L222
 3063 0002 1A69     		ldr	r2, [r3, #16]
 3064              		.loc 1 1764 12 view .LVU1001
 3065 0004 D2B2     		uxtb	r2, r2
 3066              	.LVL192:
1765:../../Drivers/STM32L5xx_HAL_Driver/Src/stm32l5xx_hal_rtc_ex.c **** 
1766:../../Drivers/STM32L5xx_HAL_Driver/Src/stm32l5xx_hal_rtc_ex.c ****   UNUSED(hrtc);
 3067              		.loc 1 1766 3 is_stmt 1 view .LVU1002
1767:../../Drivers/STM32L5xx_HAL_Driver/Src/stm32l5xx_hal_rtc_ex.c ****   /* Disable all actives tampers but not passives tampers */
1768:../../Drivers/STM32L5xx_HAL_Driver/Src/stm32l5xx_hal_rtc_ex.c ****   CLEAR_BIT(TAMP->CR1, ATamp_mask);
 3068              		.loc 1 1768 3 view .LVU1003
 3069 0006 1968     		ldr	r1, [r3]
 3070 0008 21EA0201 		bic	r1, r1, r2
 3071 000c 1960     		str	r1, [r3]
ARM GAS  C:\Users\carlos\AppData\Local\Temp\ccaMGGVT.s 			page 88


1769:../../Drivers/STM32L5xx_HAL_Driver/Src/stm32l5xx_hal_rtc_ex.c **** 
1770:../../Drivers/STM32L5xx_HAL_Driver/Src/stm32l5xx_hal_rtc_ex.c ****   /* Clear tamper interrupt and event flags (WO register) of all actives tampers but not passives t
1771:../../Drivers/STM32L5xx_HAL_Driver/Src/stm32l5xx_hal_rtc_ex.c ****   WRITE_REG(TAMP->SCR, ATamp_mask);
 3072              		.loc 1 1771 3 view .LVU1004
 3073 000e DA63     		str	r2, [r3, #60]
1772:../../Drivers/STM32L5xx_HAL_Driver/Src/stm32l5xx_hal_rtc_ex.c **** 
1773:../../Drivers/STM32L5xx_HAL_Driver/Src/stm32l5xx_hal_rtc_ex.c ****   /* Disable no erase and mask */
1774:../../Drivers/STM32L5xx_HAL_Driver/Src/stm32l5xx_hal_rtc_ex.c ****   CLEAR_BIT(TAMP->CR2, (ATamp_mask | ((ATamp_mask & (TAMP_ATCR1_TAMP1AM | TAMP_ATCR1_TAMP2AM | TAMP
 3074              		.loc 1 1774 3 view .LVU1005
 3075 0010 5868     		ldr	r0, [r3, #4]
 3076              	.LVL193:
 3077              		.loc 1 1774 3 is_stmt 0 view .LVU1006
 3078 0012 1104     		lsls	r1, r2, #16
 3079 0014 01F4E021 		and	r1, r1, #458752
 3080 0018 1143     		orrs	r1, r1, r2
 3081 001a 20EA0101 		bic	r1, r0, r1
 3082 001e 5960     		str	r1, [r3, #4]
1775:../../Drivers/STM32L5xx_HAL_Driver/Src/stm32l5xx_hal_rtc_ex.c **** 
1776:../../Drivers/STM32L5xx_HAL_Driver/Src/stm32l5xx_hal_rtc_ex.c ****   /* Clear all active tampers interrupt mode configuration but not passives tampers */
1777:../../Drivers/STM32L5xx_HAL_Driver/Src/stm32l5xx_hal_rtc_ex.c ****   CLEAR_BIT(TAMP->IER, ATamp_mask);
 3083              		.loc 1 1777 3 is_stmt 1 view .LVU1007
 3084 0020 D96A     		ldr	r1, [r3, #44]
 3085 0022 21EA0202 		bic	r2, r1, r2
 3086              	.LVL194:
 3087              		.loc 1 1777 3 is_stmt 0 view .LVU1008
 3088 0026 DA62     		str	r2, [r3, #44]
1778:../../Drivers/STM32L5xx_HAL_Driver/Src/stm32l5xx_hal_rtc_ex.c **** 
1779:../../Drivers/STM32L5xx_HAL_Driver/Src/stm32l5xx_hal_rtc_ex.c ****   CLEAR_BIT(TAMP->ATCR1, TAMP_ALL | TAMP_ATCR1_ATCKSEL | TAMP_ATCR1_ATPER | \
 3089              		.loc 1 1779 3 is_stmt 1 view .LVU1009
 3090 0028 1969     		ldr	r1, [r3, #16]
 3091 002a 054A     		ldr	r2, .L222+4
 3092 002c 0A40     		ands	r2, r2, r1
 3093 002e 1A61     		str	r2, [r3, #16]
1780:../../Drivers/STM32L5xx_HAL_Driver/Src/stm32l5xx_hal_rtc_ex.c ****             TAMP_ATCR1_ATOSHARE | TAMP_ATCR1_FLTEN);
1781:../../Drivers/STM32L5xx_HAL_Driver/Src/stm32l5xx_hal_rtc_ex.c **** 
1782:../../Drivers/STM32L5xx_HAL_Driver/Src/stm32l5xx_hal_rtc_ex.c ****   CLEAR_BIT(TAMP->ATCR2, TAMP_ATCR2_ATOSEL1 | TAMP_ATCR2_ATOSEL2 | TAMP_ATCR2_ATOSEL3 | TAMP_ATCR2_
 3094              		.loc 1 1782 3 view .LVU1010
 3095 0030 DA69     		ldr	r2, [r3, #28]
 3096 0032 D2B2     		uxtb	r2, r2
 3097 0034 DA61     		str	r2, [r3, #28]
1783:../../Drivers/STM32L5xx_HAL_Driver/Src/stm32l5xx_hal_rtc_ex.c ****             TAMP_ATCR2_ATOSEL5 | TAMP_ATCR2_ATOSEL6 | TAMP_ATCR2_ATOSEL7 | TAMP_ATCR2_ATOSEL8);
1784:../../Drivers/STM32L5xx_HAL_Driver/Src/stm32l5xx_hal_rtc_ex.c **** 
1785:../../Drivers/STM32L5xx_HAL_Driver/Src/stm32l5xx_hal_rtc_ex.c ****   return HAL_OK;
 3098              		.loc 1 1785 3 view .LVU1011
1786:../../Drivers/STM32L5xx_HAL_Driver/Src/stm32l5xx_hal_rtc_ex.c **** }
 3099              		.loc 1 1786 1 is_stmt 0 view .LVU1012
 3100 0036 0020     		movs	r0, #0
 3101 0038 7047     		bx	lr
 3102              	.L223:
 3103 003a 00BF     		.align	2
 3104              	.L222:
 3105 003c 00340050 		.word	1342190592
 3106 0040 00FFF838 		.word	955842304
 3107              		.cfi_endproc
 3108              	.LFE236:
 3110              		.section	.text.HAL_RTCEx_SetActiveTampers,"ax",%progbits
 3111              		.align	1
ARM GAS  C:\Users\carlos\AppData\Local\Temp\ccaMGGVT.s 			page 89


 3112              		.global	HAL_RTCEx_SetActiveTampers
 3113              		.syntax unified
 3114              		.thumb
 3115              		.thumb_func
 3116              		.fpu fpv4-sp-d16
 3118              	HAL_RTCEx_SetActiveTampers:
 3119              	.LVL195:
 3120              	.LFB234:
1618:../../Drivers/STM32L5xx_HAL_Driver/Src/stm32l5xx_hal_rtc_ex.c ****   uint32_t IER, CR1, CR2, ATCR1, ATCR2, CR, i, tickstart;
 3121              		.loc 1 1618 1 is_stmt 1 view -0
 3122              		.cfi_startproc
 3123              		@ args = 0, pretend = 0, frame = 0
 3124              		@ frame_needed = 0, uses_anonymous_args = 0
1618:../../Drivers/STM32L5xx_HAL_Driver/Src/stm32l5xx_hal_rtc_ex.c ****   uint32_t IER, CR1, CR2, ATCR1, ATCR2, CR, i, tickstart;
 3125              		.loc 1 1618 1 is_stmt 0 view .LVU1014
 3126 0000 2DE9F041 		push	{r4, r5, r6, r7, r8, lr}
 3127              	.LCFI17:
 3128              		.cfi_def_cfa_offset 24
 3129              		.cfi_offset 4, -24
 3130              		.cfi_offset 5, -20
 3131              		.cfi_offset 6, -16
 3132              		.cfi_offset 7, -12
 3133              		.cfi_offset 8, -8
 3134              		.cfi_offset 14, -4
 3135 0004 8046     		mov	r8, r0
 3136 0006 0C46     		mov	r4, r1
1619:../../Drivers/STM32L5xx_HAL_Driver/Src/stm32l5xx_hal_rtc_ex.c **** 
 3137              		.loc 1 1619 3 is_stmt 1 view .LVU1015
1633:../../Drivers/STM32L5xx_HAL_Driver/Src/stm32l5xx_hal_rtc_ex.c ****   {
 3138              		.loc 1 1633 3 view .LVU1016
1633:../../Drivers/STM32L5xx_HAL_Driver/Src/stm32l5xx_hal_rtc_ex.c ****   {
 3139              		.loc 1 1633 7 is_stmt 0 view .LVU1017
 3140 0008 4B4B     		ldr	r3, .L242
 3141 000a 9B69     		ldr	r3, [r3, #24]
1633:../../Drivers/STM32L5xx_HAL_Driver/Src/stm32l5xx_hal_rtc_ex.c ****   {
 3142              		.loc 1 1633 6 view .LVU1018
 3143 000c 13F4004F 		tst	r3, #32768
 3144 0010 21D1     		bne	.L239
 3145              	.LVL196:
 3146              	.L225:
1641:../../Drivers/STM32L5xx_HAL_Driver/Src/stm32l5xx_hal_rtc_ex.c ****   if ((CR & RTC_CR_TAMPTS) != (sAllTamper->TimeStampOnTamperDetection))
 3147              		.loc 1 1641 3 is_stmt 1 view .LVU1019
1641:../../Drivers/STM32L5xx_HAL_Driver/Src/stm32l5xx_hal_rtc_ex.c ****   if ((CR & RTC_CR_TAMPTS) != (sAllTamper->TimeStampOnTamperDetection))
 3148              		.loc 1 1641 6 is_stmt 0 view .LVU1020
 3149 0012 4A4B     		ldr	r3, .L242+4
 3150 0014 9B69     		ldr	r3, [r3, #24]
 3151              	.LVL197:
1642:../../Drivers/STM32L5xx_HAL_Driver/Src/stm32l5xx_hal_rtc_ex.c ****   {
 3152              		.loc 1 1642 3 is_stmt 1 view .LVU1021
1642:../../Drivers/STM32L5xx_HAL_Driver/Src/stm32l5xx_hal_rtc_ex.c ****   {
 3153              		.loc 1 1642 11 is_stmt 0 view .LVU1022
 3154 0016 03F00073 		and	r3, r3, #33554432
 3155              	.LVL198:
1642:../../Drivers/STM32L5xx_HAL_Driver/Src/stm32l5xx_hal_rtc_ex.c ****   {
 3156              		.loc 1 1642 42 view .LVU1023
 3157 001a A268     		ldr	r2, [r4, #8]
1642:../../Drivers/STM32L5xx_HAL_Driver/Src/stm32l5xx_hal_rtc_ex.c ****   {
ARM GAS  C:\Users\carlos\AppData\Local\Temp\ccaMGGVT.s 			page 90


 3158              		.loc 1 1642 6 view .LVU1024
 3159 001c 9342     		cmp	r3, r2
 3160 001e 0CD0     		beq	.L226
1644:../../Drivers/STM32L5xx_HAL_Driver/Src/stm32l5xx_hal_rtc_ex.c ****     MODIFY_REG(RTC->CR, RTC_CR_TAMPTS, sAllTamper->TimeStampOnTamperDetection);
 3161              		.loc 1 1644 5 is_stmt 1 view .LVU1025
1644:../../Drivers/STM32L5xx_HAL_Driver/Src/stm32l5xx_hal_rtc_ex.c ****     MODIFY_REG(RTC->CR, RTC_CR_TAMPTS, sAllTamper->TimeStampOnTamperDetection);
 3162              		.loc 1 1644 5 view .LVU1026
 3163 0020 464B     		ldr	r3, .L242+4
 3164 0022 CA22     		movs	r2, #202
 3165 0024 5A62     		str	r2, [r3, #36]
1644:../../Drivers/STM32L5xx_HAL_Driver/Src/stm32l5xx_hal_rtc_ex.c ****     MODIFY_REG(RTC->CR, RTC_CR_TAMPTS, sAllTamper->TimeStampOnTamperDetection);
 3166              		.loc 1 1644 5 view .LVU1027
 3167 0026 5322     		movs	r2, #83
 3168 0028 5A62     		str	r2, [r3, #36]
1644:../../Drivers/STM32L5xx_HAL_Driver/Src/stm32l5xx_hal_rtc_ex.c ****     MODIFY_REG(RTC->CR, RTC_CR_TAMPTS, sAllTamper->TimeStampOnTamperDetection);
 3169              		.loc 1 1644 5 view .LVU1028
1645:../../Drivers/STM32L5xx_HAL_Driver/Src/stm32l5xx_hal_rtc_ex.c ****     __HAL_RTC_WRITEPROTECTION_ENABLE(hrtc);
 3170              		.loc 1 1645 5 view .LVU1029
 3171 002a 9A69     		ldr	r2, [r3, #24]
 3172 002c 22F00072 		bic	r2, r2, #33554432
 3173 0030 A168     		ldr	r1, [r4, #8]
 3174 0032 0A43     		orrs	r2, r2, r1
 3175 0034 9A61     		str	r2, [r3, #24]
1646:../../Drivers/STM32L5xx_HAL_Driver/Src/stm32l5xx_hal_rtc_ex.c ****   }
 3176              		.loc 1 1646 5 view .LVU1030
1646:../../Drivers/STM32L5xx_HAL_Driver/Src/stm32l5xx_hal_rtc_ex.c ****   }
 3177              		.loc 1 1646 5 view .LVU1031
 3178 0036 FF22     		movs	r2, #255
 3179 0038 5A62     		str	r2, [r3, #36]
 3180              	.L226:
1646:../../Drivers/STM32L5xx_HAL_Driver/Src/stm32l5xx_hal_rtc_ex.c ****   }
 3181              		.loc 1 1646 5 discriminator 1 view .LVU1032
1649:../../Drivers/STM32L5xx_HAL_Driver/Src/stm32l5xx_hal_rtc_ex.c ****   CR2 = READ_REG(TAMP->CR2);
 3182              		.loc 1 1649 3 discriminator 1 view .LVU1033
1649:../../Drivers/STM32L5xx_HAL_Driver/Src/stm32l5xx_hal_rtc_ex.c ****   CR2 = READ_REG(TAMP->CR2);
 3183              		.loc 1 1649 7 is_stmt 0 discriminator 1 view .LVU1034
 3184 003a 3F4B     		ldr	r3, .L242
 3185 003c 1E68     		ldr	r6, [r3]
 3186              	.LVL199:
1650:../../Drivers/STM32L5xx_HAL_Driver/Src/stm32l5xx_hal_rtc_ex.c ****   ATCR2 = 0U;
 3187              		.loc 1 1650 3 is_stmt 1 discriminator 1 view .LVU1035
1650:../../Drivers/STM32L5xx_HAL_Driver/Src/stm32l5xx_hal_rtc_ex.c ****   ATCR2 = 0U;
 3188              		.loc 1 1650 7 is_stmt 0 discriminator 1 view .LVU1036
 3189 003e 5868     		ldr	r0, [r3, #4]
 3190              	.LVL200:
1651:../../Drivers/STM32L5xx_HAL_Driver/Src/stm32l5xx_hal_rtc_ex.c ****   IER = READ_REG(TAMP->IER);
 3191              		.loc 1 1651 3 is_stmt 1 discriminator 1 view .LVU1037
1652:../../Drivers/STM32L5xx_HAL_Driver/Src/stm32l5xx_hal_rtc_ex.c **** 
 3192              		.loc 1 1652 3 discriminator 1 view .LVU1038
1652:../../Drivers/STM32L5xx_HAL_Driver/Src/stm32l5xx_hal_rtc_ex.c **** 
 3193              		.loc 1 1652 7 is_stmt 0 discriminator 1 view .LVU1039
 3194 0040 D3F82CC0 		ldr	ip, [r3, #44]
 3195              	.LVL201:
1655:../../Drivers/STM32L5xx_HAL_Driver/Src/stm32l5xx_hal_rtc_ex.c **** 
 3196              		.loc 1 1655 3 is_stmt 1 discriminator 1 view .LVU1040
1655:../../Drivers/STM32L5xx_HAL_Driver/Src/stm32l5xx_hal_rtc_ex.c **** 
 3197              		.loc 1 1655 22 is_stmt 0 discriminator 1 view .LVU1041
ARM GAS  C:\Users\carlos\AppData\Local\Temp\ccaMGGVT.s 			page 91


 3198 0044 2168     		ldr	r1, [r4]
1655:../../Drivers/STM32L5xx_HAL_Driver/Src/stm32l5xx_hal_rtc_ex.c **** 
 3199              		.loc 1 1655 50 discriminator 1 view .LVU1042
 3200 0046 E368     		ldr	r3, [r4, #12]
1655:../../Drivers/STM32L5xx_HAL_Driver/Src/stm32l5xx_hal_rtc_ex.c **** 
 3201              		.loc 1 1655 37 discriminator 1 view .LVU1043
 3202 0048 41EA0361 		orr	r1, r1, r3, lsl #24
1655:../../Drivers/STM32L5xx_HAL_Driver/Src/stm32l5xx_hal_rtc_ex.c **** 
 3203              		.loc 1 1655 114 discriminator 1 view .LVU1044
 3204 004c 6368     		ldr	r3, [r4, #4]
1655:../../Drivers/STM32L5xx_HAL_Driver/Src/stm32l5xx_hal_rtc_ex.c **** 
 3205              		.loc 1 1655 9 discriminator 1 view .LVU1045
 3206 004e 1943     		orrs	r1, r1, r3
 3207              	.LVL202:
1658:../../Drivers/STM32L5xx_HAL_Driver/Src/stm32l5xx_hal_rtc_ex.c ****   {
 3208              		.loc 1 1658 3 is_stmt 1 discriminator 1 view .LVU1046
1658:../../Drivers/STM32L5xx_HAL_Driver/Src/stm32l5xx_hal_rtc_ex.c ****   {
 3209              		.loc 1 1658 10 is_stmt 0 discriminator 1 view .LVU1047
 3210 0050 0023     		movs	r3, #0
1651:../../Drivers/STM32L5xx_HAL_Driver/Src/stm32l5xx_hal_rtc_ex.c ****   IER = READ_REG(TAMP->IER);
 3211              		.loc 1 1651 9 discriminator 1 view .LVU1048
 3212 0052 1F46     		mov	r7, r3
1658:../../Drivers/STM32L5xx_HAL_Driver/Src/stm32l5xx_hal_rtc_ex.c ****   {
 3213              		.loc 1 1658 3 discriminator 1 view .LVU1049
 3214 0054 13E0     		b	.L227
 3215              	.LVL203:
 3216              	.L239:
1637:../../Drivers/STM32L5xx_HAL_Driver/Src/stm32l5xx_hal_rtc_ex.c ****   }
 3217              		.loc 1 1637 5 is_stmt 1 view .LVU1050
1637:../../Drivers/STM32L5xx_HAL_Driver/Src/stm32l5xx_hal_rtc_ex.c ****   }
 3218              		.loc 1 1637 12 is_stmt 0 view .LVU1051
 3219 0056 FFF7FEFF 		bl	HAL_RTCEx_DeactivateActiveTampers
 3220              	.LVL204:
1637:../../Drivers/STM32L5xx_HAL_Driver/Src/stm32l5xx_hal_rtc_ex.c ****   }
 3221              		.loc 1 1637 12 view .LVU1052
 3222 005a DAE7     		b	.L225
 3223              	.LVL205:
 3224              	.L231:
1685:../../Drivers/STM32L5xx_HAL_Driver/Src/stm32l5xx_hal_rtc_ex.c **** 
 3225              		.loc 1 1685 7 is_stmt 1 view .LVU1053
1685:../../Drivers/STM32L5xx_HAL_Driver/Src/stm32l5xx_hal_rtc_ex.c **** 
 3226              		.loc 1 1685 40 is_stmt 0 view .LVU1054
 3227 005c 03EB8302 		add	r2, r3, r3, lsl #2
 3228 0060 04EB8202 		add	r2, r4, r2, lsl #2
 3229 0064 D2F828E0 		ldr	lr, [r2, #40]
1685:../../Drivers/STM32L5xx_HAL_Driver/Src/stm32l5xx_hal_rtc_ex.c **** 
 3230              		.loc 1 1685 56 view .LVU1055
 3231 0068 03EB4302 		add	r2, r3, r3, lsl #1
1685:../../Drivers/STM32L5xx_HAL_Driver/Src/stm32l5xx_hal_rtc_ex.c **** 
 3232              		.loc 1 1685 61 view .LVU1056
 3233 006c 0832     		adds	r2, r2, #8
1685:../../Drivers/STM32L5xx_HAL_Driver/Src/stm32l5xx_hal_rtc_ex.c **** 
 3234              		.loc 1 1685 48 view .LVU1057
 3235 006e 0EFA02F2 		lsl	r2, lr, r2
1685:../../Drivers/STM32L5xx_HAL_Driver/Src/stm32l5xx_hal_rtc_ex.c **** 
 3236              		.loc 1 1685 13 view .LVU1058
 3237 0072 1743     		orrs	r7, r7, r2
ARM GAS  C:\Users\carlos\AppData\Local\Temp\ccaMGGVT.s 			page 92


 3238              	.LVL206:
1687:../../Drivers/STM32L5xx_HAL_Driver/Src/stm32l5xx_hal_rtc_ex.c ****       {
 3239              		.loc 1 1687 7 is_stmt 1 view .LVU1059
1687:../../Drivers/STM32L5xx_HAL_Driver/Src/stm32l5xx_hal_rtc_ex.c ****       {
 3240              		.loc 1 1687 10 is_stmt 0 view .LVU1060
 3241 0074 9E45     		cmp	lr, r3
 3242 0076 01D0     		beq	.L228
1689:../../Drivers/STM32L5xx_HAL_Driver/Src/stm32l5xx_hal_rtc_ex.c ****       }
 3243              		.loc 1 1689 9 is_stmt 1 view .LVU1061
1689:../../Drivers/STM32L5xx_HAL_Driver/Src/stm32l5xx_hal_rtc_ex.c ****       }
 3244              		.loc 1 1689 15 is_stmt 0 view .LVU1062
 3245 0078 41F08041 		orr	r1, r1, #1073741824
 3246              	.LVL207:
 3247              	.L228:
1658:../../Drivers/STM32L5xx_HAL_Driver/Src/stm32l5xx_hal_rtc_ex.c ****   {
 3248              		.loc 1 1658 32 is_stmt 1 discriminator 2 view .LVU1063
1658:../../Drivers/STM32L5xx_HAL_Driver/Src/stm32l5xx_hal_rtc_ex.c ****   {
 3249              		.loc 1 1658 33 is_stmt 0 discriminator 2 view .LVU1064
 3250 007c 0133     		adds	r3, r3, #1
 3251              	.LVL208:
 3252              	.L227:
1658:../../Drivers/STM32L5xx_HAL_Driver/Src/stm32l5xx_hal_rtc_ex.c ****   {
 3253              		.loc 1 1658 15 is_stmt 1 discriminator 1 view .LVU1065
1658:../../Drivers/STM32L5xx_HAL_Driver/Src/stm32l5xx_hal_rtc_ex.c ****   {
 3254              		.loc 1 1658 3 is_stmt 0 discriminator 1 view .LVU1066
 3255 007e 072B     		cmp	r3, #7
 3256 0080 31D8     		bhi	.L240
1660:../../Drivers/STM32L5xx_HAL_Driver/Src/stm32l5xx_hal_rtc_ex.c ****     {
 3257              		.loc 1 1660 5 is_stmt 1 view .LVU1067
1660:../../Drivers/STM32L5xx_HAL_Driver/Src/stm32l5xx_hal_rtc_ex.c ****     {
 3258              		.loc 1 1660 33 is_stmt 0 view .LVU1068
 3259 0082 03EB8302 		add	r2, r3, r3, lsl #2
 3260 0086 04EB8202 		add	r2, r4, r2, lsl #2
 3261 008a 126A     		ldr	r2, [r2, #32]
1660:../../Drivers/STM32L5xx_HAL_Driver/Src/stm32l5xx_hal_rtc_ex.c ****     {
 3262              		.loc 1 1660 8 view .LVU1069
 3263 008c 002A     		cmp	r2, #0
 3264 008e F5D0     		beq	.L228
1662:../../Drivers/STM32L5xx_HAL_Driver/Src/stm32l5xx_hal_rtc_ex.c ****       ATCR1 |= (TAMP_ATCR1_TAMP1AM << i);
 3265              		.loc 1 1662 7 is_stmt 1 view .LVU1070
1662:../../Drivers/STM32L5xx_HAL_Driver/Src/stm32l5xx_hal_rtc_ex.c ****       ATCR1 |= (TAMP_ATCR1_TAMP1AM << i);
 3266              		.loc 1 1662 31 is_stmt 0 view .LVU1071
 3267 0090 0122     		movs	r2, #1
 3268 0092 9A40     		lsls	r2, r2, r3
1662:../../Drivers/STM32L5xx_HAL_Driver/Src/stm32l5xx_hal_rtc_ex.c ****       ATCR1 |= (TAMP_ATCR1_TAMP1AM << i);
 3269              		.loc 1 1662 11 view .LVU1072
 3270 0094 1643     		orrs	r6, r6, r2
 3271              	.LVL209:
1663:../../Drivers/STM32L5xx_HAL_Driver/Src/stm32l5xx_hal_rtc_ex.c **** 
 3272              		.loc 1 1663 7 is_stmt 1 view .LVU1073
1663:../../Drivers/STM32L5xx_HAL_Driver/Src/stm32l5xx_hal_rtc_ex.c **** 
 3273              		.loc 1 1663 13 is_stmt 0 view .LVU1074
 3274 0096 1143     		orrs	r1, r1, r2
 3275              	.LVL210:
1665:../../Drivers/STM32L5xx_HAL_Driver/Src/stm32l5xx_hal_rtc_ex.c ****       {
 3276              		.loc 1 1665 7 is_stmt 1 view .LVU1075
1665:../../Drivers/STM32L5xx_HAL_Driver/Src/stm32l5xx_hal_rtc_ex.c ****       {
ARM GAS  C:\Users\carlos\AppData\Local\Temp\ccaMGGVT.s 			page 93


 3277              		.loc 1 1665 35 is_stmt 0 view .LVU1076
 3278 0098 03EB830E 		add	lr, r3, r3, lsl #2
 3279 009c 04EB8E0E 		add	lr, r4, lr, lsl #2
 3280 00a0 DEF82450 		ldr	r5, [lr, #36]
1665:../../Drivers/STM32L5xx_HAL_Driver/Src/stm32l5xx_hal_rtc_ex.c ****       {
 3281              		.loc 1 1665 10 view .LVU1077
 3282 00a4 45B1     		cbz	r5, .L229
1668:../../Drivers/STM32L5xx_HAL_Driver/Src/stm32l5xx_hal_rtc_ex.c **** 
 3283              		.loc 1 1668 9 is_stmt 1 view .LVU1078
 3284 00a6 264D     		ldr	r5, .L242+8
 3285 00a8 D5F880E0 		ldr	lr, [r5, #128]
 3286 00ac 4EF4801E 		orr	lr, lr, #1048576
 3287 00b0 C5F880E0 		str	lr, [r5, #128]
1671:../../Drivers/STM32L5xx_HAL_Driver/Src/stm32l5xx_hal_rtc_ex.c ****       }
 3288              		.loc 1 1671 9 view .LVU1079
1671:../../Drivers/STM32L5xx_HAL_Driver/Src/stm32l5xx_hal_rtc_ex.c ****       }
 3289              		.loc 1 1671 13 is_stmt 0 view .LVU1080
 3290 00b4 4CEA020C 		orr	ip, ip, r2
 3291              	.LVL211:
 3292              	.L229:
1674:../../Drivers/STM32L5xx_HAL_Driver/Src/stm32l5xx_hal_rtc_ex.c ****       {
 3293              		.loc 1 1674 7 is_stmt 1 view .LVU1081
1674:../../Drivers/STM32L5xx_HAL_Driver/Src/stm32l5xx_hal_rtc_ex.c ****       {
 3294              		.loc 1 1674 35 is_stmt 0 view .LVU1082
 3295 00b8 03EB830E 		add	lr, r3, r3, lsl #2
 3296 00bc 04EB8E0E 		add	lr, r4, lr, lsl #2
 3297 00c0 DEF83050 		ldr	r5, [lr, #48]
1674:../../Drivers/STM32L5xx_HAL_Driver/Src/stm32l5xx_hal_rtc_ex.c ****       {
 3298              		.loc 1 1674 10 view .LVU1083
 3299 00c4 2DB1     		cbz	r5, .L230
1676:../../Drivers/STM32L5xx_HAL_Driver/Src/stm32l5xx_hal_rtc_ex.c ****       }
 3300              		.loc 1 1676 9 is_stmt 1 view .LVU1084
1676:../../Drivers/STM32L5xx_HAL_Driver/Src/stm32l5xx_hal_rtc_ex.c ****       }
 3301              		.loc 1 1676 35 is_stmt 0 view .LVU1085
 3302 00c6 4FF4803E 		mov	lr, #65536
 3303 00ca 0EFA03FE 		lsl	lr, lr, r3
1676:../../Drivers/STM32L5xx_HAL_Driver/Src/stm32l5xx_hal_rtc_ex.c ****       }
 3304              		.loc 1 1676 13 view .LVU1086
 3305 00ce 40EA0E00 		orr	r0, r0, lr
 3306              	.LVL212:
 3307              	.L230:
1679:../../Drivers/STM32L5xx_HAL_Driver/Src/stm32l5xx_hal_rtc_ex.c ****       {
 3308              		.loc 1 1679 7 is_stmt 1 view .LVU1087
1679:../../Drivers/STM32L5xx_HAL_Driver/Src/stm32l5xx_hal_rtc_ex.c ****       {
 3309              		.loc 1 1679 35 is_stmt 0 view .LVU1088
 3310 00d2 03EB830E 		add	lr, r3, r3, lsl #2
 3311 00d6 04EB8E0E 		add	lr, r4, lr, lsl #2
 3312 00da DEF82C50 		ldr	r5, [lr, #44]
1679:../../Drivers/STM32L5xx_HAL_Driver/Src/stm32l5xx_hal_rtc_ex.c ****       {
 3313              		.loc 1 1679 10 view .LVU1089
 3314 00de 002D     		cmp	r5, #0
 3315 00e0 BCD0     		beq	.L231
1681:../../Drivers/STM32L5xx_HAL_Driver/Src/stm32l5xx_hal_rtc_ex.c ****       }
 3316              		.loc 1 1681 9 is_stmt 1 view .LVU1090
1681:../../Drivers/STM32L5xx_HAL_Driver/Src/stm32l5xx_hal_rtc_ex.c ****       }
 3317              		.loc 1 1681 13 is_stmt 0 view .LVU1091
 3318 00e2 1043     		orrs	r0, r0, r2
ARM GAS  C:\Users\carlos\AppData\Local\Temp\ccaMGGVT.s 			page 94


 3319              	.LVL213:
1681:../../Drivers/STM32L5xx_HAL_Driver/Src/stm32l5xx_hal_rtc_ex.c ****       }
 3320              		.loc 1 1681 13 view .LVU1092
 3321 00e4 BAE7     		b	.L231
 3322              	.L240:
1694:../../Drivers/STM32L5xx_HAL_Driver/Src/stm32l5xx_hal_rtc_ex.c ****   WRITE_REG(TAMP->IER, IER);
 3323              		.loc 1 1694 3 is_stmt 1 view .LVU1093
 3324 00e6 144B     		ldr	r3, .L242
 3325              	.LVL214:
1694:../../Drivers/STM32L5xx_HAL_Driver/Src/stm32l5xx_hal_rtc_ex.c ****   WRITE_REG(TAMP->IER, IER);
 3326              		.loc 1 1694 3 is_stmt 0 view .LVU1094
 3327 00e8 C3F82CC0 		str	ip, [r3, #44]
1695:../../Drivers/STM32L5xx_HAL_Driver/Src/stm32l5xx_hal_rtc_ex.c ****   WRITE_REG(TAMP->ATCR1, ATCR1);
 3328              		.loc 1 1695 3 is_stmt 1 view .LVU1095
 3329 00ec C3F82CC0 		str	ip, [r3, #44]
1696:../../Drivers/STM32L5xx_HAL_Driver/Src/stm32l5xx_hal_rtc_ex.c ****   WRITE_REG(TAMP->ATCR2, ATCR2);
 3330              		.loc 1 1696 3 view .LVU1096
 3331 00f0 1961     		str	r1, [r3, #16]
1697:../../Drivers/STM32L5xx_HAL_Driver/Src/stm32l5xx_hal_rtc_ex.c ****   WRITE_REG(TAMP->CR2, CR2);
 3332              		.loc 1 1697 3 view .LVU1097
 3333 00f2 DF61     		str	r7, [r3, #28]
1698:../../Drivers/STM32L5xx_HAL_Driver/Src/stm32l5xx_hal_rtc_ex.c ****   WRITE_REG(TAMP->CR1, CR1);
 3334              		.loc 1 1698 3 view .LVU1098
 3335 00f4 5860     		str	r0, [r3, #4]
1699:../../Drivers/STM32L5xx_HAL_Driver/Src/stm32l5xx_hal_rtc_ex.c **** 
 3336              		.loc 1 1699 3 view .LVU1099
 3337 00f6 1E60     		str	r6, [r3]
1702:../../Drivers/STM32L5xx_HAL_Driver/Src/stm32l5xx_hal_rtc_ex.c ****   {
 3338              		.loc 1 1702 3 view .LVU1100
 3339              	.LVL215:
1702:../../Drivers/STM32L5xx_HAL_Driver/Src/stm32l5xx_hal_rtc_ex.c ****   {
 3340              		.loc 1 1702 10 is_stmt 0 view .LVU1101
 3341 00f8 0023     		movs	r3, #0
1702:../../Drivers/STM32L5xx_HAL_Driver/Src/stm32l5xx_hal_rtc_ex.c ****   {
 3342              		.loc 1 1702 3 view .LVU1102
 3343 00fa 05E0     		b	.L233
 3344              	.LVL216:
 3345              	.L234:
1704:../../Drivers/STM32L5xx_HAL_Driver/Src/stm32l5xx_hal_rtc_ex.c ****   }
 3346              		.loc 1 1704 5 is_stmt 1 discriminator 3 view .LVU1103
 3347 00fc 1A1D     		adds	r2, r3, #4
 3348 00fe 54F82210 		ldr	r1, [r4, r2, lsl #2]
 3349 0102 0D4A     		ldr	r2, .L242
 3350 0104 5161     		str	r1, [r2, #20]
1702:../../Drivers/STM32L5xx_HAL_Driver/Src/stm32l5xx_hal_rtc_ex.c ****   {
 3351              		.loc 1 1702 45 discriminator 3 view .LVU1104
1702:../../Drivers/STM32L5xx_HAL_Driver/Src/stm32l5xx_hal_rtc_ex.c ****   {
 3352              		.loc 1 1702 46 is_stmt 0 discriminator 3 view .LVU1105
 3353 0106 0133     		adds	r3, r3, #1
 3354              	.LVL217:
 3355              	.L233:
1702:../../Drivers/STM32L5xx_HAL_Driver/Src/stm32l5xx_hal_rtc_ex.c ****   {
 3356              		.loc 1 1702 15 is_stmt 1 discriminator 1 view .LVU1106
1702:../../Drivers/STM32L5xx_HAL_Driver/Src/stm32l5xx_hal_rtc_ex.c ****   {
 3357              		.loc 1 1702 3 is_stmt 0 discriminator 1 view .LVU1107
 3358 0108 032B     		cmp	r3, #3
 3359 010a F7D9     		bls	.L234
ARM GAS  C:\Users\carlos\AppData\Local\Temp\ccaMGGVT.s 			page 95


1708:../../Drivers/STM32L5xx_HAL_Driver/Src/stm32l5xx_hal_rtc_ex.c ****   while (READ_BIT(TAMP->ATOR,  TAMP_ATOR_SEEDF) != 0u)
 3360              		.loc 1 1708 3 is_stmt 1 view .LVU1108
1708:../../Drivers/STM32L5xx_HAL_Driver/Src/stm32l5xx_hal_rtc_ex.c ****   while (READ_BIT(TAMP->ATOR,  TAMP_ATOR_SEEDF) != 0u)
 3361              		.loc 1 1708 15 is_stmt 0 view .LVU1109
 3362 010c FFF7FEFF 		bl	HAL_GetTick
 3363              	.LVL218:
1708:../../Drivers/STM32L5xx_HAL_Driver/Src/stm32l5xx_hal_rtc_ex.c ****   while (READ_BIT(TAMP->ATOR,  TAMP_ATOR_SEEDF) != 0u)
 3364              		.loc 1 1708 15 view .LVU1110
 3365 0110 0446     		mov	r4, r0
 3366              	.LVL219:
1709:../../Drivers/STM32L5xx_HAL_Driver/Src/stm32l5xx_hal_rtc_ex.c ****   {
 3367              		.loc 1 1709 3 is_stmt 1 view .LVU1111
 3368              	.L235:
1709:../../Drivers/STM32L5xx_HAL_Driver/Src/stm32l5xx_hal_rtc_ex.c ****   {
 3369              		.loc 1 1709 9 view .LVU1112
1709:../../Drivers/STM32L5xx_HAL_Driver/Src/stm32l5xx_hal_rtc_ex.c ****   {
 3370              		.loc 1 1709 10 is_stmt 0 view .LVU1113
 3371 0112 094B     		ldr	r3, .L242
 3372 0114 9B69     		ldr	r3, [r3, #24]
1709:../../Drivers/STM32L5xx_HAL_Driver/Src/stm32l5xx_hal_rtc_ex.c ****   {
 3373              		.loc 1 1709 9 view .LVU1114
 3374 0116 13F4804F 		tst	r3, #16384
 3375 011a 09D0     		beq	.L241
1711:../../Drivers/STM32L5xx_HAL_Driver/Src/stm32l5xx_hal_rtc_ex.c ****     {
 3376              		.loc 1 1711 5 is_stmt 1 view .LVU1115
1711:../../Drivers/STM32L5xx_HAL_Driver/Src/stm32l5xx_hal_rtc_ex.c ****     {
 3377              		.loc 1 1711 10 is_stmt 0 view .LVU1116
 3378 011c FFF7FEFF 		bl	HAL_GetTick
 3379              	.LVL220:
1711:../../Drivers/STM32L5xx_HAL_Driver/Src/stm32l5xx_hal_rtc_ex.c ****     {
 3380              		.loc 1 1711 24 view .LVU1117
 3381 0120 001B     		subs	r0, r0, r4
1711:../../Drivers/STM32L5xx_HAL_Driver/Src/stm32l5xx_hal_rtc_ex.c ****     {
 3382              		.loc 1 1711 8 view .LVU1118
 3383 0122 B0F57A7F 		cmp	r0, #1000
 3384 0126 F4D9     		bls	.L235
1713:../../Drivers/STM32L5xx_HAL_Driver/Src/stm32l5xx_hal_rtc_ex.c ****       return HAL_TIMEOUT;
 3385              		.loc 1 1713 7 is_stmt 1 view .LVU1119
1713:../../Drivers/STM32L5xx_HAL_Driver/Src/stm32l5xx_hal_rtc_ex.c ****       return HAL_TIMEOUT;
 3386              		.loc 1 1713 19 is_stmt 0 view .LVU1120
 3387 0128 0320     		movs	r0, #3
 3388 012a 88F82500 		strb	r0, [r8, #37]
1714:../../Drivers/STM32L5xx_HAL_Driver/Src/stm32l5xx_hal_rtc_ex.c ****     }
 3389              		.loc 1 1714 7 is_stmt 1 view .LVU1121
1714:../../Drivers/STM32L5xx_HAL_Driver/Src/stm32l5xx_hal_rtc_ex.c ****     }
 3390              		.loc 1 1714 14 is_stmt 0 view .LVU1122
 3391 012e 00E0     		b	.L236
 3392              	.L241:
1718:../../Drivers/STM32L5xx_HAL_Driver/Src/stm32l5xx_hal_rtc_ex.c **** }
 3393              		.loc 1 1718 10 view .LVU1123
 3394 0130 0020     		movs	r0, #0
 3395              	.L236:
1719:../../Drivers/STM32L5xx_HAL_Driver/Src/stm32l5xx_hal_rtc_ex.c **** 
 3396              		.loc 1 1719 1 view .LVU1124
 3397 0132 BDE8F081 		pop	{r4, r5, r6, r7, r8, pc}
 3398              	.LVL221:
 3399              	.L243:
ARM GAS  C:\Users\carlos\AppData\Local\Temp\ccaMGGVT.s 			page 96


1719:../../Drivers/STM32L5xx_HAL_Driver/Src/stm32l5xx_hal_rtc_ex.c **** 
 3400              		.loc 1 1719 1 view .LVU1125
 3401 0136 00BF     		.align	2
 3402              	.L242:
 3403 0138 00340050 		.word	1342190592
 3404 013c 00280050 		.word	1342187520
 3405 0140 00F40250 		.word	1342370816
 3406              		.cfi_endproc
 3407              	.LFE234:
 3409              		.section	.text.HAL_RTCEx_PollForTamperEvent,"ax",%progbits
 3410              		.align	1
 3411              		.global	HAL_RTCEx_PollForTamperEvent
 3412              		.syntax unified
 3413              		.thumb
 3414              		.thumb_func
 3415              		.fpu fpv4-sp-d16
 3417              	HAL_RTCEx_PollForTamperEvent:
 3418              	.LVL222:
 3419              	.LFB237:
1787:../../Drivers/STM32L5xx_HAL_Driver/Src/stm32l5xx_hal_rtc_ex.c **** 
1788:../../Drivers/STM32L5xx_HAL_Driver/Src/stm32l5xx_hal_rtc_ex.c **** 
1789:../../Drivers/STM32L5xx_HAL_Driver/Src/stm32l5xx_hal_rtc_ex.c **** /**
1790:../../Drivers/STM32L5xx_HAL_Driver/Src/stm32l5xx_hal_rtc_ex.c ****   * @brief  Tamper event polling.
1791:../../Drivers/STM32L5xx_HAL_Driver/Src/stm32l5xx_hal_rtc_ex.c ****   * @param  hrtc RTC handle
1792:../../Drivers/STM32L5xx_HAL_Driver/Src/stm32l5xx_hal_rtc_ex.c ****   * @param  Tamper Selected tamper pin.
1793:../../Drivers/STM32L5xx_HAL_Driver/Src/stm32l5xx_hal_rtc_ex.c ****   *         This parameter can be a combination of the following values:
1794:../../Drivers/STM32L5xx_HAL_Driver/Src/stm32l5xx_hal_rtc_ex.c ****   *         @arg RTC_TAMPER_1
1795:../../Drivers/STM32L5xx_HAL_Driver/Src/stm32l5xx_hal_rtc_ex.c ****   *         @arg RTC_TAMPER_2
1796:../../Drivers/STM32L5xx_HAL_Driver/Src/stm32l5xx_hal_rtc_ex.c ****   *         @arg RTC_TAMPER_3
1797:../../Drivers/STM32L5xx_HAL_Driver/Src/stm32l5xx_hal_rtc_ex.c ****   *         @arg RTC_TAMPER_4
1798:../../Drivers/STM32L5xx_HAL_Driver/Src/stm32l5xx_hal_rtc_ex.c ****   *         @arg RTC_TAMPER_5
1799:../../Drivers/STM32L5xx_HAL_Driver/Src/stm32l5xx_hal_rtc_ex.c ****   *         @arg RTC_TAMPER_6
1800:../../Drivers/STM32L5xx_HAL_Driver/Src/stm32l5xx_hal_rtc_ex.c ****   *         @arg RTC_TAMPER_7
1801:../../Drivers/STM32L5xx_HAL_Driver/Src/stm32l5xx_hal_rtc_ex.c ****   *         @arg RTC_TAMPER_8
1802:../../Drivers/STM32L5xx_HAL_Driver/Src/stm32l5xx_hal_rtc_ex.c ****   * @param  Timeout Timeout duration
1803:../../Drivers/STM32L5xx_HAL_Driver/Src/stm32l5xx_hal_rtc_ex.c ****   * @retval HAL status
1804:../../Drivers/STM32L5xx_HAL_Driver/Src/stm32l5xx_hal_rtc_ex.c ****   */
1805:../../Drivers/STM32L5xx_HAL_Driver/Src/stm32l5xx_hal_rtc_ex.c **** HAL_StatusTypeDef HAL_RTCEx_PollForTamperEvent(RTC_HandleTypeDef *hrtc, uint32_t Tamper, uint32_t T
1806:../../Drivers/STM32L5xx_HAL_Driver/Src/stm32l5xx_hal_rtc_ex.c **** {
 3420              		.loc 1 1806 1 is_stmt 1 view -0
 3421              		.cfi_startproc
 3422              		@ args = 0, pretend = 0, frame = 0
 3423              		@ frame_needed = 0, uses_anonymous_args = 0
 3424              		.loc 1 1806 1 is_stmt 0 view .LVU1127
 3425 0000 70B5     		push	{r4, r5, r6, lr}
 3426              	.LCFI18:
 3427              		.cfi_def_cfa_offset 16
 3428              		.cfi_offset 4, -16
 3429              		.cfi_offset 5, -12
 3430              		.cfi_offset 6, -8
 3431              		.cfi_offset 14, -4
 3432 0002 0C46     		mov	r4, r1
 3433 0004 1546     		mov	r5, r2
1807:../../Drivers/STM32L5xx_HAL_Driver/Src/stm32l5xx_hal_rtc_ex.c ****   UNUSED(hrtc);
 3434              		.loc 1 1807 3 is_stmt 1 view .LVU1128
1808:../../Drivers/STM32L5xx_HAL_Driver/Src/stm32l5xx_hal_rtc_ex.c ****   assert_param(IS_RTC_TAMPER(Tamper));
 3435              		.loc 1 1808 3 view .LVU1129
ARM GAS  C:\Users\carlos\AppData\Local\Temp\ccaMGGVT.s 			page 97


1809:../../Drivers/STM32L5xx_HAL_Driver/Src/stm32l5xx_hal_rtc_ex.c **** 
1810:../../Drivers/STM32L5xx_HAL_Driver/Src/stm32l5xx_hal_rtc_ex.c ****   uint32_t tickstart = HAL_GetTick();
 3436              		.loc 1 1810 3 view .LVU1130
 3437              		.loc 1 1810 24 is_stmt 0 view .LVU1131
 3438 0006 FFF7FEFF 		bl	HAL_GetTick
 3439              	.LVL223:
 3440              		.loc 1 1810 24 view .LVU1132
 3441 000a 0646     		mov	r6, r0
 3442              	.LVL224:
1811:../../Drivers/STM32L5xx_HAL_Driver/Src/stm32l5xx_hal_rtc_ex.c **** 
1812:../../Drivers/STM32L5xx_HAL_Driver/Src/stm32l5xx_hal_rtc_ex.c ****   /* Get the status of the Interrupt */
1813:../../Drivers/STM32L5xx_HAL_Driver/Src/stm32l5xx_hal_rtc_ex.c ****   while (READ_BIT(TAMP->SR, Tamper) != Tamper)
 3443              		.loc 1 1813 3 is_stmt 1 view .LVU1133
 3444              	.L246:
 3445              		.loc 1 1813 9 view .LVU1134
 3446              		.loc 1 1813 10 is_stmt 0 view .LVU1135
 3447 000c 0B4B     		ldr	r3, .L253
 3448 000e 1B6B     		ldr	r3, [r3, #48]
 3449              		.loc 1 1813 9 view .LVU1136
 3450 0010 34EA0303 		bics	r3, r4, r3
 3451 0014 0BD0     		beq	.L252
1814:../../Drivers/STM32L5xx_HAL_Driver/Src/stm32l5xx_hal_rtc_ex.c ****   {
1815:../../Drivers/STM32L5xx_HAL_Driver/Src/stm32l5xx_hal_rtc_ex.c ****     if (Timeout != HAL_MAX_DELAY)
 3452              		.loc 1 1815 5 is_stmt 1 view .LVU1137
 3453              		.loc 1 1815 8 is_stmt 0 view .LVU1138
 3454 0016 B5F1FF3F 		cmp	r5, #-1
 3455 001a F7D0     		beq	.L246
1816:../../Drivers/STM32L5xx_HAL_Driver/Src/stm32l5xx_hal_rtc_ex.c ****     {
1817:../../Drivers/STM32L5xx_HAL_Driver/Src/stm32l5xx_hal_rtc_ex.c ****       if (((HAL_GetTick() - tickstart) > Timeout) || (Timeout == 0U))
 3456              		.loc 1 1817 7 is_stmt 1 view .LVU1139
 3457              		.loc 1 1817 13 is_stmt 0 view .LVU1140
 3458 001c FFF7FEFF 		bl	HAL_GetTick
 3459              	.LVL225:
 3460              		.loc 1 1817 27 view .LVU1141
 3461 0020 801B     		subs	r0, r0, r6
 3462              		.loc 1 1817 10 view .LVU1142
 3463 0022 A842     		cmp	r0, r5
 3464 0024 07D8     		bhi	.L249
 3465              		.loc 1 1817 51 discriminator 1 view .LVU1143
 3466 0026 002D     		cmp	r5, #0
 3467 0028 F0D1     		bne	.L246
1818:../../Drivers/STM32L5xx_HAL_Driver/Src/stm32l5xx_hal_rtc_ex.c ****       {
1819:../../Drivers/STM32L5xx_HAL_Driver/Src/stm32l5xx_hal_rtc_ex.c ****         return HAL_TIMEOUT;
 3468              		.loc 1 1819 16 view .LVU1144
 3469 002a 0320     		movs	r0, #3
 3470 002c 02E0     		b	.L247
 3471              	.L252:
1820:../../Drivers/STM32L5xx_HAL_Driver/Src/stm32l5xx_hal_rtc_ex.c ****       }
1821:../../Drivers/STM32L5xx_HAL_Driver/Src/stm32l5xx_hal_rtc_ex.c ****     }
1822:../../Drivers/STM32L5xx_HAL_Driver/Src/stm32l5xx_hal_rtc_ex.c ****   }
1823:../../Drivers/STM32L5xx_HAL_Driver/Src/stm32l5xx_hal_rtc_ex.c **** 
1824:../../Drivers/STM32L5xx_HAL_Driver/Src/stm32l5xx_hal_rtc_ex.c ****   /* Clear the Tamper Flag */
1825:../../Drivers/STM32L5xx_HAL_Driver/Src/stm32l5xx_hal_rtc_ex.c ****   WRITE_REG(TAMP->SCR, Tamper);
 3472              		.loc 1 1825 3 is_stmt 1 view .LVU1145
 3473 002e 034B     		ldr	r3, .L253
 3474 0030 DC63     		str	r4, [r3, #60]
1826:../../Drivers/STM32L5xx_HAL_Driver/Src/stm32l5xx_hal_rtc_ex.c **** 
ARM GAS  C:\Users\carlos\AppData\Local\Temp\ccaMGGVT.s 			page 98


1827:../../Drivers/STM32L5xx_HAL_Driver/Src/stm32l5xx_hal_rtc_ex.c ****   return HAL_OK;
 3475              		.loc 1 1827 3 view .LVU1146
 3476              		.loc 1 1827 10 is_stmt 0 view .LVU1147
 3477 0032 0020     		movs	r0, #0
 3478              	.L247:
1828:../../Drivers/STM32L5xx_HAL_Driver/Src/stm32l5xx_hal_rtc_ex.c **** }
 3479              		.loc 1 1828 1 view .LVU1148
 3480 0034 70BD     		pop	{r4, r5, r6, pc}
 3481              	.LVL226:
 3482              	.L249:
1819:../../Drivers/STM32L5xx_HAL_Driver/Src/stm32l5xx_hal_rtc_ex.c ****       }
 3483              		.loc 1 1819 16 view .LVU1149
 3484 0036 0320     		movs	r0, #3
 3485 0038 FCE7     		b	.L247
 3486              	.L254:
 3487 003a 00BF     		.align	2
 3488              	.L253:
 3489 003c 00340050 		.word	1342190592
 3490              		.cfi_endproc
 3491              	.LFE237:
 3493              		.section	.text.HAL_RTCEx_SetInternalTamper,"ax",%progbits
 3494              		.align	1
 3495              		.global	HAL_RTCEx_SetInternalTamper
 3496              		.syntax unified
 3497              		.thumb
 3498              		.thumb_func
 3499              		.fpu fpv4-sp-d16
 3501              	HAL_RTCEx_SetInternalTamper:
 3502              	.LVL227:
 3503              	.LFB238:
1829:../../Drivers/STM32L5xx_HAL_Driver/Src/stm32l5xx_hal_rtc_ex.c **** 
1830:../../Drivers/STM32L5xx_HAL_Driver/Src/stm32l5xx_hal_rtc_ex.c **** 
1831:../../Drivers/STM32L5xx_HAL_Driver/Src/stm32l5xx_hal_rtc_ex.c **** /**
1832:../../Drivers/STM32L5xx_HAL_Driver/Src/stm32l5xx_hal_rtc_ex.c ****   * @brief  Set Internal Tamper in interrupt mode
1833:../../Drivers/STM32L5xx_HAL_Driver/Src/stm32l5xx_hal_rtc_ex.c ****   * @param  hrtc RTC handle
1834:../../Drivers/STM32L5xx_HAL_Driver/Src/stm32l5xx_hal_rtc_ex.c ****   * @param  sIntTamper Pointer to Internal Tamper Structure.
1835:../../Drivers/STM32L5xx_HAL_Driver/Src/stm32l5xx_hal_rtc_ex.c ****   * @retval HAL status
1836:../../Drivers/STM32L5xx_HAL_Driver/Src/stm32l5xx_hal_rtc_ex.c ****   */
1837:../../Drivers/STM32L5xx_HAL_Driver/Src/stm32l5xx_hal_rtc_ex.c **** HAL_StatusTypeDef HAL_RTCEx_SetInternalTamper(RTC_HandleTypeDef *hrtc, RTC_InternalTamperTypeDef *s
1838:../../Drivers/STM32L5xx_HAL_Driver/Src/stm32l5xx_hal_rtc_ex.c **** {
 3504              		.loc 1 1838 1 is_stmt 1 view -0
 3505              		.cfi_startproc
 3506              		@ args = 0, pretend = 0, frame = 0
 3507              		@ frame_needed = 0, uses_anonymous_args = 0
 3508              		@ link register save eliminated.
1839:../../Drivers/STM32L5xx_HAL_Driver/Src/stm32l5xx_hal_rtc_ex.c ****   /* Prevent unused argument(s) compilation warning */
1840:../../Drivers/STM32L5xx_HAL_Driver/Src/stm32l5xx_hal_rtc_ex.c ****   UNUSED(hrtc);
 3509              		.loc 1 1840 3 view .LVU1151
1841:../../Drivers/STM32L5xx_HAL_Driver/Src/stm32l5xx_hal_rtc_ex.c **** 
1842:../../Drivers/STM32L5xx_HAL_Driver/Src/stm32l5xx_hal_rtc_ex.c ****   /* Check the parameters */
1843:../../Drivers/STM32L5xx_HAL_Driver/Src/stm32l5xx_hal_rtc_ex.c ****   assert_param(IS_RTC_INTERNAL_TAMPER(sIntTamper->IntTamper));
 3510              		.loc 1 1843 3 view .LVU1152
1844:../../Drivers/STM32L5xx_HAL_Driver/Src/stm32l5xx_hal_rtc_ex.c ****   assert_param(IS_RTC_TAMPER_TIMESTAMPONTAMPER_DETECTION(sIntTamper->TimeStampOnTamperDetection));
 3511              		.loc 1 1844 3 view .LVU1153
1845:../../Drivers/STM32L5xx_HAL_Driver/Src/stm32l5xx_hal_rtc_ex.c ****   assert_param(IS_RTC_TAMPER_ERASE_MODE(sIntTamper->NoErase));
 3512              		.loc 1 1845 3 view .LVU1154
1846:../../Drivers/STM32L5xx_HAL_Driver/Src/stm32l5xx_hal_rtc_ex.c **** 
ARM GAS  C:\Users\carlos\AppData\Local\Temp\ccaMGGVT.s 			page 99


1847:../../Drivers/STM32L5xx_HAL_Driver/Src/stm32l5xx_hal_rtc_ex.c ****   /* timestamp on internal tamper */
1848:../../Drivers/STM32L5xx_HAL_Driver/Src/stm32l5xx_hal_rtc_ex.c ****   if (READ_BIT(RTC->CR, RTC_CR_TAMPTS) != sIntTamper->TimeStampOnTamperDetection)
 3513              		.loc 1 1848 3 view .LVU1155
 3514              		.loc 1 1848 7 is_stmt 0 view .LVU1156
 3515 0000 104B     		ldr	r3, .L258
 3516 0002 9B69     		ldr	r3, [r3, #24]
 3517 0004 03F00073 		and	r3, r3, #33554432
 3518              		.loc 1 1848 53 view .LVU1157
 3519 0008 4A68     		ldr	r2, [r1, #4]
 3520              		.loc 1 1848 6 view .LVU1158
 3521 000a 9342     		cmp	r3, r2
 3522 000c 0CD0     		beq	.L256
1849:../../Drivers/STM32L5xx_HAL_Driver/Src/stm32l5xx_hal_rtc_ex.c ****   {
1850:../../Drivers/STM32L5xx_HAL_Driver/Src/stm32l5xx_hal_rtc_ex.c ****     __HAL_RTC_WRITEPROTECTION_DISABLE(hrtc);
 3523              		.loc 1 1850 5 is_stmt 1 view .LVU1159
 3524              		.loc 1 1850 5 view .LVU1160
 3525 000e 0D4B     		ldr	r3, .L258
 3526 0010 CA22     		movs	r2, #202
 3527 0012 5A62     		str	r2, [r3, #36]
 3528              		.loc 1 1850 5 view .LVU1161
 3529 0014 5322     		movs	r2, #83
 3530 0016 5A62     		str	r2, [r3, #36]
 3531              		.loc 1 1850 5 view .LVU1162
1851:../../Drivers/STM32L5xx_HAL_Driver/Src/stm32l5xx_hal_rtc_ex.c ****     MODIFY_REG(RTC->CR, RTC_CR_TAMPTS, sIntTamper->TimeStampOnTamperDetection);
 3532              		.loc 1 1851 5 view .LVU1163
 3533 0018 9A69     		ldr	r2, [r3, #24]
 3534 001a 22F00072 		bic	r2, r2, #33554432
 3535 001e 4868     		ldr	r0, [r1, #4]
 3536              	.LVL228:
 3537              		.loc 1 1851 5 is_stmt 0 view .LVU1164
 3538 0020 0243     		orrs	r2, r2, r0
 3539 0022 9A61     		str	r2, [r3, #24]
1852:../../Drivers/STM32L5xx_HAL_Driver/Src/stm32l5xx_hal_rtc_ex.c ****     __HAL_RTC_WRITEPROTECTION_ENABLE(hrtc);
 3540              		.loc 1 1852 5 is_stmt 1 view .LVU1165
 3541              		.loc 1 1852 5 view .LVU1166
 3542 0024 FF22     		movs	r2, #255
 3543 0026 5A62     		str	r2, [r3, #36]
 3544              	.L256:
 3545              		.loc 1 1852 5 discriminator 1 view .LVU1167
1853:../../Drivers/STM32L5xx_HAL_Driver/Src/stm32l5xx_hal_rtc_ex.c ****   }
1854:../../Drivers/STM32L5xx_HAL_Driver/Src/stm32l5xx_hal_rtc_ex.c **** 
1855:../../Drivers/STM32L5xx_HAL_Driver/Src/stm32l5xx_hal_rtc_ex.c ****   if (sIntTamper->NoErase != RTC_TAMPER_ERASE_BACKUP_ENABLE)
 3546              		.loc 1 1855 3 discriminator 1 view .LVU1168
 3547              		.loc 1 1855 17 is_stmt 0 discriminator 1 view .LVU1169
 3548 0028 8B68     		ldr	r3, [r1, #8]
 3549              		.loc 1 1855 6 discriminator 1 view .LVU1170
 3550 002a 23B1     		cbz	r3, .L257
1856:../../Drivers/STM32L5xx_HAL_Driver/Src/stm32l5xx_hal_rtc_ex.c ****   {
1857:../../Drivers/STM32L5xx_HAL_Driver/Src/stm32l5xx_hal_rtc_ex.c ****     /* Control register 3 */
1858:../../Drivers/STM32L5xx_HAL_Driver/Src/stm32l5xx_hal_rtc_ex.c ****     SET_BIT(TAMP->CR3, (sIntTamper->IntTamper >> (TAMP_CR1_ITAMP1E_Pos - TAMP_CR3_ITAMP1NOER_Pos)))
 3551              		.loc 1 1858 5 is_stmt 1 view .LVU1171
 3552 002c 064A     		ldr	r2, .L258+4
 3553 002e 9368     		ldr	r3, [r2, #8]
 3554 0030 4888     		ldrh	r0, [r1, #2]
 3555 0032 0343     		orrs	r3, r3, r0
 3556 0034 9360     		str	r3, [r2, #8]
 3557              	.L257:
ARM GAS  C:\Users\carlos\AppData\Local\Temp\ccaMGGVT.s 			page 100


1859:../../Drivers/STM32L5xx_HAL_Driver/Src/stm32l5xx_hal_rtc_ex.c ****   }
1860:../../Drivers/STM32L5xx_HAL_Driver/Src/stm32l5xx_hal_rtc_ex.c **** 
1861:../../Drivers/STM32L5xx_HAL_Driver/Src/stm32l5xx_hal_rtc_ex.c ****   /* Control register 1 */
1862:../../Drivers/STM32L5xx_HAL_Driver/Src/stm32l5xx_hal_rtc_ex.c ****   SET_BIT(TAMP->CR1, sIntTamper->IntTamper);
 3558              		.loc 1 1862 3 view .LVU1172
 3559 0036 044A     		ldr	r2, .L258+4
 3560 0038 1368     		ldr	r3, [r2]
 3561 003a 0968     		ldr	r1, [r1]
 3562              	.LVL229:
 3563              		.loc 1 1862 3 is_stmt 0 view .LVU1173
 3564 003c 0B43     		orrs	r3, r3, r1
 3565 003e 1360     		str	r3, [r2]
1863:../../Drivers/STM32L5xx_HAL_Driver/Src/stm32l5xx_hal_rtc_ex.c **** 
1864:../../Drivers/STM32L5xx_HAL_Driver/Src/stm32l5xx_hal_rtc_ex.c ****   return HAL_OK;
 3566              		.loc 1 1864 3 is_stmt 1 view .LVU1174
1865:../../Drivers/STM32L5xx_HAL_Driver/Src/stm32l5xx_hal_rtc_ex.c **** }
 3567              		.loc 1 1865 1 is_stmt 0 view .LVU1175
 3568 0040 0020     		movs	r0, #0
 3569 0042 7047     		bx	lr
 3570              	.L259:
 3571              		.align	2
 3572              	.L258:
 3573 0044 00280050 		.word	1342187520
 3574 0048 00340050 		.word	1342190592
 3575              		.cfi_endproc
 3576              	.LFE238:
 3578              		.section	.text.HAL_RTCEx_SetInternalTamper_IT,"ax",%progbits
 3579              		.align	1
 3580              		.global	HAL_RTCEx_SetInternalTamper_IT
 3581              		.syntax unified
 3582              		.thumb
 3583              		.thumb_func
 3584              		.fpu fpv4-sp-d16
 3586              	HAL_RTCEx_SetInternalTamper_IT:
 3587              	.LVL230:
 3588              	.LFB239:
1866:../../Drivers/STM32L5xx_HAL_Driver/Src/stm32l5xx_hal_rtc_ex.c **** 
1867:../../Drivers/STM32L5xx_HAL_Driver/Src/stm32l5xx_hal_rtc_ex.c **** 
1868:../../Drivers/STM32L5xx_HAL_Driver/Src/stm32l5xx_hal_rtc_ex.c **** /**
1869:../../Drivers/STM32L5xx_HAL_Driver/Src/stm32l5xx_hal_rtc_ex.c ****   * @brief  Set Internal Tamper
1870:../../Drivers/STM32L5xx_HAL_Driver/Src/stm32l5xx_hal_rtc_ex.c ****   * @param  hrtc RTC handle
1871:../../Drivers/STM32L5xx_HAL_Driver/Src/stm32l5xx_hal_rtc_ex.c ****   * @param  sIntTamper Pointer to Internal Tamper Structure.
1872:../../Drivers/STM32L5xx_HAL_Driver/Src/stm32l5xx_hal_rtc_ex.c ****   * @retval HAL status
1873:../../Drivers/STM32L5xx_HAL_Driver/Src/stm32l5xx_hal_rtc_ex.c ****   */
1874:../../Drivers/STM32L5xx_HAL_Driver/Src/stm32l5xx_hal_rtc_ex.c **** HAL_StatusTypeDef HAL_RTCEx_SetInternalTamper_IT(RTC_HandleTypeDef *hrtc, RTC_InternalTamperTypeDef
1875:../../Drivers/STM32L5xx_HAL_Driver/Src/stm32l5xx_hal_rtc_ex.c **** {
 3589              		.loc 1 1875 1 is_stmt 1 view -0
 3590              		.cfi_startproc
 3591              		@ args = 0, pretend = 0, frame = 0
 3592              		@ frame_needed = 0, uses_anonymous_args = 0
 3593              		@ link register save eliminated.
1876:../../Drivers/STM32L5xx_HAL_Driver/Src/stm32l5xx_hal_rtc_ex.c ****   /* Prevent unused argument(s) compilation warning */
1877:../../Drivers/STM32L5xx_HAL_Driver/Src/stm32l5xx_hal_rtc_ex.c ****   UNUSED(hrtc);
 3594              		.loc 1 1877 3 view .LVU1177
1878:../../Drivers/STM32L5xx_HAL_Driver/Src/stm32l5xx_hal_rtc_ex.c **** 
1879:../../Drivers/STM32L5xx_HAL_Driver/Src/stm32l5xx_hal_rtc_ex.c ****   /* Check the parameters */
1880:../../Drivers/STM32L5xx_HAL_Driver/Src/stm32l5xx_hal_rtc_ex.c ****   assert_param(IS_RTC_INTERNAL_TAMPER(sIntTamper->IntTamper));
ARM GAS  C:\Users\carlos\AppData\Local\Temp\ccaMGGVT.s 			page 101


 3595              		.loc 1 1880 3 view .LVU1178
1881:../../Drivers/STM32L5xx_HAL_Driver/Src/stm32l5xx_hal_rtc_ex.c ****   assert_param(IS_RTC_TAMPER_TIMESTAMPONTAMPER_DETECTION(sIntTamper->TimeStampOnTamperDetection));
 3596              		.loc 1 1881 3 view .LVU1179
1882:../../Drivers/STM32L5xx_HAL_Driver/Src/stm32l5xx_hal_rtc_ex.c ****   assert_param(IS_RTC_TAMPER_ERASE_MODE(sIntTamper->NoErase));
 3597              		.loc 1 1882 3 view .LVU1180
1883:../../Drivers/STM32L5xx_HAL_Driver/Src/stm32l5xx_hal_rtc_ex.c **** 
1884:../../Drivers/STM32L5xx_HAL_Driver/Src/stm32l5xx_hal_rtc_ex.c ****   /* timestamp on internal tamper */
1885:../../Drivers/STM32L5xx_HAL_Driver/Src/stm32l5xx_hal_rtc_ex.c ****   if (READ_BIT(RTC->CR, RTC_CR_TAMPTS) != sIntTamper->TimeStampOnTamperDetection)
 3598              		.loc 1 1885 3 view .LVU1181
 3599              		.loc 1 1885 7 is_stmt 0 view .LVU1182
 3600 0000 164B     		ldr	r3, .L263
 3601 0002 9B69     		ldr	r3, [r3, #24]
 3602 0004 03F00073 		and	r3, r3, #33554432
 3603              		.loc 1 1885 53 view .LVU1183
 3604 0008 4A68     		ldr	r2, [r1, #4]
 3605              		.loc 1 1885 6 view .LVU1184
 3606 000a 9342     		cmp	r3, r2
 3607 000c 0CD0     		beq	.L261
1886:../../Drivers/STM32L5xx_HAL_Driver/Src/stm32l5xx_hal_rtc_ex.c ****   {
1887:../../Drivers/STM32L5xx_HAL_Driver/Src/stm32l5xx_hal_rtc_ex.c ****     __HAL_RTC_WRITEPROTECTION_DISABLE(hrtc);
 3608              		.loc 1 1887 5 is_stmt 1 view .LVU1185
 3609              		.loc 1 1887 5 view .LVU1186
 3610 000e 134B     		ldr	r3, .L263
 3611 0010 CA22     		movs	r2, #202
 3612 0012 5A62     		str	r2, [r3, #36]
 3613              		.loc 1 1887 5 view .LVU1187
 3614 0014 5322     		movs	r2, #83
 3615 0016 5A62     		str	r2, [r3, #36]
 3616              		.loc 1 1887 5 view .LVU1188
1888:../../Drivers/STM32L5xx_HAL_Driver/Src/stm32l5xx_hal_rtc_ex.c ****     MODIFY_REG(RTC->CR, RTC_CR_TAMPTS, sIntTamper->TimeStampOnTamperDetection);
 3617              		.loc 1 1888 5 view .LVU1189
 3618 0018 9A69     		ldr	r2, [r3, #24]
 3619 001a 22F00072 		bic	r2, r2, #33554432
 3620 001e 4868     		ldr	r0, [r1, #4]
 3621              	.LVL231:
 3622              		.loc 1 1888 5 is_stmt 0 view .LVU1190
 3623 0020 0243     		orrs	r2, r2, r0
 3624 0022 9A61     		str	r2, [r3, #24]
1889:../../Drivers/STM32L5xx_HAL_Driver/Src/stm32l5xx_hal_rtc_ex.c ****     __HAL_RTC_WRITEPROTECTION_ENABLE(hrtc);
 3625              		.loc 1 1889 5 is_stmt 1 view .LVU1191
 3626              		.loc 1 1889 5 view .LVU1192
 3627 0024 FF22     		movs	r2, #255
 3628 0026 5A62     		str	r2, [r3, #36]
 3629              	.L261:
 3630              		.loc 1 1889 5 discriminator 1 view .LVU1193
1890:../../Drivers/STM32L5xx_HAL_Driver/Src/stm32l5xx_hal_rtc_ex.c ****   }
1891:../../Drivers/STM32L5xx_HAL_Driver/Src/stm32l5xx_hal_rtc_ex.c **** 
1892:../../Drivers/STM32L5xx_HAL_Driver/Src/stm32l5xx_hal_rtc_ex.c ****   /* RTC Tamper Interrupt Configuration: EXTI configuration */
1893:../../Drivers/STM32L5xx_HAL_Driver/Src/stm32l5xx_hal_rtc_ex.c ****   __HAL_RTC_TAMPER_EXTI_ENABLE_IT();
 3631              		.loc 1 1893 3 discriminator 1 view .LVU1194
 3632 0028 0D4A     		ldr	r2, .L263+4
 3633 002a D2F88030 		ldr	r3, [r2, #128]
 3634 002e 43F48013 		orr	r3, r3, #1048576
 3635 0032 C2F88030 		str	r3, [r2, #128]
1894:../../Drivers/STM32L5xx_HAL_Driver/Src/stm32l5xx_hal_rtc_ex.c **** 
1895:../../Drivers/STM32L5xx_HAL_Driver/Src/stm32l5xx_hal_rtc_ex.c ****   /* Interrupt enable register */
1896:../../Drivers/STM32L5xx_HAL_Driver/Src/stm32l5xx_hal_rtc_ex.c ****   SET_BIT(TAMP->IER, sIntTamper->IntTamper);
ARM GAS  C:\Users\carlos\AppData\Local\Temp\ccaMGGVT.s 			page 102


 3636              		.loc 1 1896 3 discriminator 1 view .LVU1195
 3637 0036 A2F53032 		sub	r2, r2, #180224
 3638 003a D36A     		ldr	r3, [r2, #44]
 3639 003c 0868     		ldr	r0, [r1]
 3640 003e 0343     		orrs	r3, r3, r0
 3641 0040 D362     		str	r3, [r2, #44]
1897:../../Drivers/STM32L5xx_HAL_Driver/Src/stm32l5xx_hal_rtc_ex.c **** 
1898:../../Drivers/STM32L5xx_HAL_Driver/Src/stm32l5xx_hal_rtc_ex.c ****   if (sIntTamper->NoErase != RTC_TAMPER_ERASE_BACKUP_ENABLE)
 3642              		.loc 1 1898 3 discriminator 1 view .LVU1196
 3643              		.loc 1 1898 17 is_stmt 0 discriminator 1 view .LVU1197
 3644 0042 8B68     		ldr	r3, [r1, #8]
 3645              		.loc 1 1898 6 discriminator 1 view .LVU1198
 3646 0044 1BB1     		cbz	r3, .L262
1899:../../Drivers/STM32L5xx_HAL_Driver/Src/stm32l5xx_hal_rtc_ex.c ****   {
1900:../../Drivers/STM32L5xx_HAL_Driver/Src/stm32l5xx_hal_rtc_ex.c ****     /* Control register 3 */
1901:../../Drivers/STM32L5xx_HAL_Driver/Src/stm32l5xx_hal_rtc_ex.c ****     SET_BIT(TAMP->CR3, (sIntTamper->IntTamper >> (TAMP_CR1_ITAMP1E_Pos - TAMP_CR3_ITAMP1NOER_Pos)))
 3647              		.loc 1 1901 5 is_stmt 1 view .LVU1199
 3648 0046 9368     		ldr	r3, [r2, #8]
 3649 0048 4888     		ldrh	r0, [r1, #2]
 3650 004a 0343     		orrs	r3, r3, r0
 3651 004c 9360     		str	r3, [r2, #8]
 3652              	.L262:
1902:../../Drivers/STM32L5xx_HAL_Driver/Src/stm32l5xx_hal_rtc_ex.c ****   }
1903:../../Drivers/STM32L5xx_HAL_Driver/Src/stm32l5xx_hal_rtc_ex.c **** 
1904:../../Drivers/STM32L5xx_HAL_Driver/Src/stm32l5xx_hal_rtc_ex.c ****   /* Control register 1 */
1905:../../Drivers/STM32L5xx_HAL_Driver/Src/stm32l5xx_hal_rtc_ex.c ****   SET_BIT(TAMP->CR1, sIntTamper->IntTamper);
 3653              		.loc 1 1905 3 view .LVU1200
 3654 004e 054A     		ldr	r2, .L263+8
 3655 0050 1368     		ldr	r3, [r2]
 3656 0052 0968     		ldr	r1, [r1]
 3657              	.LVL232:
 3658              		.loc 1 1905 3 is_stmt 0 view .LVU1201
 3659 0054 0B43     		orrs	r3, r3, r1
 3660 0056 1360     		str	r3, [r2]
1906:../../Drivers/STM32L5xx_HAL_Driver/Src/stm32l5xx_hal_rtc_ex.c **** 
1907:../../Drivers/STM32L5xx_HAL_Driver/Src/stm32l5xx_hal_rtc_ex.c ****   return HAL_OK;
 3661              		.loc 1 1907 3 is_stmt 1 view .LVU1202
1908:../../Drivers/STM32L5xx_HAL_Driver/Src/stm32l5xx_hal_rtc_ex.c **** }
 3662              		.loc 1 1908 1 is_stmt 0 view .LVU1203
 3663 0058 0020     		movs	r0, #0
 3664 005a 7047     		bx	lr
 3665              	.L264:
 3666              		.align	2
 3667              	.L263:
 3668 005c 00280050 		.word	1342187520
 3669 0060 00F40250 		.word	1342370816
 3670 0064 00340050 		.word	1342190592
 3671              		.cfi_endproc
 3672              	.LFE239:
 3674              		.section	.text.HAL_RTCEx_DeactivateInternalTamper,"ax",%progbits
 3675              		.align	1
 3676              		.global	HAL_RTCEx_DeactivateInternalTamper
 3677              		.syntax unified
 3678              		.thumb
 3679              		.thumb_func
 3680              		.fpu fpv4-sp-d16
 3682              	HAL_RTCEx_DeactivateInternalTamper:
ARM GAS  C:\Users\carlos\AppData\Local\Temp\ccaMGGVT.s 			page 103


 3683              	.LVL233:
 3684              	.LFB240:
1909:../../Drivers/STM32L5xx_HAL_Driver/Src/stm32l5xx_hal_rtc_ex.c **** 
1910:../../Drivers/STM32L5xx_HAL_Driver/Src/stm32l5xx_hal_rtc_ex.c **** /**
1911:../../Drivers/STM32L5xx_HAL_Driver/Src/stm32l5xx_hal_rtc_ex.c ****   * @brief  Deactivate Internal Tamper.
1912:../../Drivers/STM32L5xx_HAL_Driver/Src/stm32l5xx_hal_rtc_ex.c ****   * @param  hrtc RTC handle
1913:../../Drivers/STM32L5xx_HAL_Driver/Src/stm32l5xx_hal_rtc_ex.c ****   * @param  IntTamper Selected internal tamper event.
1914:../../Drivers/STM32L5xx_HAL_Driver/Src/stm32l5xx_hal_rtc_ex.c ****   *          This parameter can be any combination of existing internal tampers.
1915:../../Drivers/STM32L5xx_HAL_Driver/Src/stm32l5xx_hal_rtc_ex.c ****   * @retval HAL status
1916:../../Drivers/STM32L5xx_HAL_Driver/Src/stm32l5xx_hal_rtc_ex.c ****   */
1917:../../Drivers/STM32L5xx_HAL_Driver/Src/stm32l5xx_hal_rtc_ex.c **** HAL_StatusTypeDef HAL_RTCEx_DeactivateInternalTamper(RTC_HandleTypeDef *hrtc, uint32_t IntTamper)
1918:../../Drivers/STM32L5xx_HAL_Driver/Src/stm32l5xx_hal_rtc_ex.c **** {
 3685              		.loc 1 1918 1 is_stmt 1 view -0
 3686              		.cfi_startproc
 3687              		@ args = 0, pretend = 0, frame = 0
 3688              		@ frame_needed = 0, uses_anonymous_args = 0
 3689              		@ link register save eliminated.
1919:../../Drivers/STM32L5xx_HAL_Driver/Src/stm32l5xx_hal_rtc_ex.c ****   UNUSED(hrtc);
 3690              		.loc 1 1919 3 view .LVU1205
1920:../../Drivers/STM32L5xx_HAL_Driver/Src/stm32l5xx_hal_rtc_ex.c ****   assert_param(IS_RTC_INTERNAL_TAMPER(IntTamper));
 3691              		.loc 1 1920 3 view .LVU1206
1921:../../Drivers/STM32L5xx_HAL_Driver/Src/stm32l5xx_hal_rtc_ex.c **** 
1922:../../Drivers/STM32L5xx_HAL_Driver/Src/stm32l5xx_hal_rtc_ex.c ****   /* Disable the selected Tamper pin */
1923:../../Drivers/STM32L5xx_HAL_Driver/Src/stm32l5xx_hal_rtc_ex.c ****   CLEAR_BIT(TAMP->CR1, IntTamper);
 3692              		.loc 1 1923 3 view .LVU1207
 3693 0000 054B     		ldr	r3, .L266
 3694 0002 1A68     		ldr	r2, [r3]
 3695 0004 22EA0102 		bic	r2, r2, r1
 3696 0008 1A60     		str	r2, [r3]
1924:../../Drivers/STM32L5xx_HAL_Driver/Src/stm32l5xx_hal_rtc_ex.c **** 
1925:../../Drivers/STM32L5xx_HAL_Driver/Src/stm32l5xx_hal_rtc_ex.c ****   /* Clear internal tamper interrupt mode configuration */
1926:../../Drivers/STM32L5xx_HAL_Driver/Src/stm32l5xx_hal_rtc_ex.c ****   CLEAR_BIT(TAMP->IER, IntTamper);
 3697              		.loc 1 1926 3 view .LVU1208
 3698 000a DA6A     		ldr	r2, [r3, #44]
 3699 000c 22EA0102 		bic	r2, r2, r1
 3700 0010 DA62     		str	r2, [r3, #44]
1927:../../Drivers/STM32L5xx_HAL_Driver/Src/stm32l5xx_hal_rtc_ex.c **** 
1928:../../Drivers/STM32L5xx_HAL_Driver/Src/stm32l5xx_hal_rtc_ex.c ****   /* Clear internal tamper interrupt */
1929:../../Drivers/STM32L5xx_HAL_Driver/Src/stm32l5xx_hal_rtc_ex.c ****   WRITE_REG(TAMP->SCR, IntTamper);
 3701              		.loc 1 1929 3 view .LVU1209
 3702 0012 D963     		str	r1, [r3, #60]
1930:../../Drivers/STM32L5xx_HAL_Driver/Src/stm32l5xx_hal_rtc_ex.c **** 
1931:../../Drivers/STM32L5xx_HAL_Driver/Src/stm32l5xx_hal_rtc_ex.c ****   return HAL_OK;
 3703              		.loc 1 1931 3 view .LVU1210
1932:../../Drivers/STM32L5xx_HAL_Driver/Src/stm32l5xx_hal_rtc_ex.c **** }
 3704              		.loc 1 1932 1 is_stmt 0 view .LVU1211
 3705 0014 0020     		movs	r0, #0
 3706              	.LVL234:
 3707              		.loc 1 1932 1 view .LVU1212
 3708 0016 7047     		bx	lr
 3709              	.L267:
 3710              		.align	2
 3711              	.L266:
 3712 0018 00340050 		.word	1342190592
 3713              		.cfi_endproc
 3714              	.LFE240:
 3716              		.section	.text.HAL_RTCEx_PollForInternalTamperEvent,"ax",%progbits
ARM GAS  C:\Users\carlos\AppData\Local\Temp\ccaMGGVT.s 			page 104


 3717              		.align	1
 3718              		.global	HAL_RTCEx_PollForInternalTamperEvent
 3719              		.syntax unified
 3720              		.thumb
 3721              		.thumb_func
 3722              		.fpu fpv4-sp-d16
 3724              	HAL_RTCEx_PollForInternalTamperEvent:
 3725              	.LVL235:
 3726              	.LFB241:
1933:../../Drivers/STM32L5xx_HAL_Driver/Src/stm32l5xx_hal_rtc_ex.c **** 
1934:../../Drivers/STM32L5xx_HAL_Driver/Src/stm32l5xx_hal_rtc_ex.c **** 
1935:../../Drivers/STM32L5xx_HAL_Driver/Src/stm32l5xx_hal_rtc_ex.c **** /**
1936:../../Drivers/STM32L5xx_HAL_Driver/Src/stm32l5xx_hal_rtc_ex.c ****   * @brief  Internal Tamper event polling.
1937:../../Drivers/STM32L5xx_HAL_Driver/Src/stm32l5xx_hal_rtc_ex.c ****   * @param  hrtc RTC handle
1938:../../Drivers/STM32L5xx_HAL_Driver/Src/stm32l5xx_hal_rtc_ex.c ****   * @param  IntTamper selected tamper.
1939:../../Drivers/STM32L5xx_HAL_Driver/Src/stm32l5xx_hal_rtc_ex.c ****   *          This parameter can be any combination of existing internal tampers.
1940:../../Drivers/STM32L5xx_HAL_Driver/Src/stm32l5xx_hal_rtc_ex.c ****   * @param  Timeout Timeout duration
1941:../../Drivers/STM32L5xx_HAL_Driver/Src/stm32l5xx_hal_rtc_ex.c ****   * @retval HAL status
1942:../../Drivers/STM32L5xx_HAL_Driver/Src/stm32l5xx_hal_rtc_ex.c ****   */
1943:../../Drivers/STM32L5xx_HAL_Driver/Src/stm32l5xx_hal_rtc_ex.c **** HAL_StatusTypeDef HAL_RTCEx_PollForInternalTamperEvent(RTC_HandleTypeDef *hrtc, uint32_t IntTamper,
1944:../../Drivers/STM32L5xx_HAL_Driver/Src/stm32l5xx_hal_rtc_ex.c **** {
 3727              		.loc 1 1944 1 is_stmt 1 view -0
 3728              		.cfi_startproc
 3729              		@ args = 0, pretend = 0, frame = 0
 3730              		@ frame_needed = 0, uses_anonymous_args = 0
 3731              		.loc 1 1944 1 is_stmt 0 view .LVU1214
 3732 0000 70B5     		push	{r4, r5, r6, lr}
 3733              	.LCFI19:
 3734              		.cfi_def_cfa_offset 16
 3735              		.cfi_offset 4, -16
 3736              		.cfi_offset 5, -12
 3737              		.cfi_offset 6, -8
 3738              		.cfi_offset 14, -4
 3739 0002 0C46     		mov	r4, r1
 3740 0004 1546     		mov	r5, r2
1945:../../Drivers/STM32L5xx_HAL_Driver/Src/stm32l5xx_hal_rtc_ex.c ****   UNUSED(hrtc);
 3741              		.loc 1 1945 3 is_stmt 1 view .LVU1215
1946:../../Drivers/STM32L5xx_HAL_Driver/Src/stm32l5xx_hal_rtc_ex.c ****   assert_param(IS_RTC_INTERNAL_TAMPER(IntTamper));
 3742              		.loc 1 1946 3 view .LVU1216
1947:../../Drivers/STM32L5xx_HAL_Driver/Src/stm32l5xx_hal_rtc_ex.c **** 
1948:../../Drivers/STM32L5xx_HAL_Driver/Src/stm32l5xx_hal_rtc_ex.c ****   uint32_t tickstart = HAL_GetTick();
 3743              		.loc 1 1948 3 view .LVU1217
 3744              		.loc 1 1948 24 is_stmt 0 view .LVU1218
 3745 0006 FFF7FEFF 		bl	HAL_GetTick
 3746              	.LVL236:
 3747              		.loc 1 1948 24 view .LVU1219
 3748 000a 0646     		mov	r6, r0
 3749              	.LVL237:
1949:../../Drivers/STM32L5xx_HAL_Driver/Src/stm32l5xx_hal_rtc_ex.c **** 
1950:../../Drivers/STM32L5xx_HAL_Driver/Src/stm32l5xx_hal_rtc_ex.c ****   /* Get the status of the Interrupt */
1951:../../Drivers/STM32L5xx_HAL_Driver/Src/stm32l5xx_hal_rtc_ex.c ****   while (READ_BIT(TAMP->SR, IntTamper) != IntTamper)
 3750              		.loc 1 1951 3 is_stmt 1 view .LVU1220
 3751              	.L270:
 3752              		.loc 1 1951 9 view .LVU1221
 3753              		.loc 1 1951 10 is_stmt 0 view .LVU1222
 3754 000c 0B4B     		ldr	r3, .L277
 3755 000e 1B6B     		ldr	r3, [r3, #48]
ARM GAS  C:\Users\carlos\AppData\Local\Temp\ccaMGGVT.s 			page 105


 3756              		.loc 1 1951 9 view .LVU1223
 3757 0010 34EA0303 		bics	r3, r4, r3
 3758 0014 0BD0     		beq	.L276
1952:../../Drivers/STM32L5xx_HAL_Driver/Src/stm32l5xx_hal_rtc_ex.c ****   {
1953:../../Drivers/STM32L5xx_HAL_Driver/Src/stm32l5xx_hal_rtc_ex.c ****     if (Timeout != HAL_MAX_DELAY)
 3759              		.loc 1 1953 5 is_stmt 1 view .LVU1224
 3760              		.loc 1 1953 8 is_stmt 0 view .LVU1225
 3761 0016 B5F1FF3F 		cmp	r5, #-1
 3762 001a F7D0     		beq	.L270
1954:../../Drivers/STM32L5xx_HAL_Driver/Src/stm32l5xx_hal_rtc_ex.c ****     {
1955:../../Drivers/STM32L5xx_HAL_Driver/Src/stm32l5xx_hal_rtc_ex.c ****       if (((HAL_GetTick() - tickstart) > Timeout) || (Timeout == 0U))
 3763              		.loc 1 1955 7 is_stmt 1 view .LVU1226
 3764              		.loc 1 1955 13 is_stmt 0 view .LVU1227
 3765 001c FFF7FEFF 		bl	HAL_GetTick
 3766              	.LVL238:
 3767              		.loc 1 1955 27 view .LVU1228
 3768 0020 801B     		subs	r0, r0, r6
 3769              		.loc 1 1955 10 view .LVU1229
 3770 0022 A842     		cmp	r0, r5
 3771 0024 07D8     		bhi	.L273
 3772              		.loc 1 1955 51 discriminator 1 view .LVU1230
 3773 0026 002D     		cmp	r5, #0
 3774 0028 F0D1     		bne	.L270
1956:../../Drivers/STM32L5xx_HAL_Driver/Src/stm32l5xx_hal_rtc_ex.c ****       {
1957:../../Drivers/STM32L5xx_HAL_Driver/Src/stm32l5xx_hal_rtc_ex.c ****         return HAL_TIMEOUT;
 3775              		.loc 1 1957 16 view .LVU1231
 3776 002a 0320     		movs	r0, #3
 3777 002c 02E0     		b	.L271
 3778              	.L276:
1958:../../Drivers/STM32L5xx_HAL_Driver/Src/stm32l5xx_hal_rtc_ex.c ****       }
1959:../../Drivers/STM32L5xx_HAL_Driver/Src/stm32l5xx_hal_rtc_ex.c ****     }
1960:../../Drivers/STM32L5xx_HAL_Driver/Src/stm32l5xx_hal_rtc_ex.c ****   }
1961:../../Drivers/STM32L5xx_HAL_Driver/Src/stm32l5xx_hal_rtc_ex.c **** 
1962:../../Drivers/STM32L5xx_HAL_Driver/Src/stm32l5xx_hal_rtc_ex.c ****   /* Clear the Tamper Flag */
1963:../../Drivers/STM32L5xx_HAL_Driver/Src/stm32l5xx_hal_rtc_ex.c ****   WRITE_REG(TAMP->SCR, IntTamper);
 3779              		.loc 1 1963 3 is_stmt 1 view .LVU1232
 3780 002e 034B     		ldr	r3, .L277
 3781 0030 DC63     		str	r4, [r3, #60]
1964:../../Drivers/STM32L5xx_HAL_Driver/Src/stm32l5xx_hal_rtc_ex.c **** 
1965:../../Drivers/STM32L5xx_HAL_Driver/Src/stm32l5xx_hal_rtc_ex.c ****   return HAL_OK;
 3782              		.loc 1 1965 3 view .LVU1233
 3783              		.loc 1 1965 10 is_stmt 0 view .LVU1234
 3784 0032 0020     		movs	r0, #0
 3785              	.L271:
1966:../../Drivers/STM32L5xx_HAL_Driver/Src/stm32l5xx_hal_rtc_ex.c **** }
 3786              		.loc 1 1966 1 view .LVU1235
 3787 0034 70BD     		pop	{r4, r5, r6, pc}
 3788              	.LVL239:
 3789              	.L273:
1957:../../Drivers/STM32L5xx_HAL_Driver/Src/stm32l5xx_hal_rtc_ex.c ****       }
 3790              		.loc 1 1957 16 view .LVU1236
 3791 0036 0320     		movs	r0, #3
 3792 0038 FCE7     		b	.L271
 3793              	.L278:
 3794 003a 00BF     		.align	2
 3795              	.L277:
 3796 003c 00340050 		.word	1342190592
ARM GAS  C:\Users\carlos\AppData\Local\Temp\ccaMGGVT.s 			page 106


 3797              		.cfi_endproc
 3798              	.LFE241:
 3800              		.section	.text.HAL_RTCEx_Tamper1EventCallback,"ax",%progbits
 3801              		.align	1
 3802              		.weak	HAL_RTCEx_Tamper1EventCallback
 3803              		.syntax unified
 3804              		.thumb
 3805              		.thumb_func
 3806              		.fpu fpv4-sp-d16
 3808              	HAL_RTCEx_Tamper1EventCallback:
 3809              	.LVL240:
 3810              	.LFB243:
1967:../../Drivers/STM32L5xx_HAL_Driver/Src/stm32l5xx_hal_rtc_ex.c **** 
1968:../../Drivers/STM32L5xx_HAL_Driver/Src/stm32l5xx_hal_rtc_ex.c **** 
1969:../../Drivers/STM32L5xx_HAL_Driver/Src/stm32l5xx_hal_rtc_ex.c **** #if defined (__ARM_FEATURE_CMSE) && (__ARM_FEATURE_CMSE == 3U)
1970:../../Drivers/STM32L5xx_HAL_Driver/Src/stm32l5xx_hal_rtc_ex.c **** /**
1971:../../Drivers/STM32L5xx_HAL_Driver/Src/stm32l5xx_hal_rtc_ex.c ****   * @brief  Handle Tamper secure interrupt request.
1972:../../Drivers/STM32L5xx_HAL_Driver/Src/stm32l5xx_hal_rtc_ex.c ****   * @param  hrtc RTC handle
1973:../../Drivers/STM32L5xx_HAL_Driver/Src/stm32l5xx_hal_rtc_ex.c ****   * @retval None
1974:../../Drivers/STM32L5xx_HAL_Driver/Src/stm32l5xx_hal_rtc_ex.c ****   */
1975:../../Drivers/STM32L5xx_HAL_Driver/Src/stm32l5xx_hal_rtc_ex.c **** void HAL_RTCEx_TamperIRQHandler(RTC_HandleTypeDef *hrtc)
1976:../../Drivers/STM32L5xx_HAL_Driver/Src/stm32l5xx_hal_rtc_ex.c **** {
1977:../../Drivers/STM32L5xx_HAL_Driver/Src/stm32l5xx_hal_rtc_ex.c ****   uint32_t tmp;
1978:../../Drivers/STM32L5xx_HAL_Driver/Src/stm32l5xx_hal_rtc_ex.c **** 
1979:../../Drivers/STM32L5xx_HAL_Driver/Src/stm32l5xx_hal_rtc_ex.c ****   /* Get secure interrupt status */
1980:../../Drivers/STM32L5xx_HAL_Driver/Src/stm32l5xx_hal_rtc_ex.c ****   tmp = READ_REG(TAMP->SMISR);
1981:../../Drivers/STM32L5xx_HAL_Driver/Src/stm32l5xx_hal_rtc_ex.c **** 
1982:../../Drivers/STM32L5xx_HAL_Driver/Src/stm32l5xx_hal_rtc_ex.c ****   /* Immediately clear flags */
1983:../../Drivers/STM32L5xx_HAL_Driver/Src/stm32l5xx_hal_rtc_ex.c ****   WRITE_REG(TAMP->SCR, tmp);
1984:../../Drivers/STM32L5xx_HAL_Driver/Src/stm32l5xx_hal_rtc_ex.c **** 
1985:../../Drivers/STM32L5xx_HAL_Driver/Src/stm32l5xx_hal_rtc_ex.c ****   /* Check Tamper1 status */
1986:../../Drivers/STM32L5xx_HAL_Driver/Src/stm32l5xx_hal_rtc_ex.c ****   if ((tmp & RTC_TAMPER_1) == RTC_TAMPER_1)
1987:../../Drivers/STM32L5xx_HAL_Driver/Src/stm32l5xx_hal_rtc_ex.c ****   {
1988:../../Drivers/STM32L5xx_HAL_Driver/Src/stm32l5xx_hal_rtc_ex.c **** #if (USE_HAL_RTC_REGISTER_CALLBACKS == 1)
1989:../../Drivers/STM32L5xx_HAL_Driver/Src/stm32l5xx_hal_rtc_ex.c ****     /* Call Tamper 1 Event registered secure Callback */
1990:../../Drivers/STM32L5xx_HAL_Driver/Src/stm32l5xx_hal_rtc_ex.c ****     hrtc->Tamper1EventCallback(hrtc);
1991:../../Drivers/STM32L5xx_HAL_Driver/Src/stm32l5xx_hal_rtc_ex.c **** #else
1992:../../Drivers/STM32L5xx_HAL_Driver/Src/stm32l5xx_hal_rtc_ex.c ****     /* Tamper1 secure callback */
1993:../../Drivers/STM32L5xx_HAL_Driver/Src/stm32l5xx_hal_rtc_ex.c ****     HAL_RTCEx_Tamper1EventCallback(hrtc);
1994:../../Drivers/STM32L5xx_HAL_Driver/Src/stm32l5xx_hal_rtc_ex.c **** #endif
1995:../../Drivers/STM32L5xx_HAL_Driver/Src/stm32l5xx_hal_rtc_ex.c ****   }
1996:../../Drivers/STM32L5xx_HAL_Driver/Src/stm32l5xx_hal_rtc_ex.c **** 
1997:../../Drivers/STM32L5xx_HAL_Driver/Src/stm32l5xx_hal_rtc_ex.c ****   /* Check Tamper2 status */
1998:../../Drivers/STM32L5xx_HAL_Driver/Src/stm32l5xx_hal_rtc_ex.c ****   if ((tmp & RTC_TAMPER_2) == RTC_TAMPER_2)
1999:../../Drivers/STM32L5xx_HAL_Driver/Src/stm32l5xx_hal_rtc_ex.c ****   {
2000:../../Drivers/STM32L5xx_HAL_Driver/Src/stm32l5xx_hal_rtc_ex.c **** #if (USE_HAL_RTC_REGISTER_CALLBACKS == 1)
2001:../../Drivers/STM32L5xx_HAL_Driver/Src/stm32l5xx_hal_rtc_ex.c ****     /* Call Tamper 2 Event registered secure Callback */
2002:../../Drivers/STM32L5xx_HAL_Driver/Src/stm32l5xx_hal_rtc_ex.c ****     hrtc->Tamper2EventCallback(hrtc);
2003:../../Drivers/STM32L5xx_HAL_Driver/Src/stm32l5xx_hal_rtc_ex.c **** #else
2004:../../Drivers/STM32L5xx_HAL_Driver/Src/stm32l5xx_hal_rtc_ex.c ****     /* Tamper2 secure callback */
2005:../../Drivers/STM32L5xx_HAL_Driver/Src/stm32l5xx_hal_rtc_ex.c ****     HAL_RTCEx_Tamper2EventCallback(hrtc);
2006:../../Drivers/STM32L5xx_HAL_Driver/Src/stm32l5xx_hal_rtc_ex.c **** #endif
2007:../../Drivers/STM32L5xx_HAL_Driver/Src/stm32l5xx_hal_rtc_ex.c ****   }
2008:../../Drivers/STM32L5xx_HAL_Driver/Src/stm32l5xx_hal_rtc_ex.c **** 
2009:../../Drivers/STM32L5xx_HAL_Driver/Src/stm32l5xx_hal_rtc_ex.c ****   /* Check Tamper3 status */
2010:../../Drivers/STM32L5xx_HAL_Driver/Src/stm32l5xx_hal_rtc_ex.c ****   if ((tmp & RTC_TAMPER_3) == RTC_TAMPER_3)
2011:../../Drivers/STM32L5xx_HAL_Driver/Src/stm32l5xx_hal_rtc_ex.c ****   {
ARM GAS  C:\Users\carlos\AppData\Local\Temp\ccaMGGVT.s 			page 107


2012:../../Drivers/STM32L5xx_HAL_Driver/Src/stm32l5xx_hal_rtc_ex.c **** #if (USE_HAL_RTC_REGISTER_CALLBACKS == 1)
2013:../../Drivers/STM32L5xx_HAL_Driver/Src/stm32l5xx_hal_rtc_ex.c ****     /* Call Tamper 3 Event registered secure Callback */
2014:../../Drivers/STM32L5xx_HAL_Driver/Src/stm32l5xx_hal_rtc_ex.c ****     hrtc->Tamper3EventCallback(hrtc);
2015:../../Drivers/STM32L5xx_HAL_Driver/Src/stm32l5xx_hal_rtc_ex.c **** #else
2016:../../Drivers/STM32L5xx_HAL_Driver/Src/stm32l5xx_hal_rtc_ex.c ****     /* Tamper3 secure callback */
2017:../../Drivers/STM32L5xx_HAL_Driver/Src/stm32l5xx_hal_rtc_ex.c ****     HAL_RTCEx_Tamper3EventCallback(hrtc);
2018:../../Drivers/STM32L5xx_HAL_Driver/Src/stm32l5xx_hal_rtc_ex.c **** #endif
2019:../../Drivers/STM32L5xx_HAL_Driver/Src/stm32l5xx_hal_rtc_ex.c ****   }
2020:../../Drivers/STM32L5xx_HAL_Driver/Src/stm32l5xx_hal_rtc_ex.c **** 
2021:../../Drivers/STM32L5xx_HAL_Driver/Src/stm32l5xx_hal_rtc_ex.c ****   /* Check Tamper4 status */
2022:../../Drivers/STM32L5xx_HAL_Driver/Src/stm32l5xx_hal_rtc_ex.c ****   if ((tmp & RTC_TAMPER_4) == RTC_TAMPER_4)
2023:../../Drivers/STM32L5xx_HAL_Driver/Src/stm32l5xx_hal_rtc_ex.c ****   {
2024:../../Drivers/STM32L5xx_HAL_Driver/Src/stm32l5xx_hal_rtc_ex.c **** #if (USE_HAL_RTC_REGISTER_CALLBACKS == 1)
2025:../../Drivers/STM32L5xx_HAL_Driver/Src/stm32l5xx_hal_rtc_ex.c ****     /* Call Tamper 4 Event registered secure Callback */
2026:../../Drivers/STM32L5xx_HAL_Driver/Src/stm32l5xx_hal_rtc_ex.c ****     hrtc->Tamper4EventCallback(hrtc);
2027:../../Drivers/STM32L5xx_HAL_Driver/Src/stm32l5xx_hal_rtc_ex.c **** #else
2028:../../Drivers/STM32L5xx_HAL_Driver/Src/stm32l5xx_hal_rtc_ex.c ****     /* Tamper4 secure callback */
2029:../../Drivers/STM32L5xx_HAL_Driver/Src/stm32l5xx_hal_rtc_ex.c ****     HAL_RTCEx_Tamper4EventCallback(hrtc);
2030:../../Drivers/STM32L5xx_HAL_Driver/Src/stm32l5xx_hal_rtc_ex.c **** #endif
2031:../../Drivers/STM32L5xx_HAL_Driver/Src/stm32l5xx_hal_rtc_ex.c ****   }
2032:../../Drivers/STM32L5xx_HAL_Driver/Src/stm32l5xx_hal_rtc_ex.c **** 
2033:../../Drivers/STM32L5xx_HAL_Driver/Src/stm32l5xx_hal_rtc_ex.c ****   /* Check Tamper5 status */
2034:../../Drivers/STM32L5xx_HAL_Driver/Src/stm32l5xx_hal_rtc_ex.c ****   if ((tmp & RTC_TAMPER_5) == RTC_TAMPER_5)
2035:../../Drivers/STM32L5xx_HAL_Driver/Src/stm32l5xx_hal_rtc_ex.c ****   {
2036:../../Drivers/STM32L5xx_HAL_Driver/Src/stm32l5xx_hal_rtc_ex.c **** #if (USE_HAL_RTC_REGISTER_CALLBACKS == 1)
2037:../../Drivers/STM32L5xx_HAL_Driver/Src/stm32l5xx_hal_rtc_ex.c ****     /* Call Tamper 5 Event registered secure Callback */
2038:../../Drivers/STM32L5xx_HAL_Driver/Src/stm32l5xx_hal_rtc_ex.c ****     hrtc->Tamper5EventCallback(hrtc);
2039:../../Drivers/STM32L5xx_HAL_Driver/Src/stm32l5xx_hal_rtc_ex.c **** #else
2040:../../Drivers/STM32L5xx_HAL_Driver/Src/stm32l5xx_hal_rtc_ex.c ****     /* Tamper5 secure callback */
2041:../../Drivers/STM32L5xx_HAL_Driver/Src/stm32l5xx_hal_rtc_ex.c ****     HAL_RTCEx_Tamper5EventCallback(hrtc);
2042:../../Drivers/STM32L5xx_HAL_Driver/Src/stm32l5xx_hal_rtc_ex.c **** #endif
2043:../../Drivers/STM32L5xx_HAL_Driver/Src/stm32l5xx_hal_rtc_ex.c ****   }
2044:../../Drivers/STM32L5xx_HAL_Driver/Src/stm32l5xx_hal_rtc_ex.c **** 
2045:../../Drivers/STM32L5xx_HAL_Driver/Src/stm32l5xx_hal_rtc_ex.c ****   /* Check Tamper6 status */
2046:../../Drivers/STM32L5xx_HAL_Driver/Src/stm32l5xx_hal_rtc_ex.c ****   if ((tmp & RTC_TAMPER_6) == RTC_TAMPER_6)
2047:../../Drivers/STM32L5xx_HAL_Driver/Src/stm32l5xx_hal_rtc_ex.c ****   {
2048:../../Drivers/STM32L5xx_HAL_Driver/Src/stm32l5xx_hal_rtc_ex.c **** #if (USE_HAL_RTC_REGISTER_CALLBACKS == 1)
2049:../../Drivers/STM32L5xx_HAL_Driver/Src/stm32l5xx_hal_rtc_ex.c ****     /* Call Tamper 6 Event registered secure Callback */
2050:../../Drivers/STM32L5xx_HAL_Driver/Src/stm32l5xx_hal_rtc_ex.c ****     hrtc->Tamper6EventCallback(hrtc);
2051:../../Drivers/STM32L5xx_HAL_Driver/Src/stm32l5xx_hal_rtc_ex.c **** #else
2052:../../Drivers/STM32L5xx_HAL_Driver/Src/stm32l5xx_hal_rtc_ex.c ****     /* Tamper6 secure callback */
2053:../../Drivers/STM32L5xx_HAL_Driver/Src/stm32l5xx_hal_rtc_ex.c ****     HAL_RTCEx_Tamper6EventCallback(hrtc);
2054:../../Drivers/STM32L5xx_HAL_Driver/Src/stm32l5xx_hal_rtc_ex.c **** #endif
2055:../../Drivers/STM32L5xx_HAL_Driver/Src/stm32l5xx_hal_rtc_ex.c ****   }
2056:../../Drivers/STM32L5xx_HAL_Driver/Src/stm32l5xx_hal_rtc_ex.c **** 
2057:../../Drivers/STM32L5xx_HAL_Driver/Src/stm32l5xx_hal_rtc_ex.c ****   /* Check Tamper7 status */
2058:../../Drivers/STM32L5xx_HAL_Driver/Src/stm32l5xx_hal_rtc_ex.c ****   if ((tmp & RTC_TAMPER_7) == RTC_TAMPER_7)
2059:../../Drivers/STM32L5xx_HAL_Driver/Src/stm32l5xx_hal_rtc_ex.c ****   {
2060:../../Drivers/STM32L5xx_HAL_Driver/Src/stm32l5xx_hal_rtc_ex.c **** #if (USE_HAL_RTC_REGISTER_CALLBACKS == 1)
2061:../../Drivers/STM32L5xx_HAL_Driver/Src/stm32l5xx_hal_rtc_ex.c ****     /* Call Tamper 7 Event registered secure Callback */
2062:../../Drivers/STM32L5xx_HAL_Driver/Src/stm32l5xx_hal_rtc_ex.c ****     hrtc->Tamper7EventCallback(hrtc);
2063:../../Drivers/STM32L5xx_HAL_Driver/Src/stm32l5xx_hal_rtc_ex.c **** #else
2064:../../Drivers/STM32L5xx_HAL_Driver/Src/stm32l5xx_hal_rtc_ex.c ****     /* Tamper7 secure callback */
2065:../../Drivers/STM32L5xx_HAL_Driver/Src/stm32l5xx_hal_rtc_ex.c ****     HAL_RTCEx_Tamper7EventCallback(hrtc);
2066:../../Drivers/STM32L5xx_HAL_Driver/Src/stm32l5xx_hal_rtc_ex.c **** #endif
2067:../../Drivers/STM32L5xx_HAL_Driver/Src/stm32l5xx_hal_rtc_ex.c ****   }
2068:../../Drivers/STM32L5xx_HAL_Driver/Src/stm32l5xx_hal_rtc_ex.c **** 
ARM GAS  C:\Users\carlos\AppData\Local\Temp\ccaMGGVT.s 			page 108


2069:../../Drivers/STM32L5xx_HAL_Driver/Src/stm32l5xx_hal_rtc_ex.c ****   /* Check Tamper8 status */
2070:../../Drivers/STM32L5xx_HAL_Driver/Src/stm32l5xx_hal_rtc_ex.c ****   if ((tmp & RTC_TAMPER_8) == RTC_TAMPER_8)
2071:../../Drivers/STM32L5xx_HAL_Driver/Src/stm32l5xx_hal_rtc_ex.c ****   {
2072:../../Drivers/STM32L5xx_HAL_Driver/Src/stm32l5xx_hal_rtc_ex.c **** #if (USE_HAL_RTC_REGISTER_CALLBACKS == 1)
2073:../../Drivers/STM32L5xx_HAL_Driver/Src/stm32l5xx_hal_rtc_ex.c ****     /* Call Tamper 8 Event registered secure Callback */
2074:../../Drivers/STM32L5xx_HAL_Driver/Src/stm32l5xx_hal_rtc_ex.c ****     hrtc->Tamper8EventCallback(hrtc);
2075:../../Drivers/STM32L5xx_HAL_Driver/Src/stm32l5xx_hal_rtc_ex.c **** #else
2076:../../Drivers/STM32L5xx_HAL_Driver/Src/stm32l5xx_hal_rtc_ex.c ****     /* Tamper8 secure callback */
2077:../../Drivers/STM32L5xx_HAL_Driver/Src/stm32l5xx_hal_rtc_ex.c ****     HAL_RTCEx_Tamper8EventCallback(hrtc);
2078:../../Drivers/STM32L5xx_HAL_Driver/Src/stm32l5xx_hal_rtc_ex.c **** #endif
2079:../../Drivers/STM32L5xx_HAL_Driver/Src/stm32l5xx_hal_rtc_ex.c ****   }
2080:../../Drivers/STM32L5xx_HAL_Driver/Src/stm32l5xx_hal_rtc_ex.c **** 
2081:../../Drivers/STM32L5xx_HAL_Driver/Src/stm32l5xx_hal_rtc_ex.c ****   /* Check Internal Tamper1 status */
2082:../../Drivers/STM32L5xx_HAL_Driver/Src/stm32l5xx_hal_rtc_ex.c ****   if ((tmp & RTC_INT_TAMPER_1) == RTC_INT_TAMPER_1)
2083:../../Drivers/STM32L5xx_HAL_Driver/Src/stm32l5xx_hal_rtc_ex.c ****   {
2084:../../Drivers/STM32L5xx_HAL_Driver/Src/stm32l5xx_hal_rtc_ex.c **** #if (USE_HAL_RTC_REGISTER_CALLBACKS == 1)
2085:../../Drivers/STM32L5xx_HAL_Driver/Src/stm32l5xx_hal_rtc_ex.c ****     /* Call Internal Tamper 1 Event registered secure Callback */
2086:../../Drivers/STM32L5xx_HAL_Driver/Src/stm32l5xx_hal_rtc_ex.c ****     hrtc->InternalTamper1EventCallback(hrtc);
2087:../../Drivers/STM32L5xx_HAL_Driver/Src/stm32l5xx_hal_rtc_ex.c **** #else
2088:../../Drivers/STM32L5xx_HAL_Driver/Src/stm32l5xx_hal_rtc_ex.c ****     /* Internal Tamper1 secure callback */
2089:../../Drivers/STM32L5xx_HAL_Driver/Src/stm32l5xx_hal_rtc_ex.c ****     HAL_RTCEx_InternalTamper1EventCallback(hrtc);
2090:../../Drivers/STM32L5xx_HAL_Driver/Src/stm32l5xx_hal_rtc_ex.c **** #endif
2091:../../Drivers/STM32L5xx_HAL_Driver/Src/stm32l5xx_hal_rtc_ex.c ****   }
2092:../../Drivers/STM32L5xx_HAL_Driver/Src/stm32l5xx_hal_rtc_ex.c **** 
2093:../../Drivers/STM32L5xx_HAL_Driver/Src/stm32l5xx_hal_rtc_ex.c ****   /* Check Internal Tamper2 status */
2094:../../Drivers/STM32L5xx_HAL_Driver/Src/stm32l5xx_hal_rtc_ex.c ****   if ((tmp & RTC_INT_TAMPER_2) == RTC_INT_TAMPER_2)
2095:../../Drivers/STM32L5xx_HAL_Driver/Src/stm32l5xx_hal_rtc_ex.c ****   {
2096:../../Drivers/STM32L5xx_HAL_Driver/Src/stm32l5xx_hal_rtc_ex.c **** #if (USE_HAL_RTC_REGISTER_CALLBACKS == 1)
2097:../../Drivers/STM32L5xx_HAL_Driver/Src/stm32l5xx_hal_rtc_ex.c ****     /* Call Internal Tamper 2 Event registered secure Callback */
2098:../../Drivers/STM32L5xx_HAL_Driver/Src/stm32l5xx_hal_rtc_ex.c ****     hrtc->InternalTamper2EventCallback(hrtc);
2099:../../Drivers/STM32L5xx_HAL_Driver/Src/stm32l5xx_hal_rtc_ex.c **** #else
2100:../../Drivers/STM32L5xx_HAL_Driver/Src/stm32l5xx_hal_rtc_ex.c ****     /* Internal Tamper2 secure callback */
2101:../../Drivers/STM32L5xx_HAL_Driver/Src/stm32l5xx_hal_rtc_ex.c ****     HAL_RTCEx_InternalTamper2EventCallback(hrtc);
2102:../../Drivers/STM32L5xx_HAL_Driver/Src/stm32l5xx_hal_rtc_ex.c **** #endif
2103:../../Drivers/STM32L5xx_HAL_Driver/Src/stm32l5xx_hal_rtc_ex.c ****   }
2104:../../Drivers/STM32L5xx_HAL_Driver/Src/stm32l5xx_hal_rtc_ex.c **** 
2105:../../Drivers/STM32L5xx_HAL_Driver/Src/stm32l5xx_hal_rtc_ex.c ****   /* Check Internal Tamper3 status */
2106:../../Drivers/STM32L5xx_HAL_Driver/Src/stm32l5xx_hal_rtc_ex.c ****   if ((tmp & RTC_INT_TAMPER_3) == RTC_INT_TAMPER_3)
2107:../../Drivers/STM32L5xx_HAL_Driver/Src/stm32l5xx_hal_rtc_ex.c ****   {
2108:../../Drivers/STM32L5xx_HAL_Driver/Src/stm32l5xx_hal_rtc_ex.c **** #if (USE_HAL_RTC_REGISTER_CALLBACKS == 1)
2109:../../Drivers/STM32L5xx_HAL_Driver/Src/stm32l5xx_hal_rtc_ex.c ****     /* Call Internal Tamper 3 Event registered secure Callback */
2110:../../Drivers/STM32L5xx_HAL_Driver/Src/stm32l5xx_hal_rtc_ex.c ****     hrtc->InternalTamper3EventCallback(hrtc);
2111:../../Drivers/STM32L5xx_HAL_Driver/Src/stm32l5xx_hal_rtc_ex.c **** #else
2112:../../Drivers/STM32L5xx_HAL_Driver/Src/stm32l5xx_hal_rtc_ex.c ****     /* Internal Tamper3 secure callback */
2113:../../Drivers/STM32L5xx_HAL_Driver/Src/stm32l5xx_hal_rtc_ex.c ****     HAL_RTCEx_InternalTamper3EventCallback(hrtc);
2114:../../Drivers/STM32L5xx_HAL_Driver/Src/stm32l5xx_hal_rtc_ex.c **** #endif
2115:../../Drivers/STM32L5xx_HAL_Driver/Src/stm32l5xx_hal_rtc_ex.c ****   }
2116:../../Drivers/STM32L5xx_HAL_Driver/Src/stm32l5xx_hal_rtc_ex.c **** 
2117:../../Drivers/STM32L5xx_HAL_Driver/Src/stm32l5xx_hal_rtc_ex.c ****   /* Check Internal Tamper5 status */
2118:../../Drivers/STM32L5xx_HAL_Driver/Src/stm32l5xx_hal_rtc_ex.c ****   if ((tmp & RTC_INT_TAMPER_5) == RTC_INT_TAMPER_5)
2119:../../Drivers/STM32L5xx_HAL_Driver/Src/stm32l5xx_hal_rtc_ex.c ****   {
2120:../../Drivers/STM32L5xx_HAL_Driver/Src/stm32l5xx_hal_rtc_ex.c **** #if (USE_HAL_RTC_REGISTER_CALLBACKS == 1)
2121:../../Drivers/STM32L5xx_HAL_Driver/Src/stm32l5xx_hal_rtc_ex.c ****     /* Call Internal Tamper 5 Event registered secure Callback */
2122:../../Drivers/STM32L5xx_HAL_Driver/Src/stm32l5xx_hal_rtc_ex.c ****     hrtc->InternalTamper5EventCallback(hrtc);
2123:../../Drivers/STM32L5xx_HAL_Driver/Src/stm32l5xx_hal_rtc_ex.c **** #else
2124:../../Drivers/STM32L5xx_HAL_Driver/Src/stm32l5xx_hal_rtc_ex.c ****     /* Internal Tamper5 secure callback */
2125:../../Drivers/STM32L5xx_HAL_Driver/Src/stm32l5xx_hal_rtc_ex.c ****     HAL_RTCEx_InternalTamper5EventCallback(hrtc);
ARM GAS  C:\Users\carlos\AppData\Local\Temp\ccaMGGVT.s 			page 109


2126:../../Drivers/STM32L5xx_HAL_Driver/Src/stm32l5xx_hal_rtc_ex.c **** #endif
2127:../../Drivers/STM32L5xx_HAL_Driver/Src/stm32l5xx_hal_rtc_ex.c ****   }
2128:../../Drivers/STM32L5xx_HAL_Driver/Src/stm32l5xx_hal_rtc_ex.c **** 
2129:../../Drivers/STM32L5xx_HAL_Driver/Src/stm32l5xx_hal_rtc_ex.c ****   /* Check Internal Tamper8 status */
2130:../../Drivers/STM32L5xx_HAL_Driver/Src/stm32l5xx_hal_rtc_ex.c ****   if ((tmp & RTC_INT_TAMPER_8) == RTC_INT_TAMPER_8)
2131:../../Drivers/STM32L5xx_HAL_Driver/Src/stm32l5xx_hal_rtc_ex.c ****   {
2132:../../Drivers/STM32L5xx_HAL_Driver/Src/stm32l5xx_hal_rtc_ex.c **** #if (USE_HAL_RTC_REGISTER_CALLBACKS == 1)
2133:../../Drivers/STM32L5xx_HAL_Driver/Src/stm32l5xx_hal_rtc_ex.c ****     /* Call Internal Tamper 8 Event registered secure Callback */
2134:../../Drivers/STM32L5xx_HAL_Driver/Src/stm32l5xx_hal_rtc_ex.c ****     hrtc->InternalTamper8EventCallback(hrtc);
2135:../../Drivers/STM32L5xx_HAL_Driver/Src/stm32l5xx_hal_rtc_ex.c **** #else
2136:../../Drivers/STM32L5xx_HAL_Driver/Src/stm32l5xx_hal_rtc_ex.c ****     /* Internal Tamper8 secure callback */
2137:../../Drivers/STM32L5xx_HAL_Driver/Src/stm32l5xx_hal_rtc_ex.c ****     HAL_RTCEx_InternalTamper8EventCallback(hrtc);
2138:../../Drivers/STM32L5xx_HAL_Driver/Src/stm32l5xx_hal_rtc_ex.c **** #endif
2139:../../Drivers/STM32L5xx_HAL_Driver/Src/stm32l5xx_hal_rtc_ex.c ****   }
2140:../../Drivers/STM32L5xx_HAL_Driver/Src/stm32l5xx_hal_rtc_ex.c **** }
2141:../../Drivers/STM32L5xx_HAL_Driver/Src/stm32l5xx_hal_rtc_ex.c **** 
2142:../../Drivers/STM32L5xx_HAL_Driver/Src/stm32l5xx_hal_rtc_ex.c **** #else /* #if defined (__ARM_FEATURE_CMSE) && (__ARM_FEATURE_CMSE == 3U) */
2143:../../Drivers/STM32L5xx_HAL_Driver/Src/stm32l5xx_hal_rtc_ex.c **** 
2144:../../Drivers/STM32L5xx_HAL_Driver/Src/stm32l5xx_hal_rtc_ex.c **** /**
2145:../../Drivers/STM32L5xx_HAL_Driver/Src/stm32l5xx_hal_rtc_ex.c ****   * @brief  Handle Tamper non-secure interrupt request.
2146:../../Drivers/STM32L5xx_HAL_Driver/Src/stm32l5xx_hal_rtc_ex.c ****   * @param  hrtc RTC handle
2147:../../Drivers/STM32L5xx_HAL_Driver/Src/stm32l5xx_hal_rtc_ex.c ****   * @retval None
2148:../../Drivers/STM32L5xx_HAL_Driver/Src/stm32l5xx_hal_rtc_ex.c ****   */
2149:../../Drivers/STM32L5xx_HAL_Driver/Src/stm32l5xx_hal_rtc_ex.c **** void HAL_RTCEx_TamperIRQHandler(RTC_HandleTypeDef *hrtc)
2150:../../Drivers/STM32L5xx_HAL_Driver/Src/stm32l5xx_hal_rtc_ex.c **** {
2151:../../Drivers/STM32L5xx_HAL_Driver/Src/stm32l5xx_hal_rtc_ex.c ****   /* Get interrupt status */
2152:../../Drivers/STM32L5xx_HAL_Driver/Src/stm32l5xx_hal_rtc_ex.c ****   uint32_t tmp = READ_REG(TAMP->MISR);
2153:../../Drivers/STM32L5xx_HAL_Driver/Src/stm32l5xx_hal_rtc_ex.c **** 
2154:../../Drivers/STM32L5xx_HAL_Driver/Src/stm32l5xx_hal_rtc_ex.c ****   /* Immediately clear flags */
2155:../../Drivers/STM32L5xx_HAL_Driver/Src/stm32l5xx_hal_rtc_ex.c ****   WRITE_REG(TAMP->SCR, tmp);
2156:../../Drivers/STM32L5xx_HAL_Driver/Src/stm32l5xx_hal_rtc_ex.c **** 
2157:../../Drivers/STM32L5xx_HAL_Driver/Src/stm32l5xx_hal_rtc_ex.c ****   /* Check Tamper1 status */
2158:../../Drivers/STM32L5xx_HAL_Driver/Src/stm32l5xx_hal_rtc_ex.c ****   if ((tmp & RTC_TAMPER_1) == RTC_TAMPER_1)
2159:../../Drivers/STM32L5xx_HAL_Driver/Src/stm32l5xx_hal_rtc_ex.c ****   {
2160:../../Drivers/STM32L5xx_HAL_Driver/Src/stm32l5xx_hal_rtc_ex.c **** #if (USE_HAL_RTC_REGISTER_CALLBACKS == 1)
2161:../../Drivers/STM32L5xx_HAL_Driver/Src/stm32l5xx_hal_rtc_ex.c ****     /* Call Tamper 1 Event registered Callback */
2162:../../Drivers/STM32L5xx_HAL_Driver/Src/stm32l5xx_hal_rtc_ex.c ****     hrtc->Tamper1EventCallback(hrtc);
2163:../../Drivers/STM32L5xx_HAL_Driver/Src/stm32l5xx_hal_rtc_ex.c **** #else
2164:../../Drivers/STM32L5xx_HAL_Driver/Src/stm32l5xx_hal_rtc_ex.c ****     /* Tamper1 callback */
2165:../../Drivers/STM32L5xx_HAL_Driver/Src/stm32l5xx_hal_rtc_ex.c ****     HAL_RTCEx_Tamper1EventCallback(hrtc);
2166:../../Drivers/STM32L5xx_HAL_Driver/Src/stm32l5xx_hal_rtc_ex.c **** #endif
2167:../../Drivers/STM32L5xx_HAL_Driver/Src/stm32l5xx_hal_rtc_ex.c ****   }
2168:../../Drivers/STM32L5xx_HAL_Driver/Src/stm32l5xx_hal_rtc_ex.c **** 
2169:../../Drivers/STM32L5xx_HAL_Driver/Src/stm32l5xx_hal_rtc_ex.c ****   /* Check Tamper2 status */
2170:../../Drivers/STM32L5xx_HAL_Driver/Src/stm32l5xx_hal_rtc_ex.c ****   if ((tmp & RTC_TAMPER_2) == RTC_TAMPER_2)
2171:../../Drivers/STM32L5xx_HAL_Driver/Src/stm32l5xx_hal_rtc_ex.c ****   {
2172:../../Drivers/STM32L5xx_HAL_Driver/Src/stm32l5xx_hal_rtc_ex.c **** #if (USE_HAL_RTC_REGISTER_CALLBACKS == 1)
2173:../../Drivers/STM32L5xx_HAL_Driver/Src/stm32l5xx_hal_rtc_ex.c ****     /* Call Tamper 2 Event registered Callback */
2174:../../Drivers/STM32L5xx_HAL_Driver/Src/stm32l5xx_hal_rtc_ex.c ****     hrtc->Tamper2EventCallback(hrtc);
2175:../../Drivers/STM32L5xx_HAL_Driver/Src/stm32l5xx_hal_rtc_ex.c **** #else
2176:../../Drivers/STM32L5xx_HAL_Driver/Src/stm32l5xx_hal_rtc_ex.c ****     /* Tamper2 callback */
2177:../../Drivers/STM32L5xx_HAL_Driver/Src/stm32l5xx_hal_rtc_ex.c ****     HAL_RTCEx_Tamper2EventCallback(hrtc);
2178:../../Drivers/STM32L5xx_HAL_Driver/Src/stm32l5xx_hal_rtc_ex.c **** #endif
2179:../../Drivers/STM32L5xx_HAL_Driver/Src/stm32l5xx_hal_rtc_ex.c ****   }
2180:../../Drivers/STM32L5xx_HAL_Driver/Src/stm32l5xx_hal_rtc_ex.c **** 
2181:../../Drivers/STM32L5xx_HAL_Driver/Src/stm32l5xx_hal_rtc_ex.c ****   /* Check Tamper3 status */
2182:../../Drivers/STM32L5xx_HAL_Driver/Src/stm32l5xx_hal_rtc_ex.c ****   if ((tmp & RTC_TAMPER_3) == RTC_TAMPER_3)
ARM GAS  C:\Users\carlos\AppData\Local\Temp\ccaMGGVT.s 			page 110


2183:../../Drivers/STM32L5xx_HAL_Driver/Src/stm32l5xx_hal_rtc_ex.c ****   {
2184:../../Drivers/STM32L5xx_HAL_Driver/Src/stm32l5xx_hal_rtc_ex.c **** #if (USE_HAL_RTC_REGISTER_CALLBACKS == 1)
2185:../../Drivers/STM32L5xx_HAL_Driver/Src/stm32l5xx_hal_rtc_ex.c ****     /* Call Tamper 3 Event registered Callback */
2186:../../Drivers/STM32L5xx_HAL_Driver/Src/stm32l5xx_hal_rtc_ex.c ****     hrtc->Tamper3EventCallback(hrtc);
2187:../../Drivers/STM32L5xx_HAL_Driver/Src/stm32l5xx_hal_rtc_ex.c **** #else
2188:../../Drivers/STM32L5xx_HAL_Driver/Src/stm32l5xx_hal_rtc_ex.c ****     /* Tamper3 callback */
2189:../../Drivers/STM32L5xx_HAL_Driver/Src/stm32l5xx_hal_rtc_ex.c ****     HAL_RTCEx_Tamper3EventCallback(hrtc);
2190:../../Drivers/STM32L5xx_HAL_Driver/Src/stm32l5xx_hal_rtc_ex.c **** #endif
2191:../../Drivers/STM32L5xx_HAL_Driver/Src/stm32l5xx_hal_rtc_ex.c ****   }
2192:../../Drivers/STM32L5xx_HAL_Driver/Src/stm32l5xx_hal_rtc_ex.c **** 
2193:../../Drivers/STM32L5xx_HAL_Driver/Src/stm32l5xx_hal_rtc_ex.c ****   /* Check Tamper4 status */
2194:../../Drivers/STM32L5xx_HAL_Driver/Src/stm32l5xx_hal_rtc_ex.c ****   if ((tmp & RTC_TAMPER_4) == RTC_TAMPER_4)
2195:../../Drivers/STM32L5xx_HAL_Driver/Src/stm32l5xx_hal_rtc_ex.c ****   {
2196:../../Drivers/STM32L5xx_HAL_Driver/Src/stm32l5xx_hal_rtc_ex.c **** #if (USE_HAL_RTC_REGISTER_CALLBACKS == 1)
2197:../../Drivers/STM32L5xx_HAL_Driver/Src/stm32l5xx_hal_rtc_ex.c ****     /* Call Tamper 4 Event registered Callback */
2198:../../Drivers/STM32L5xx_HAL_Driver/Src/stm32l5xx_hal_rtc_ex.c ****     hrtc->Tamper4EventCallback(hrtc);
2199:../../Drivers/STM32L5xx_HAL_Driver/Src/stm32l5xx_hal_rtc_ex.c **** #else
2200:../../Drivers/STM32L5xx_HAL_Driver/Src/stm32l5xx_hal_rtc_ex.c ****     /* Tamper4 callback */
2201:../../Drivers/STM32L5xx_HAL_Driver/Src/stm32l5xx_hal_rtc_ex.c ****     HAL_RTCEx_Tamper4EventCallback(hrtc);
2202:../../Drivers/STM32L5xx_HAL_Driver/Src/stm32l5xx_hal_rtc_ex.c **** #endif
2203:../../Drivers/STM32L5xx_HAL_Driver/Src/stm32l5xx_hal_rtc_ex.c ****   }
2204:../../Drivers/STM32L5xx_HAL_Driver/Src/stm32l5xx_hal_rtc_ex.c **** 
2205:../../Drivers/STM32L5xx_HAL_Driver/Src/stm32l5xx_hal_rtc_ex.c ****   /* Check Tamper5 status */
2206:../../Drivers/STM32L5xx_HAL_Driver/Src/stm32l5xx_hal_rtc_ex.c ****   if ((tmp & RTC_TAMPER_5) == RTC_TAMPER_5)
2207:../../Drivers/STM32L5xx_HAL_Driver/Src/stm32l5xx_hal_rtc_ex.c ****   {
2208:../../Drivers/STM32L5xx_HAL_Driver/Src/stm32l5xx_hal_rtc_ex.c **** #if (USE_HAL_RTC_REGISTER_CALLBACKS == 1)
2209:../../Drivers/STM32L5xx_HAL_Driver/Src/stm32l5xx_hal_rtc_ex.c ****     /* Call Tamper 5 Event registered Callback */
2210:../../Drivers/STM32L5xx_HAL_Driver/Src/stm32l5xx_hal_rtc_ex.c ****     hrtc->Tamper5EventCallback(hrtc);
2211:../../Drivers/STM32L5xx_HAL_Driver/Src/stm32l5xx_hal_rtc_ex.c **** #else
2212:../../Drivers/STM32L5xx_HAL_Driver/Src/stm32l5xx_hal_rtc_ex.c ****     /* Tamper5 callback */
2213:../../Drivers/STM32L5xx_HAL_Driver/Src/stm32l5xx_hal_rtc_ex.c ****     HAL_RTCEx_Tamper5EventCallback(hrtc);
2214:../../Drivers/STM32L5xx_HAL_Driver/Src/stm32l5xx_hal_rtc_ex.c **** #endif
2215:../../Drivers/STM32L5xx_HAL_Driver/Src/stm32l5xx_hal_rtc_ex.c ****   }
2216:../../Drivers/STM32L5xx_HAL_Driver/Src/stm32l5xx_hal_rtc_ex.c **** 
2217:../../Drivers/STM32L5xx_HAL_Driver/Src/stm32l5xx_hal_rtc_ex.c ****   /* Check Tamper6 status */
2218:../../Drivers/STM32L5xx_HAL_Driver/Src/stm32l5xx_hal_rtc_ex.c ****   if ((tmp & RTC_TAMPER_6) == RTC_TAMPER_6)
2219:../../Drivers/STM32L5xx_HAL_Driver/Src/stm32l5xx_hal_rtc_ex.c ****   {
2220:../../Drivers/STM32L5xx_HAL_Driver/Src/stm32l5xx_hal_rtc_ex.c **** #if (USE_HAL_RTC_REGISTER_CALLBACKS == 1)
2221:../../Drivers/STM32L5xx_HAL_Driver/Src/stm32l5xx_hal_rtc_ex.c ****     /* Call Tamper 6 Event registered Callback */
2222:../../Drivers/STM32L5xx_HAL_Driver/Src/stm32l5xx_hal_rtc_ex.c ****     hrtc->Tamper6EventCallback(hrtc);
2223:../../Drivers/STM32L5xx_HAL_Driver/Src/stm32l5xx_hal_rtc_ex.c **** #else
2224:../../Drivers/STM32L5xx_HAL_Driver/Src/stm32l5xx_hal_rtc_ex.c ****     /* Tamper6 callback */
2225:../../Drivers/STM32L5xx_HAL_Driver/Src/stm32l5xx_hal_rtc_ex.c ****     HAL_RTCEx_Tamper6EventCallback(hrtc);
2226:../../Drivers/STM32L5xx_HAL_Driver/Src/stm32l5xx_hal_rtc_ex.c **** #endif
2227:../../Drivers/STM32L5xx_HAL_Driver/Src/stm32l5xx_hal_rtc_ex.c ****   }
2228:../../Drivers/STM32L5xx_HAL_Driver/Src/stm32l5xx_hal_rtc_ex.c **** 
2229:../../Drivers/STM32L5xx_HAL_Driver/Src/stm32l5xx_hal_rtc_ex.c ****   /* Check Tamper7 status */
2230:../../Drivers/STM32L5xx_HAL_Driver/Src/stm32l5xx_hal_rtc_ex.c ****   if ((tmp & RTC_TAMPER_7) == RTC_TAMPER_7)
2231:../../Drivers/STM32L5xx_HAL_Driver/Src/stm32l5xx_hal_rtc_ex.c ****   {
2232:../../Drivers/STM32L5xx_HAL_Driver/Src/stm32l5xx_hal_rtc_ex.c **** #if (USE_HAL_RTC_REGISTER_CALLBACKS == 1)
2233:../../Drivers/STM32L5xx_HAL_Driver/Src/stm32l5xx_hal_rtc_ex.c ****     /* Call Tamper 7 Event registered Callback */
2234:../../Drivers/STM32L5xx_HAL_Driver/Src/stm32l5xx_hal_rtc_ex.c ****     hrtc->Tamper7EventCallback(hrtc);
2235:../../Drivers/STM32L5xx_HAL_Driver/Src/stm32l5xx_hal_rtc_ex.c **** #else
2236:../../Drivers/STM32L5xx_HAL_Driver/Src/stm32l5xx_hal_rtc_ex.c ****     /* Tamper7 callback */
2237:../../Drivers/STM32L5xx_HAL_Driver/Src/stm32l5xx_hal_rtc_ex.c ****     HAL_RTCEx_Tamper7EventCallback(hrtc);
2238:../../Drivers/STM32L5xx_HAL_Driver/Src/stm32l5xx_hal_rtc_ex.c **** #endif
2239:../../Drivers/STM32L5xx_HAL_Driver/Src/stm32l5xx_hal_rtc_ex.c ****   }
ARM GAS  C:\Users\carlos\AppData\Local\Temp\ccaMGGVT.s 			page 111


2240:../../Drivers/STM32L5xx_HAL_Driver/Src/stm32l5xx_hal_rtc_ex.c **** 
2241:../../Drivers/STM32L5xx_HAL_Driver/Src/stm32l5xx_hal_rtc_ex.c ****   /* Check Tamper8 status */
2242:../../Drivers/STM32L5xx_HAL_Driver/Src/stm32l5xx_hal_rtc_ex.c ****   if ((tmp & RTC_TAMPER_8) == RTC_TAMPER_8)
2243:../../Drivers/STM32L5xx_HAL_Driver/Src/stm32l5xx_hal_rtc_ex.c ****   {
2244:../../Drivers/STM32L5xx_HAL_Driver/Src/stm32l5xx_hal_rtc_ex.c **** #if (USE_HAL_RTC_REGISTER_CALLBACKS == 1)
2245:../../Drivers/STM32L5xx_HAL_Driver/Src/stm32l5xx_hal_rtc_ex.c ****     /* Call Tamper 8 Event registered Callback */
2246:../../Drivers/STM32L5xx_HAL_Driver/Src/stm32l5xx_hal_rtc_ex.c ****     hrtc->Tamper8EventCallback(hrtc);
2247:../../Drivers/STM32L5xx_HAL_Driver/Src/stm32l5xx_hal_rtc_ex.c **** #else
2248:../../Drivers/STM32L5xx_HAL_Driver/Src/stm32l5xx_hal_rtc_ex.c ****     /* Tamper8 callback */
2249:../../Drivers/STM32L5xx_HAL_Driver/Src/stm32l5xx_hal_rtc_ex.c ****     HAL_RTCEx_Tamper8EventCallback(hrtc);
2250:../../Drivers/STM32L5xx_HAL_Driver/Src/stm32l5xx_hal_rtc_ex.c **** #endif
2251:../../Drivers/STM32L5xx_HAL_Driver/Src/stm32l5xx_hal_rtc_ex.c ****   }
2252:../../Drivers/STM32L5xx_HAL_Driver/Src/stm32l5xx_hal_rtc_ex.c **** 
2253:../../Drivers/STM32L5xx_HAL_Driver/Src/stm32l5xx_hal_rtc_ex.c ****   /* Check Internal Tamper1 status */
2254:../../Drivers/STM32L5xx_HAL_Driver/Src/stm32l5xx_hal_rtc_ex.c ****   if ((tmp & RTC_INT_TAMPER_1) == RTC_INT_TAMPER_1)
2255:../../Drivers/STM32L5xx_HAL_Driver/Src/stm32l5xx_hal_rtc_ex.c ****   {
2256:../../Drivers/STM32L5xx_HAL_Driver/Src/stm32l5xx_hal_rtc_ex.c **** #if (USE_HAL_RTC_REGISTER_CALLBACKS == 1)
2257:../../Drivers/STM32L5xx_HAL_Driver/Src/stm32l5xx_hal_rtc_ex.c ****     /* Call Internal Tamper 1 Event registered Callback */
2258:../../Drivers/STM32L5xx_HAL_Driver/Src/stm32l5xx_hal_rtc_ex.c ****     hrtc->InternalTamper1EventCallback(hrtc);
2259:../../Drivers/STM32L5xx_HAL_Driver/Src/stm32l5xx_hal_rtc_ex.c **** #else
2260:../../Drivers/STM32L5xx_HAL_Driver/Src/stm32l5xx_hal_rtc_ex.c ****     /* Internal Tamper1 callback */
2261:../../Drivers/STM32L5xx_HAL_Driver/Src/stm32l5xx_hal_rtc_ex.c ****     HAL_RTCEx_InternalTamper1EventCallback(hrtc);
2262:../../Drivers/STM32L5xx_HAL_Driver/Src/stm32l5xx_hal_rtc_ex.c **** #endif
2263:../../Drivers/STM32L5xx_HAL_Driver/Src/stm32l5xx_hal_rtc_ex.c ****   }
2264:../../Drivers/STM32L5xx_HAL_Driver/Src/stm32l5xx_hal_rtc_ex.c **** 
2265:../../Drivers/STM32L5xx_HAL_Driver/Src/stm32l5xx_hal_rtc_ex.c ****   /* Check Internal Tamper2 status */
2266:../../Drivers/STM32L5xx_HAL_Driver/Src/stm32l5xx_hal_rtc_ex.c ****   if ((tmp & RTC_INT_TAMPER_2) == RTC_INT_TAMPER_2)
2267:../../Drivers/STM32L5xx_HAL_Driver/Src/stm32l5xx_hal_rtc_ex.c ****   {
2268:../../Drivers/STM32L5xx_HAL_Driver/Src/stm32l5xx_hal_rtc_ex.c **** #if (USE_HAL_RTC_REGISTER_CALLBACKS == 1)
2269:../../Drivers/STM32L5xx_HAL_Driver/Src/stm32l5xx_hal_rtc_ex.c ****     /* Call Internal Tamper 2 Event registered Callback */
2270:../../Drivers/STM32L5xx_HAL_Driver/Src/stm32l5xx_hal_rtc_ex.c ****     hrtc->InternalTamper2EventCallback(hrtc);
2271:../../Drivers/STM32L5xx_HAL_Driver/Src/stm32l5xx_hal_rtc_ex.c **** #else
2272:../../Drivers/STM32L5xx_HAL_Driver/Src/stm32l5xx_hal_rtc_ex.c ****     /* Internal Tamper2 callback */
2273:../../Drivers/STM32L5xx_HAL_Driver/Src/stm32l5xx_hal_rtc_ex.c ****     HAL_RTCEx_InternalTamper2EventCallback(hrtc);
2274:../../Drivers/STM32L5xx_HAL_Driver/Src/stm32l5xx_hal_rtc_ex.c **** #endif
2275:../../Drivers/STM32L5xx_HAL_Driver/Src/stm32l5xx_hal_rtc_ex.c ****   }
2276:../../Drivers/STM32L5xx_HAL_Driver/Src/stm32l5xx_hal_rtc_ex.c **** 
2277:../../Drivers/STM32L5xx_HAL_Driver/Src/stm32l5xx_hal_rtc_ex.c ****   /* Check Internal Tamper3 status */
2278:../../Drivers/STM32L5xx_HAL_Driver/Src/stm32l5xx_hal_rtc_ex.c ****   if ((tmp & RTC_INT_TAMPER_3) == RTC_INT_TAMPER_3)
2279:../../Drivers/STM32L5xx_HAL_Driver/Src/stm32l5xx_hal_rtc_ex.c ****   {
2280:../../Drivers/STM32L5xx_HAL_Driver/Src/stm32l5xx_hal_rtc_ex.c **** #if (USE_HAL_RTC_REGISTER_CALLBACKS == 1)
2281:../../Drivers/STM32L5xx_HAL_Driver/Src/stm32l5xx_hal_rtc_ex.c ****     /* Call Internal Tamper 3 Event registered Callback */
2282:../../Drivers/STM32L5xx_HAL_Driver/Src/stm32l5xx_hal_rtc_ex.c ****     hrtc->InternalTamper3EventCallback(hrtc);
2283:../../Drivers/STM32L5xx_HAL_Driver/Src/stm32l5xx_hal_rtc_ex.c **** #else
2284:../../Drivers/STM32L5xx_HAL_Driver/Src/stm32l5xx_hal_rtc_ex.c ****     /* Internal Tamper3 callback */
2285:../../Drivers/STM32L5xx_HAL_Driver/Src/stm32l5xx_hal_rtc_ex.c ****     HAL_RTCEx_InternalTamper3EventCallback(hrtc);
2286:../../Drivers/STM32L5xx_HAL_Driver/Src/stm32l5xx_hal_rtc_ex.c **** #endif
2287:../../Drivers/STM32L5xx_HAL_Driver/Src/stm32l5xx_hal_rtc_ex.c ****   }
2288:../../Drivers/STM32L5xx_HAL_Driver/Src/stm32l5xx_hal_rtc_ex.c **** 
2289:../../Drivers/STM32L5xx_HAL_Driver/Src/stm32l5xx_hal_rtc_ex.c ****   /* Check Internal Tamper5 status */
2290:../../Drivers/STM32L5xx_HAL_Driver/Src/stm32l5xx_hal_rtc_ex.c ****   if ((tmp & RTC_INT_TAMPER_5) == RTC_INT_TAMPER_5)
2291:../../Drivers/STM32L5xx_HAL_Driver/Src/stm32l5xx_hal_rtc_ex.c ****   {
2292:../../Drivers/STM32L5xx_HAL_Driver/Src/stm32l5xx_hal_rtc_ex.c **** #if (USE_HAL_RTC_REGISTER_CALLBACKS == 1)
2293:../../Drivers/STM32L5xx_HAL_Driver/Src/stm32l5xx_hal_rtc_ex.c ****     /* Call Internal Tamper 5 Event registered Callback */
2294:../../Drivers/STM32L5xx_HAL_Driver/Src/stm32l5xx_hal_rtc_ex.c ****     hrtc->InternalTamper5EventCallback(hrtc);
2295:../../Drivers/STM32L5xx_HAL_Driver/Src/stm32l5xx_hal_rtc_ex.c **** #else
2296:../../Drivers/STM32L5xx_HAL_Driver/Src/stm32l5xx_hal_rtc_ex.c ****     /* Internal Tamper5 callback */
ARM GAS  C:\Users\carlos\AppData\Local\Temp\ccaMGGVT.s 			page 112


2297:../../Drivers/STM32L5xx_HAL_Driver/Src/stm32l5xx_hal_rtc_ex.c ****     HAL_RTCEx_InternalTamper5EventCallback(hrtc);
2298:../../Drivers/STM32L5xx_HAL_Driver/Src/stm32l5xx_hal_rtc_ex.c **** #endif
2299:../../Drivers/STM32L5xx_HAL_Driver/Src/stm32l5xx_hal_rtc_ex.c ****   }
2300:../../Drivers/STM32L5xx_HAL_Driver/Src/stm32l5xx_hal_rtc_ex.c **** 
2301:../../Drivers/STM32L5xx_HAL_Driver/Src/stm32l5xx_hal_rtc_ex.c ****   /* Check Internal Tamper8 status */
2302:../../Drivers/STM32L5xx_HAL_Driver/Src/stm32l5xx_hal_rtc_ex.c ****   if ((tmp & RTC_INT_TAMPER_8) == RTC_INT_TAMPER_8)
2303:../../Drivers/STM32L5xx_HAL_Driver/Src/stm32l5xx_hal_rtc_ex.c ****   {
2304:../../Drivers/STM32L5xx_HAL_Driver/Src/stm32l5xx_hal_rtc_ex.c **** #if (USE_HAL_RTC_REGISTER_CALLBACKS == 1)
2305:../../Drivers/STM32L5xx_HAL_Driver/Src/stm32l5xx_hal_rtc_ex.c ****     /* Call Internal Tamper 8 Event registered Callback */
2306:../../Drivers/STM32L5xx_HAL_Driver/Src/stm32l5xx_hal_rtc_ex.c ****     hrtc->InternalTamper8EventCallback(hrtc);
2307:../../Drivers/STM32L5xx_HAL_Driver/Src/stm32l5xx_hal_rtc_ex.c **** #else
2308:../../Drivers/STM32L5xx_HAL_Driver/Src/stm32l5xx_hal_rtc_ex.c ****     /* Internal Tamper8 callback */
2309:../../Drivers/STM32L5xx_HAL_Driver/Src/stm32l5xx_hal_rtc_ex.c ****     HAL_RTCEx_InternalTamper8EventCallback(hrtc);
2310:../../Drivers/STM32L5xx_HAL_Driver/Src/stm32l5xx_hal_rtc_ex.c **** #endif
2311:../../Drivers/STM32L5xx_HAL_Driver/Src/stm32l5xx_hal_rtc_ex.c ****   }
2312:../../Drivers/STM32L5xx_HAL_Driver/Src/stm32l5xx_hal_rtc_ex.c **** }
2313:../../Drivers/STM32L5xx_HAL_Driver/Src/stm32l5xx_hal_rtc_ex.c **** #endif /* #if defined (__ARM_FEATURE_CMSE) && (__ARM_FEATURE_CMSE == 3U) */
2314:../../Drivers/STM32L5xx_HAL_Driver/Src/stm32l5xx_hal_rtc_ex.c **** 
2315:../../Drivers/STM32L5xx_HAL_Driver/Src/stm32l5xx_hal_rtc_ex.c **** /**
2316:../../Drivers/STM32L5xx_HAL_Driver/Src/stm32l5xx_hal_rtc_ex.c ****   * @brief  Tamper 1 callback.
2317:../../Drivers/STM32L5xx_HAL_Driver/Src/stm32l5xx_hal_rtc_ex.c ****   * @param  hrtc RTC handle
2318:../../Drivers/STM32L5xx_HAL_Driver/Src/stm32l5xx_hal_rtc_ex.c ****   * @retval None
2319:../../Drivers/STM32L5xx_HAL_Driver/Src/stm32l5xx_hal_rtc_ex.c ****   */
2320:../../Drivers/STM32L5xx_HAL_Driver/Src/stm32l5xx_hal_rtc_ex.c **** __weak void HAL_RTCEx_Tamper1EventCallback(RTC_HandleTypeDef *hrtc)
2321:../../Drivers/STM32L5xx_HAL_Driver/Src/stm32l5xx_hal_rtc_ex.c **** {
 3811              		.loc 1 2321 1 is_stmt 1 view -0
 3812              		.cfi_startproc
 3813              		@ args = 0, pretend = 0, frame = 0
 3814              		@ frame_needed = 0, uses_anonymous_args = 0
 3815              		@ link register save eliminated.
2322:../../Drivers/STM32L5xx_HAL_Driver/Src/stm32l5xx_hal_rtc_ex.c ****   /* Prevent unused argument(s) compilation warning */
2323:../../Drivers/STM32L5xx_HAL_Driver/Src/stm32l5xx_hal_rtc_ex.c ****   UNUSED(hrtc);
 3816              		.loc 1 2323 3 view .LVU1238
2324:../../Drivers/STM32L5xx_HAL_Driver/Src/stm32l5xx_hal_rtc_ex.c **** 
2325:../../Drivers/STM32L5xx_HAL_Driver/Src/stm32l5xx_hal_rtc_ex.c ****   /* NOTE : This function should not be modified, when the callback is needed,
2326:../../Drivers/STM32L5xx_HAL_Driver/Src/stm32l5xx_hal_rtc_ex.c ****             the HAL_RTCEx_Tamper1EventCallback could be implemented in the user file
2327:../../Drivers/STM32L5xx_HAL_Driver/Src/stm32l5xx_hal_rtc_ex.c ****    */
2328:../../Drivers/STM32L5xx_HAL_Driver/Src/stm32l5xx_hal_rtc_ex.c **** }
 3817              		.loc 1 2328 1 is_stmt 0 view .LVU1239
 3818 0000 7047     		bx	lr
 3819              		.cfi_endproc
 3820              	.LFE243:
 3822              		.section	.text.HAL_RTCEx_Tamper2EventCallback,"ax",%progbits
 3823              		.align	1
 3824              		.weak	HAL_RTCEx_Tamper2EventCallback
 3825              		.syntax unified
 3826              		.thumb
 3827              		.thumb_func
 3828              		.fpu fpv4-sp-d16
 3830              	HAL_RTCEx_Tamper2EventCallback:
 3831              	.LVL241:
 3832              	.LFB244:
2329:../../Drivers/STM32L5xx_HAL_Driver/Src/stm32l5xx_hal_rtc_ex.c **** 
2330:../../Drivers/STM32L5xx_HAL_Driver/Src/stm32l5xx_hal_rtc_ex.c **** /**
2331:../../Drivers/STM32L5xx_HAL_Driver/Src/stm32l5xx_hal_rtc_ex.c ****   * @brief  Tamper 2 callback.
2332:../../Drivers/STM32L5xx_HAL_Driver/Src/stm32l5xx_hal_rtc_ex.c ****   * @param  hrtc RTC handle
2333:../../Drivers/STM32L5xx_HAL_Driver/Src/stm32l5xx_hal_rtc_ex.c ****   * @retval None
ARM GAS  C:\Users\carlos\AppData\Local\Temp\ccaMGGVT.s 			page 113


2334:../../Drivers/STM32L5xx_HAL_Driver/Src/stm32l5xx_hal_rtc_ex.c ****   */
2335:../../Drivers/STM32L5xx_HAL_Driver/Src/stm32l5xx_hal_rtc_ex.c **** __weak void HAL_RTCEx_Tamper2EventCallback(RTC_HandleTypeDef *hrtc)
2336:../../Drivers/STM32L5xx_HAL_Driver/Src/stm32l5xx_hal_rtc_ex.c **** {
 3833              		.loc 1 2336 1 is_stmt 1 view -0
 3834              		.cfi_startproc
 3835              		@ args = 0, pretend = 0, frame = 0
 3836              		@ frame_needed = 0, uses_anonymous_args = 0
 3837              		@ link register save eliminated.
2337:../../Drivers/STM32L5xx_HAL_Driver/Src/stm32l5xx_hal_rtc_ex.c ****   /* Prevent unused argument(s) compilation warning */
2338:../../Drivers/STM32L5xx_HAL_Driver/Src/stm32l5xx_hal_rtc_ex.c ****   UNUSED(hrtc);
 3838              		.loc 1 2338 3 view .LVU1241
2339:../../Drivers/STM32L5xx_HAL_Driver/Src/stm32l5xx_hal_rtc_ex.c **** 
2340:../../Drivers/STM32L5xx_HAL_Driver/Src/stm32l5xx_hal_rtc_ex.c ****   /* NOTE : This function should not be modified, when the callback is needed,
2341:../../Drivers/STM32L5xx_HAL_Driver/Src/stm32l5xx_hal_rtc_ex.c ****             the HAL_RTCEx_Tamper2EventCallback could be implemented in the user file
2342:../../Drivers/STM32L5xx_HAL_Driver/Src/stm32l5xx_hal_rtc_ex.c ****    */
2343:../../Drivers/STM32L5xx_HAL_Driver/Src/stm32l5xx_hal_rtc_ex.c **** }
 3839              		.loc 1 2343 1 is_stmt 0 view .LVU1242
 3840 0000 7047     		bx	lr
 3841              		.cfi_endproc
 3842              	.LFE244:
 3844              		.section	.text.HAL_RTCEx_Tamper3EventCallback,"ax",%progbits
 3845              		.align	1
 3846              		.weak	HAL_RTCEx_Tamper3EventCallback
 3847              		.syntax unified
 3848              		.thumb
 3849              		.thumb_func
 3850              		.fpu fpv4-sp-d16
 3852              	HAL_RTCEx_Tamper3EventCallback:
 3853              	.LVL242:
 3854              	.LFB245:
2344:../../Drivers/STM32L5xx_HAL_Driver/Src/stm32l5xx_hal_rtc_ex.c **** 
2345:../../Drivers/STM32L5xx_HAL_Driver/Src/stm32l5xx_hal_rtc_ex.c **** /**
2346:../../Drivers/STM32L5xx_HAL_Driver/Src/stm32l5xx_hal_rtc_ex.c ****   * @brief  Tamper 3 callback.
2347:../../Drivers/STM32L5xx_HAL_Driver/Src/stm32l5xx_hal_rtc_ex.c ****   * @param  hrtc RTC handle
2348:../../Drivers/STM32L5xx_HAL_Driver/Src/stm32l5xx_hal_rtc_ex.c ****   * @retval None
2349:../../Drivers/STM32L5xx_HAL_Driver/Src/stm32l5xx_hal_rtc_ex.c ****   */
2350:../../Drivers/STM32L5xx_HAL_Driver/Src/stm32l5xx_hal_rtc_ex.c **** __weak void HAL_RTCEx_Tamper3EventCallback(RTC_HandleTypeDef *hrtc)
2351:../../Drivers/STM32L5xx_HAL_Driver/Src/stm32l5xx_hal_rtc_ex.c **** {
 3855              		.loc 1 2351 1 is_stmt 1 view -0
 3856              		.cfi_startproc
 3857              		@ args = 0, pretend = 0, frame = 0
 3858              		@ frame_needed = 0, uses_anonymous_args = 0
 3859              		@ link register save eliminated.
2352:../../Drivers/STM32L5xx_HAL_Driver/Src/stm32l5xx_hal_rtc_ex.c ****   /* Prevent unused argument(s) compilation warning */
2353:../../Drivers/STM32L5xx_HAL_Driver/Src/stm32l5xx_hal_rtc_ex.c ****   UNUSED(hrtc);
 3860              		.loc 1 2353 3 view .LVU1244
2354:../../Drivers/STM32L5xx_HAL_Driver/Src/stm32l5xx_hal_rtc_ex.c **** 
2355:../../Drivers/STM32L5xx_HAL_Driver/Src/stm32l5xx_hal_rtc_ex.c ****   /* NOTE : This function should not be modified, when the callback is needed,
2356:../../Drivers/STM32L5xx_HAL_Driver/Src/stm32l5xx_hal_rtc_ex.c ****             the HAL_RTCEx_Tamper3EventCallback could be implemented in the user file
2357:../../Drivers/STM32L5xx_HAL_Driver/Src/stm32l5xx_hal_rtc_ex.c ****    */
2358:../../Drivers/STM32L5xx_HAL_Driver/Src/stm32l5xx_hal_rtc_ex.c **** }
 3861              		.loc 1 2358 1 is_stmt 0 view .LVU1245
 3862 0000 7047     		bx	lr
 3863              		.cfi_endproc
 3864              	.LFE245:
 3866              		.section	.text.HAL_RTCEx_Tamper4EventCallback,"ax",%progbits
 3867              		.align	1
ARM GAS  C:\Users\carlos\AppData\Local\Temp\ccaMGGVT.s 			page 114


 3868              		.weak	HAL_RTCEx_Tamper4EventCallback
 3869              		.syntax unified
 3870              		.thumb
 3871              		.thumb_func
 3872              		.fpu fpv4-sp-d16
 3874              	HAL_RTCEx_Tamper4EventCallback:
 3875              	.LVL243:
 3876              	.LFB246:
2359:../../Drivers/STM32L5xx_HAL_Driver/Src/stm32l5xx_hal_rtc_ex.c **** 
2360:../../Drivers/STM32L5xx_HAL_Driver/Src/stm32l5xx_hal_rtc_ex.c **** /**
2361:../../Drivers/STM32L5xx_HAL_Driver/Src/stm32l5xx_hal_rtc_ex.c ****   * @brief  Tamper 4 callback.
2362:../../Drivers/STM32L5xx_HAL_Driver/Src/stm32l5xx_hal_rtc_ex.c ****   * @param  hrtc RTC handle
2363:../../Drivers/STM32L5xx_HAL_Driver/Src/stm32l5xx_hal_rtc_ex.c ****   * @retval None
2364:../../Drivers/STM32L5xx_HAL_Driver/Src/stm32l5xx_hal_rtc_ex.c ****   */
2365:../../Drivers/STM32L5xx_HAL_Driver/Src/stm32l5xx_hal_rtc_ex.c **** __weak void HAL_RTCEx_Tamper4EventCallback(RTC_HandleTypeDef *hrtc)
2366:../../Drivers/STM32L5xx_HAL_Driver/Src/stm32l5xx_hal_rtc_ex.c **** {
 3877              		.loc 1 2366 1 is_stmt 1 view -0
 3878              		.cfi_startproc
 3879              		@ args = 0, pretend = 0, frame = 0
 3880              		@ frame_needed = 0, uses_anonymous_args = 0
 3881              		@ link register save eliminated.
2367:../../Drivers/STM32L5xx_HAL_Driver/Src/stm32l5xx_hal_rtc_ex.c ****   /* Prevent unused argument(s) compilation warning */
2368:../../Drivers/STM32L5xx_HAL_Driver/Src/stm32l5xx_hal_rtc_ex.c ****   UNUSED(hrtc);
 3882              		.loc 1 2368 3 view .LVU1247
2369:../../Drivers/STM32L5xx_HAL_Driver/Src/stm32l5xx_hal_rtc_ex.c **** 
2370:../../Drivers/STM32L5xx_HAL_Driver/Src/stm32l5xx_hal_rtc_ex.c ****   /* NOTE : This function should not be modified, when the callback is needed,
2371:../../Drivers/STM32L5xx_HAL_Driver/Src/stm32l5xx_hal_rtc_ex.c ****             the HAL_RTCEx_Tamper4EventCallback could be implemented in the user file
2372:../../Drivers/STM32L5xx_HAL_Driver/Src/stm32l5xx_hal_rtc_ex.c ****    */
2373:../../Drivers/STM32L5xx_HAL_Driver/Src/stm32l5xx_hal_rtc_ex.c **** }
 3883              		.loc 1 2373 1 is_stmt 0 view .LVU1248
 3884 0000 7047     		bx	lr
 3885              		.cfi_endproc
 3886              	.LFE246:
 3888              		.section	.text.HAL_RTCEx_Tamper5EventCallback,"ax",%progbits
 3889              		.align	1
 3890              		.weak	HAL_RTCEx_Tamper5EventCallback
 3891              		.syntax unified
 3892              		.thumb
 3893              		.thumb_func
 3894              		.fpu fpv4-sp-d16
 3896              	HAL_RTCEx_Tamper5EventCallback:
 3897              	.LVL244:
 3898              	.LFB247:
2374:../../Drivers/STM32L5xx_HAL_Driver/Src/stm32l5xx_hal_rtc_ex.c **** 
2375:../../Drivers/STM32L5xx_HAL_Driver/Src/stm32l5xx_hal_rtc_ex.c **** /**
2376:../../Drivers/STM32L5xx_HAL_Driver/Src/stm32l5xx_hal_rtc_ex.c ****   * @brief  Tamper 5 callback.
2377:../../Drivers/STM32L5xx_HAL_Driver/Src/stm32l5xx_hal_rtc_ex.c ****   * @param  hrtc RTC handle
2378:../../Drivers/STM32L5xx_HAL_Driver/Src/stm32l5xx_hal_rtc_ex.c ****   * @retval None
2379:../../Drivers/STM32L5xx_HAL_Driver/Src/stm32l5xx_hal_rtc_ex.c ****   */
2380:../../Drivers/STM32L5xx_HAL_Driver/Src/stm32l5xx_hal_rtc_ex.c **** __weak void HAL_RTCEx_Tamper5EventCallback(RTC_HandleTypeDef *hrtc)
2381:../../Drivers/STM32L5xx_HAL_Driver/Src/stm32l5xx_hal_rtc_ex.c **** {
 3899              		.loc 1 2381 1 is_stmt 1 view -0
 3900              		.cfi_startproc
 3901              		@ args = 0, pretend = 0, frame = 0
 3902              		@ frame_needed = 0, uses_anonymous_args = 0
 3903              		@ link register save eliminated.
2382:../../Drivers/STM32L5xx_HAL_Driver/Src/stm32l5xx_hal_rtc_ex.c ****   /* Prevent unused argument(s) compilation warning */
ARM GAS  C:\Users\carlos\AppData\Local\Temp\ccaMGGVT.s 			page 115


2383:../../Drivers/STM32L5xx_HAL_Driver/Src/stm32l5xx_hal_rtc_ex.c ****   UNUSED(hrtc);
 3904              		.loc 1 2383 3 view .LVU1250
2384:../../Drivers/STM32L5xx_HAL_Driver/Src/stm32l5xx_hal_rtc_ex.c **** 
2385:../../Drivers/STM32L5xx_HAL_Driver/Src/stm32l5xx_hal_rtc_ex.c ****   /* NOTE : This function should not be modified, when the callback is needed,
2386:../../Drivers/STM32L5xx_HAL_Driver/Src/stm32l5xx_hal_rtc_ex.c ****             the HAL_RTCEx_Tamper5EventCallback could be implemented in the user file
2387:../../Drivers/STM32L5xx_HAL_Driver/Src/stm32l5xx_hal_rtc_ex.c ****    */
2388:../../Drivers/STM32L5xx_HAL_Driver/Src/stm32l5xx_hal_rtc_ex.c **** }
 3905              		.loc 1 2388 1 is_stmt 0 view .LVU1251
 3906 0000 7047     		bx	lr
 3907              		.cfi_endproc
 3908              	.LFE247:
 3910              		.section	.text.HAL_RTCEx_Tamper6EventCallback,"ax",%progbits
 3911              		.align	1
 3912              		.weak	HAL_RTCEx_Tamper6EventCallback
 3913              		.syntax unified
 3914              		.thumb
 3915              		.thumb_func
 3916              		.fpu fpv4-sp-d16
 3918              	HAL_RTCEx_Tamper6EventCallback:
 3919              	.LVL245:
 3920              	.LFB248:
2389:../../Drivers/STM32L5xx_HAL_Driver/Src/stm32l5xx_hal_rtc_ex.c **** 
2390:../../Drivers/STM32L5xx_HAL_Driver/Src/stm32l5xx_hal_rtc_ex.c **** /**
2391:../../Drivers/STM32L5xx_HAL_Driver/Src/stm32l5xx_hal_rtc_ex.c ****   * @brief  Tamper 6 callback.
2392:../../Drivers/STM32L5xx_HAL_Driver/Src/stm32l5xx_hal_rtc_ex.c ****   * @param  hrtc RTC handle
2393:../../Drivers/STM32L5xx_HAL_Driver/Src/stm32l5xx_hal_rtc_ex.c ****   * @retval None
2394:../../Drivers/STM32L5xx_HAL_Driver/Src/stm32l5xx_hal_rtc_ex.c ****   */
2395:../../Drivers/STM32L5xx_HAL_Driver/Src/stm32l5xx_hal_rtc_ex.c **** __weak void HAL_RTCEx_Tamper6EventCallback(RTC_HandleTypeDef *hrtc)
2396:../../Drivers/STM32L5xx_HAL_Driver/Src/stm32l5xx_hal_rtc_ex.c **** {
 3921              		.loc 1 2396 1 is_stmt 1 view -0
 3922              		.cfi_startproc
 3923              		@ args = 0, pretend = 0, frame = 0
 3924              		@ frame_needed = 0, uses_anonymous_args = 0
 3925              		@ link register save eliminated.
2397:../../Drivers/STM32L5xx_HAL_Driver/Src/stm32l5xx_hal_rtc_ex.c ****   /* Prevent unused argument(s) compilation warning */
2398:../../Drivers/STM32L5xx_HAL_Driver/Src/stm32l5xx_hal_rtc_ex.c ****   UNUSED(hrtc);
 3926              		.loc 1 2398 3 view .LVU1253
2399:../../Drivers/STM32L5xx_HAL_Driver/Src/stm32l5xx_hal_rtc_ex.c **** 
2400:../../Drivers/STM32L5xx_HAL_Driver/Src/stm32l5xx_hal_rtc_ex.c ****   /* NOTE : This function should not be modified, when the callback is needed,
2401:../../Drivers/STM32L5xx_HAL_Driver/Src/stm32l5xx_hal_rtc_ex.c ****             the HAL_RTCEx_Tamper6EventCallback could be implemented in the user file
2402:../../Drivers/STM32L5xx_HAL_Driver/Src/stm32l5xx_hal_rtc_ex.c ****    */
2403:../../Drivers/STM32L5xx_HAL_Driver/Src/stm32l5xx_hal_rtc_ex.c **** }
 3927              		.loc 1 2403 1 is_stmt 0 view .LVU1254
 3928 0000 7047     		bx	lr
 3929              		.cfi_endproc
 3930              	.LFE248:
 3932              		.section	.text.HAL_RTCEx_Tamper7EventCallback,"ax",%progbits
 3933              		.align	1
 3934              		.weak	HAL_RTCEx_Tamper7EventCallback
 3935              		.syntax unified
 3936              		.thumb
 3937              		.thumb_func
 3938              		.fpu fpv4-sp-d16
 3940              	HAL_RTCEx_Tamper7EventCallback:
 3941              	.LVL246:
 3942              	.LFB249:
2404:../../Drivers/STM32L5xx_HAL_Driver/Src/stm32l5xx_hal_rtc_ex.c **** 
ARM GAS  C:\Users\carlos\AppData\Local\Temp\ccaMGGVT.s 			page 116


2405:../../Drivers/STM32L5xx_HAL_Driver/Src/stm32l5xx_hal_rtc_ex.c **** /**
2406:../../Drivers/STM32L5xx_HAL_Driver/Src/stm32l5xx_hal_rtc_ex.c ****   * @brief  Tamper 7 callback.
2407:../../Drivers/STM32L5xx_HAL_Driver/Src/stm32l5xx_hal_rtc_ex.c ****   * @param  hrtc RTC handle
2408:../../Drivers/STM32L5xx_HAL_Driver/Src/stm32l5xx_hal_rtc_ex.c ****   * @retval None
2409:../../Drivers/STM32L5xx_HAL_Driver/Src/stm32l5xx_hal_rtc_ex.c ****   */
2410:../../Drivers/STM32L5xx_HAL_Driver/Src/stm32l5xx_hal_rtc_ex.c **** __weak void HAL_RTCEx_Tamper7EventCallback(RTC_HandleTypeDef *hrtc)
2411:../../Drivers/STM32L5xx_HAL_Driver/Src/stm32l5xx_hal_rtc_ex.c **** {
 3943              		.loc 1 2411 1 is_stmt 1 view -0
 3944              		.cfi_startproc
 3945              		@ args = 0, pretend = 0, frame = 0
 3946              		@ frame_needed = 0, uses_anonymous_args = 0
 3947              		@ link register save eliminated.
2412:../../Drivers/STM32L5xx_HAL_Driver/Src/stm32l5xx_hal_rtc_ex.c ****   /* Prevent unused argument(s) compilation warning */
2413:../../Drivers/STM32L5xx_HAL_Driver/Src/stm32l5xx_hal_rtc_ex.c ****   UNUSED(hrtc);
 3948              		.loc 1 2413 3 view .LVU1256
2414:../../Drivers/STM32L5xx_HAL_Driver/Src/stm32l5xx_hal_rtc_ex.c **** 
2415:../../Drivers/STM32L5xx_HAL_Driver/Src/stm32l5xx_hal_rtc_ex.c ****   /* NOTE : This function should not be modified, when the callback is needed,
2416:../../Drivers/STM32L5xx_HAL_Driver/Src/stm32l5xx_hal_rtc_ex.c ****             the HAL_RTCEx_Tamper7EventCallback could be implemented in the user file
2417:../../Drivers/STM32L5xx_HAL_Driver/Src/stm32l5xx_hal_rtc_ex.c ****    */
2418:../../Drivers/STM32L5xx_HAL_Driver/Src/stm32l5xx_hal_rtc_ex.c **** }
 3949              		.loc 1 2418 1 is_stmt 0 view .LVU1257
 3950 0000 7047     		bx	lr
 3951              		.cfi_endproc
 3952              	.LFE249:
 3954              		.section	.text.HAL_RTCEx_Tamper8EventCallback,"ax",%progbits
 3955              		.align	1
 3956              		.weak	HAL_RTCEx_Tamper8EventCallback
 3957              		.syntax unified
 3958              		.thumb
 3959              		.thumb_func
 3960              		.fpu fpv4-sp-d16
 3962              	HAL_RTCEx_Tamper8EventCallback:
 3963              	.LVL247:
 3964              	.LFB250:
2419:../../Drivers/STM32L5xx_HAL_Driver/Src/stm32l5xx_hal_rtc_ex.c **** 
2420:../../Drivers/STM32L5xx_HAL_Driver/Src/stm32l5xx_hal_rtc_ex.c **** /**
2421:../../Drivers/STM32L5xx_HAL_Driver/Src/stm32l5xx_hal_rtc_ex.c ****   * @brief  Tamper 8 callback.
2422:../../Drivers/STM32L5xx_HAL_Driver/Src/stm32l5xx_hal_rtc_ex.c ****   * @param  hrtc RTC handle
2423:../../Drivers/STM32L5xx_HAL_Driver/Src/stm32l5xx_hal_rtc_ex.c ****   * @retval None
2424:../../Drivers/STM32L5xx_HAL_Driver/Src/stm32l5xx_hal_rtc_ex.c ****   */
2425:../../Drivers/STM32L5xx_HAL_Driver/Src/stm32l5xx_hal_rtc_ex.c **** __weak void HAL_RTCEx_Tamper8EventCallback(RTC_HandleTypeDef *hrtc)
2426:../../Drivers/STM32L5xx_HAL_Driver/Src/stm32l5xx_hal_rtc_ex.c **** {
 3965              		.loc 1 2426 1 is_stmt 1 view -0
 3966              		.cfi_startproc
 3967              		@ args = 0, pretend = 0, frame = 0
 3968              		@ frame_needed = 0, uses_anonymous_args = 0
 3969              		@ link register save eliminated.
2427:../../Drivers/STM32L5xx_HAL_Driver/Src/stm32l5xx_hal_rtc_ex.c ****   /* Prevent unused argument(s) compilation warning */
2428:../../Drivers/STM32L5xx_HAL_Driver/Src/stm32l5xx_hal_rtc_ex.c ****   UNUSED(hrtc);
 3970              		.loc 1 2428 3 view .LVU1259
2429:../../Drivers/STM32L5xx_HAL_Driver/Src/stm32l5xx_hal_rtc_ex.c **** 
2430:../../Drivers/STM32L5xx_HAL_Driver/Src/stm32l5xx_hal_rtc_ex.c ****   /* NOTE : This function should not be modified, when the callback is needed,
2431:../../Drivers/STM32L5xx_HAL_Driver/Src/stm32l5xx_hal_rtc_ex.c ****             the HAL_RTCEx_Tamper8EventCallback could be implemented in the user file
2432:../../Drivers/STM32L5xx_HAL_Driver/Src/stm32l5xx_hal_rtc_ex.c ****    */
2433:../../Drivers/STM32L5xx_HAL_Driver/Src/stm32l5xx_hal_rtc_ex.c **** }
 3971              		.loc 1 2433 1 is_stmt 0 view .LVU1260
 3972 0000 7047     		bx	lr
ARM GAS  C:\Users\carlos\AppData\Local\Temp\ccaMGGVT.s 			page 117


 3973              		.cfi_endproc
 3974              	.LFE250:
 3976              		.section	.text.HAL_RTCEx_InternalTamper1EventCallback,"ax",%progbits
 3977              		.align	1
 3978              		.weak	HAL_RTCEx_InternalTamper1EventCallback
 3979              		.syntax unified
 3980              		.thumb
 3981              		.thumb_func
 3982              		.fpu fpv4-sp-d16
 3984              	HAL_RTCEx_InternalTamper1EventCallback:
 3985              	.LVL248:
 3986              	.LFB251:
2434:../../Drivers/STM32L5xx_HAL_Driver/Src/stm32l5xx_hal_rtc_ex.c **** 
2435:../../Drivers/STM32L5xx_HAL_Driver/Src/stm32l5xx_hal_rtc_ex.c **** /**
2436:../../Drivers/STM32L5xx_HAL_Driver/Src/stm32l5xx_hal_rtc_ex.c ****   * @brief  Internal Tamper 1 callback.
2437:../../Drivers/STM32L5xx_HAL_Driver/Src/stm32l5xx_hal_rtc_ex.c ****   * @param  hrtc RTC handle
2438:../../Drivers/STM32L5xx_HAL_Driver/Src/stm32l5xx_hal_rtc_ex.c ****   * @retval None
2439:../../Drivers/STM32L5xx_HAL_Driver/Src/stm32l5xx_hal_rtc_ex.c ****   */
2440:../../Drivers/STM32L5xx_HAL_Driver/Src/stm32l5xx_hal_rtc_ex.c **** __weak void HAL_RTCEx_InternalTamper1EventCallback(RTC_HandleTypeDef *hrtc)
2441:../../Drivers/STM32L5xx_HAL_Driver/Src/stm32l5xx_hal_rtc_ex.c **** {
 3987              		.loc 1 2441 1 is_stmt 1 view -0
 3988              		.cfi_startproc
 3989              		@ args = 0, pretend = 0, frame = 0
 3990              		@ frame_needed = 0, uses_anonymous_args = 0
 3991              		@ link register save eliminated.
2442:../../Drivers/STM32L5xx_HAL_Driver/Src/stm32l5xx_hal_rtc_ex.c ****   /* Prevent unused argument(s) compilation warning */
2443:../../Drivers/STM32L5xx_HAL_Driver/Src/stm32l5xx_hal_rtc_ex.c ****   UNUSED(hrtc);
 3992              		.loc 1 2443 3 view .LVU1262
2444:../../Drivers/STM32L5xx_HAL_Driver/Src/stm32l5xx_hal_rtc_ex.c **** 
2445:../../Drivers/STM32L5xx_HAL_Driver/Src/stm32l5xx_hal_rtc_ex.c ****   /* NOTE : This function should not be modified, when the callback is needed,
2446:../../Drivers/STM32L5xx_HAL_Driver/Src/stm32l5xx_hal_rtc_ex.c ****             the HAL_RTCEx_InternalTamper1EventCallback could be implemented in the user file
2447:../../Drivers/STM32L5xx_HAL_Driver/Src/stm32l5xx_hal_rtc_ex.c ****    */
2448:../../Drivers/STM32L5xx_HAL_Driver/Src/stm32l5xx_hal_rtc_ex.c **** }
 3993              		.loc 1 2448 1 is_stmt 0 view .LVU1263
 3994 0000 7047     		bx	lr
 3995              		.cfi_endproc
 3996              	.LFE251:
 3998              		.section	.text.HAL_RTCEx_InternalTamper2EventCallback,"ax",%progbits
 3999              		.align	1
 4000              		.weak	HAL_RTCEx_InternalTamper2EventCallback
 4001              		.syntax unified
 4002              		.thumb
 4003              		.thumb_func
 4004              		.fpu fpv4-sp-d16
 4006              	HAL_RTCEx_InternalTamper2EventCallback:
 4007              	.LVL249:
 4008              	.LFB252:
2449:../../Drivers/STM32L5xx_HAL_Driver/Src/stm32l5xx_hal_rtc_ex.c **** 
2450:../../Drivers/STM32L5xx_HAL_Driver/Src/stm32l5xx_hal_rtc_ex.c **** /**
2451:../../Drivers/STM32L5xx_HAL_Driver/Src/stm32l5xx_hal_rtc_ex.c ****   * @brief  Internal Tamper 2 callback.
2452:../../Drivers/STM32L5xx_HAL_Driver/Src/stm32l5xx_hal_rtc_ex.c ****   * @param  hrtc RTC handle
2453:../../Drivers/STM32L5xx_HAL_Driver/Src/stm32l5xx_hal_rtc_ex.c ****   * @retval None
2454:../../Drivers/STM32L5xx_HAL_Driver/Src/stm32l5xx_hal_rtc_ex.c ****   */
2455:../../Drivers/STM32L5xx_HAL_Driver/Src/stm32l5xx_hal_rtc_ex.c **** __weak void HAL_RTCEx_InternalTamper2EventCallback(RTC_HandleTypeDef *hrtc)
2456:../../Drivers/STM32L5xx_HAL_Driver/Src/stm32l5xx_hal_rtc_ex.c **** {
 4009              		.loc 1 2456 1 is_stmt 1 view -0
 4010              		.cfi_startproc
ARM GAS  C:\Users\carlos\AppData\Local\Temp\ccaMGGVT.s 			page 118


 4011              		@ args = 0, pretend = 0, frame = 0
 4012              		@ frame_needed = 0, uses_anonymous_args = 0
 4013              		@ link register save eliminated.
2457:../../Drivers/STM32L5xx_HAL_Driver/Src/stm32l5xx_hal_rtc_ex.c ****   /* Prevent unused argument(s) compilation warning */
2458:../../Drivers/STM32L5xx_HAL_Driver/Src/stm32l5xx_hal_rtc_ex.c ****   UNUSED(hrtc);
 4014              		.loc 1 2458 3 view .LVU1265
2459:../../Drivers/STM32L5xx_HAL_Driver/Src/stm32l5xx_hal_rtc_ex.c **** 
2460:../../Drivers/STM32L5xx_HAL_Driver/Src/stm32l5xx_hal_rtc_ex.c ****   /* NOTE : This function should not be modified, when the callback is needed,
2461:../../Drivers/STM32L5xx_HAL_Driver/Src/stm32l5xx_hal_rtc_ex.c ****             the HAL_RTCEx_InternalTamper2EventCallback could be implemented in the user file
2462:../../Drivers/STM32L5xx_HAL_Driver/Src/stm32l5xx_hal_rtc_ex.c ****    */
2463:../../Drivers/STM32L5xx_HAL_Driver/Src/stm32l5xx_hal_rtc_ex.c **** }
 4015              		.loc 1 2463 1 is_stmt 0 view .LVU1266
 4016 0000 7047     		bx	lr
 4017              		.cfi_endproc
 4018              	.LFE252:
 4020              		.section	.text.HAL_RTCEx_InternalTamper3EventCallback,"ax",%progbits
 4021              		.align	1
 4022              		.weak	HAL_RTCEx_InternalTamper3EventCallback
 4023              		.syntax unified
 4024              		.thumb
 4025              		.thumb_func
 4026              		.fpu fpv4-sp-d16
 4028              	HAL_RTCEx_InternalTamper3EventCallback:
 4029              	.LVL250:
 4030              	.LFB253:
2464:../../Drivers/STM32L5xx_HAL_Driver/Src/stm32l5xx_hal_rtc_ex.c **** 
2465:../../Drivers/STM32L5xx_HAL_Driver/Src/stm32l5xx_hal_rtc_ex.c **** /**
2466:../../Drivers/STM32L5xx_HAL_Driver/Src/stm32l5xx_hal_rtc_ex.c ****   * @brief  Internal Tamper 3 callback.
2467:../../Drivers/STM32L5xx_HAL_Driver/Src/stm32l5xx_hal_rtc_ex.c ****   * @param  hrtc RTC handle
2468:../../Drivers/STM32L5xx_HAL_Driver/Src/stm32l5xx_hal_rtc_ex.c ****   * @retval None
2469:../../Drivers/STM32L5xx_HAL_Driver/Src/stm32l5xx_hal_rtc_ex.c ****   */
2470:../../Drivers/STM32L5xx_HAL_Driver/Src/stm32l5xx_hal_rtc_ex.c **** __weak void HAL_RTCEx_InternalTamper3EventCallback(RTC_HandleTypeDef *hrtc)
2471:../../Drivers/STM32L5xx_HAL_Driver/Src/stm32l5xx_hal_rtc_ex.c **** {
 4031              		.loc 1 2471 1 is_stmt 1 view -0
 4032              		.cfi_startproc
 4033              		@ args = 0, pretend = 0, frame = 0
 4034              		@ frame_needed = 0, uses_anonymous_args = 0
 4035              		@ link register save eliminated.
2472:../../Drivers/STM32L5xx_HAL_Driver/Src/stm32l5xx_hal_rtc_ex.c ****   /* Prevent unused argument(s) compilation warning */
2473:../../Drivers/STM32L5xx_HAL_Driver/Src/stm32l5xx_hal_rtc_ex.c ****   UNUSED(hrtc);
 4036              		.loc 1 2473 3 view .LVU1268
2474:../../Drivers/STM32L5xx_HAL_Driver/Src/stm32l5xx_hal_rtc_ex.c **** 
2475:../../Drivers/STM32L5xx_HAL_Driver/Src/stm32l5xx_hal_rtc_ex.c ****   /* NOTE : This function should not be modified, when the callback is needed,
2476:../../Drivers/STM32L5xx_HAL_Driver/Src/stm32l5xx_hal_rtc_ex.c ****             the HAL_RTCEx_InternalTamper3EventCallback could be implemented in the user file
2477:../../Drivers/STM32L5xx_HAL_Driver/Src/stm32l5xx_hal_rtc_ex.c ****    */
2478:../../Drivers/STM32L5xx_HAL_Driver/Src/stm32l5xx_hal_rtc_ex.c **** }
 4037              		.loc 1 2478 1 is_stmt 0 view .LVU1269
 4038 0000 7047     		bx	lr
 4039              		.cfi_endproc
 4040              	.LFE253:
 4042              		.section	.text.HAL_RTCEx_InternalTamper5EventCallback,"ax",%progbits
 4043              		.align	1
 4044              		.weak	HAL_RTCEx_InternalTamper5EventCallback
 4045              		.syntax unified
 4046              		.thumb
 4047              		.thumb_func
 4048              		.fpu fpv4-sp-d16
ARM GAS  C:\Users\carlos\AppData\Local\Temp\ccaMGGVT.s 			page 119


 4050              	HAL_RTCEx_InternalTamper5EventCallback:
 4051              	.LVL251:
 4052              	.LFB254:
2479:../../Drivers/STM32L5xx_HAL_Driver/Src/stm32l5xx_hal_rtc_ex.c **** 
2480:../../Drivers/STM32L5xx_HAL_Driver/Src/stm32l5xx_hal_rtc_ex.c **** 
2481:../../Drivers/STM32L5xx_HAL_Driver/Src/stm32l5xx_hal_rtc_ex.c **** /**
2482:../../Drivers/STM32L5xx_HAL_Driver/Src/stm32l5xx_hal_rtc_ex.c ****   * @brief  Internal Tamper 5 callback.
2483:../../Drivers/STM32L5xx_HAL_Driver/Src/stm32l5xx_hal_rtc_ex.c ****   * @param  hrtc RTC handle
2484:../../Drivers/STM32L5xx_HAL_Driver/Src/stm32l5xx_hal_rtc_ex.c ****   * @retval None
2485:../../Drivers/STM32L5xx_HAL_Driver/Src/stm32l5xx_hal_rtc_ex.c ****   */
2486:../../Drivers/STM32L5xx_HAL_Driver/Src/stm32l5xx_hal_rtc_ex.c **** __weak void HAL_RTCEx_InternalTamper5EventCallback(RTC_HandleTypeDef *hrtc)
2487:../../Drivers/STM32L5xx_HAL_Driver/Src/stm32l5xx_hal_rtc_ex.c **** {
 4053              		.loc 1 2487 1 is_stmt 1 view -0
 4054              		.cfi_startproc
 4055              		@ args = 0, pretend = 0, frame = 0
 4056              		@ frame_needed = 0, uses_anonymous_args = 0
 4057              		@ link register save eliminated.
2488:../../Drivers/STM32L5xx_HAL_Driver/Src/stm32l5xx_hal_rtc_ex.c ****   /* Prevent unused argument(s) compilation warning */
2489:../../Drivers/STM32L5xx_HAL_Driver/Src/stm32l5xx_hal_rtc_ex.c ****   UNUSED(hrtc);
 4058              		.loc 1 2489 3 view .LVU1271
2490:../../Drivers/STM32L5xx_HAL_Driver/Src/stm32l5xx_hal_rtc_ex.c **** 
2491:../../Drivers/STM32L5xx_HAL_Driver/Src/stm32l5xx_hal_rtc_ex.c ****   /* NOTE : This function should not be modified, when the callback is needed,
2492:../../Drivers/STM32L5xx_HAL_Driver/Src/stm32l5xx_hal_rtc_ex.c ****             the HAL_RTCEx_InternalTamper5EventCallback could be implemented in the user file
2493:../../Drivers/STM32L5xx_HAL_Driver/Src/stm32l5xx_hal_rtc_ex.c ****    */
2494:../../Drivers/STM32L5xx_HAL_Driver/Src/stm32l5xx_hal_rtc_ex.c **** }
 4059              		.loc 1 2494 1 is_stmt 0 view .LVU1272
 4060 0000 7047     		bx	lr
 4061              		.cfi_endproc
 4062              	.LFE254:
 4064              		.section	.text.HAL_RTCEx_InternalTamper8EventCallback,"ax",%progbits
 4065              		.align	1
 4066              		.weak	HAL_RTCEx_InternalTamper8EventCallback
 4067              		.syntax unified
 4068              		.thumb
 4069              		.thumb_func
 4070              		.fpu fpv4-sp-d16
 4072              	HAL_RTCEx_InternalTamper8EventCallback:
 4073              	.LVL252:
 4074              	.LFB255:
2495:../../Drivers/STM32L5xx_HAL_Driver/Src/stm32l5xx_hal_rtc_ex.c **** 
2496:../../Drivers/STM32L5xx_HAL_Driver/Src/stm32l5xx_hal_rtc_ex.c **** 
2497:../../Drivers/STM32L5xx_HAL_Driver/Src/stm32l5xx_hal_rtc_ex.c **** /**
2498:../../Drivers/STM32L5xx_HAL_Driver/Src/stm32l5xx_hal_rtc_ex.c ****   * @brief  Internal Tamper 8 callback.
2499:../../Drivers/STM32L5xx_HAL_Driver/Src/stm32l5xx_hal_rtc_ex.c ****   * @param  hrtc RTC handle
2500:../../Drivers/STM32L5xx_HAL_Driver/Src/stm32l5xx_hal_rtc_ex.c ****   * @retval None
2501:../../Drivers/STM32L5xx_HAL_Driver/Src/stm32l5xx_hal_rtc_ex.c ****   */
2502:../../Drivers/STM32L5xx_HAL_Driver/Src/stm32l5xx_hal_rtc_ex.c **** __weak void HAL_RTCEx_InternalTamper8EventCallback(RTC_HandleTypeDef *hrtc)
2503:../../Drivers/STM32L5xx_HAL_Driver/Src/stm32l5xx_hal_rtc_ex.c **** {
 4075              		.loc 1 2503 1 is_stmt 1 view -0
 4076              		.cfi_startproc
 4077              		@ args = 0, pretend = 0, frame = 0
 4078              		@ frame_needed = 0, uses_anonymous_args = 0
 4079              		@ link register save eliminated.
2504:../../Drivers/STM32L5xx_HAL_Driver/Src/stm32l5xx_hal_rtc_ex.c ****   /* Prevent unused argument(s) compilation warning */
2505:../../Drivers/STM32L5xx_HAL_Driver/Src/stm32l5xx_hal_rtc_ex.c ****   UNUSED(hrtc);
 4080              		.loc 1 2505 3 view .LVU1274
2506:../../Drivers/STM32L5xx_HAL_Driver/Src/stm32l5xx_hal_rtc_ex.c **** 
ARM GAS  C:\Users\carlos\AppData\Local\Temp\ccaMGGVT.s 			page 120


2507:../../Drivers/STM32L5xx_HAL_Driver/Src/stm32l5xx_hal_rtc_ex.c ****   /* NOTE : This function should not be modified, when the callback is needed,
2508:../../Drivers/STM32L5xx_HAL_Driver/Src/stm32l5xx_hal_rtc_ex.c ****             the HAL_RTCEx_InternalTamper8EventCallback could be implemented in the user file
2509:../../Drivers/STM32L5xx_HAL_Driver/Src/stm32l5xx_hal_rtc_ex.c ****    */
2510:../../Drivers/STM32L5xx_HAL_Driver/Src/stm32l5xx_hal_rtc_ex.c **** }
 4081              		.loc 1 2510 1 is_stmt 0 view .LVU1275
 4082 0000 7047     		bx	lr
 4083              		.cfi_endproc
 4084              	.LFE255:
 4086              		.section	.text.HAL_RTCEx_TamperIRQHandler,"ax",%progbits
 4087              		.align	1
 4088              		.global	HAL_RTCEx_TamperIRQHandler
 4089              		.syntax unified
 4090              		.thumb
 4091              		.thumb_func
 4092              		.fpu fpv4-sp-d16
 4094              	HAL_RTCEx_TamperIRQHandler:
 4095              	.LVL253:
 4096              	.LFB242:
1976:../../Drivers/STM32L5xx_HAL_Driver/Src/stm32l5xx_hal_rtc_ex.c ****   uint32_t tmp;
 4097              		.loc 1 1976 1 is_stmt 1 view -0
 4098              		.cfi_startproc
 4099              		@ args = 0, pretend = 0, frame = 0
 4100              		@ frame_needed = 0, uses_anonymous_args = 0
1976:../../Drivers/STM32L5xx_HAL_Driver/Src/stm32l5xx_hal_rtc_ex.c ****   uint32_t tmp;
 4101              		.loc 1 1976 1 is_stmt 0 view .LVU1277
 4102 0000 38B5     		push	{r3, r4, r5, lr}
 4103              	.LCFI20:
 4104              		.cfi_def_cfa_offset 16
 4105              		.cfi_offset 3, -16
 4106              		.cfi_offset 4, -12
 4107              		.cfi_offset 5, -8
 4108              		.cfi_offset 14, -4
 4109 0002 0546     		mov	r5, r0
1977:../../Drivers/STM32L5xx_HAL_Driver/Src/stm32l5xx_hal_rtc_ex.c **** 
 4110              		.loc 1 1977 3 is_stmt 1 view .LVU1278
1980:../../Drivers/STM32L5xx_HAL_Driver/Src/stm32l5xx_hal_rtc_ex.c **** 
 4111              		.loc 1 1980 3 view .LVU1279
1980:../../Drivers/STM32L5xx_HAL_Driver/Src/stm32l5xx_hal_rtc_ex.c **** 
 4112              		.loc 1 1980 7 is_stmt 0 view .LVU1280
 4113 0004 2E4B     		ldr	r3, .L320
 4114 0006 9C6B     		ldr	r4, [r3, #56]
 4115              	.LVL254:
1983:../../Drivers/STM32L5xx_HAL_Driver/Src/stm32l5xx_hal_rtc_ex.c **** 
 4116              		.loc 1 1983 3 is_stmt 1 view .LVU1281
 4117 0008 DC63     		str	r4, [r3, #60]
1986:../../Drivers/STM32L5xx_HAL_Driver/Src/stm32l5xx_hal_rtc_ex.c ****   {
 4118              		.loc 1 1986 3 view .LVU1282
1986:../../Drivers/STM32L5xx_HAL_Driver/Src/stm32l5xx_hal_rtc_ex.c ****   {
 4119              		.loc 1 1986 6 is_stmt 0 view .LVU1283
 4120 000a 14F0010F 		tst	r4, #1
 4121 000e 24D1     		bne	.L307
 4122              	.LVL255:
 4123              	.L293:
1998:../../Drivers/STM32L5xx_HAL_Driver/Src/stm32l5xx_hal_rtc_ex.c ****   {
 4124              		.loc 1 1998 3 is_stmt 1 view .LVU1284
1998:../../Drivers/STM32L5xx_HAL_Driver/Src/stm32l5xx_hal_rtc_ex.c ****   {
 4125              		.loc 1 1998 6 is_stmt 0 view .LVU1285
ARM GAS  C:\Users\carlos\AppData\Local\Temp\ccaMGGVT.s 			page 121


 4126 0010 14F0020F 		tst	r4, #2
 4127 0014 24D1     		bne	.L308
 4128              	.L294:
2010:../../Drivers/STM32L5xx_HAL_Driver/Src/stm32l5xx_hal_rtc_ex.c ****   {
 4129              		.loc 1 2010 3 is_stmt 1 view .LVU1286
2010:../../Drivers/STM32L5xx_HAL_Driver/Src/stm32l5xx_hal_rtc_ex.c ****   {
 4130              		.loc 1 2010 6 is_stmt 0 view .LVU1287
 4131 0016 14F0040F 		tst	r4, #4
 4132 001a 25D1     		bne	.L309
 4133              	.L295:
2022:../../Drivers/STM32L5xx_HAL_Driver/Src/stm32l5xx_hal_rtc_ex.c ****   {
 4134              		.loc 1 2022 3 is_stmt 1 view .LVU1288
2022:../../Drivers/STM32L5xx_HAL_Driver/Src/stm32l5xx_hal_rtc_ex.c ****   {
 4135              		.loc 1 2022 6 is_stmt 0 view .LVU1289
 4136 001c 14F0080F 		tst	r4, #8
 4137 0020 26D1     		bne	.L310
 4138              	.L296:
2034:../../Drivers/STM32L5xx_HAL_Driver/Src/stm32l5xx_hal_rtc_ex.c ****   {
 4139              		.loc 1 2034 3 is_stmt 1 view .LVU1290
2034:../../Drivers/STM32L5xx_HAL_Driver/Src/stm32l5xx_hal_rtc_ex.c ****   {
 4140              		.loc 1 2034 6 is_stmt 0 view .LVU1291
 4141 0022 14F0100F 		tst	r4, #16
 4142 0026 27D1     		bne	.L311
 4143              	.L297:
2046:../../Drivers/STM32L5xx_HAL_Driver/Src/stm32l5xx_hal_rtc_ex.c ****   {
 4144              		.loc 1 2046 3 is_stmt 1 view .LVU1292
2046:../../Drivers/STM32L5xx_HAL_Driver/Src/stm32l5xx_hal_rtc_ex.c ****   {
 4145              		.loc 1 2046 6 is_stmt 0 view .LVU1293
 4146 0028 14F0200F 		tst	r4, #32
 4147 002c 28D1     		bne	.L312
 4148              	.L298:
2058:../../Drivers/STM32L5xx_HAL_Driver/Src/stm32l5xx_hal_rtc_ex.c ****   {
 4149              		.loc 1 2058 3 is_stmt 1 view .LVU1294
2058:../../Drivers/STM32L5xx_HAL_Driver/Src/stm32l5xx_hal_rtc_ex.c ****   {
 4150              		.loc 1 2058 6 is_stmt 0 view .LVU1295
 4151 002e 14F0400F 		tst	r4, #64
 4152 0032 29D1     		bne	.L313
 4153              	.L299:
2070:../../Drivers/STM32L5xx_HAL_Driver/Src/stm32l5xx_hal_rtc_ex.c ****   {
 4154              		.loc 1 2070 3 is_stmt 1 view .LVU1296
2070:../../Drivers/STM32L5xx_HAL_Driver/Src/stm32l5xx_hal_rtc_ex.c ****   {
 4155              		.loc 1 2070 6 is_stmt 0 view .LVU1297
 4156 0034 14F0800F 		tst	r4, #128
 4157 0038 2AD1     		bne	.L314
 4158              	.L300:
2082:../../Drivers/STM32L5xx_HAL_Driver/Src/stm32l5xx_hal_rtc_ex.c ****   {
 4159              		.loc 1 2082 3 is_stmt 1 view .LVU1298
2082:../../Drivers/STM32L5xx_HAL_Driver/Src/stm32l5xx_hal_rtc_ex.c ****   {
 4160              		.loc 1 2082 6 is_stmt 0 view .LVU1299
 4161 003a 14F4803F 		tst	r4, #65536
 4162 003e 2BD1     		bne	.L315
 4163              	.L301:
2094:../../Drivers/STM32L5xx_HAL_Driver/Src/stm32l5xx_hal_rtc_ex.c ****   {
 4164              		.loc 1 2094 3 is_stmt 1 view .LVU1300
2094:../../Drivers/STM32L5xx_HAL_Driver/Src/stm32l5xx_hal_rtc_ex.c ****   {
 4165              		.loc 1 2094 6 is_stmt 0 view .LVU1301
 4166 0040 14F4003F 		tst	r4, #131072
ARM GAS  C:\Users\carlos\AppData\Local\Temp\ccaMGGVT.s 			page 122


 4167 0044 2CD1     		bne	.L316
 4168              	.L302:
2106:../../Drivers/STM32L5xx_HAL_Driver/Src/stm32l5xx_hal_rtc_ex.c ****   {
 4169              		.loc 1 2106 3 is_stmt 1 view .LVU1302
2106:../../Drivers/STM32L5xx_HAL_Driver/Src/stm32l5xx_hal_rtc_ex.c ****   {
 4170              		.loc 1 2106 6 is_stmt 0 view .LVU1303
 4171 0046 14F4802F 		tst	r4, #262144
 4172 004a 2DD1     		bne	.L317
 4173              	.L303:
2118:../../Drivers/STM32L5xx_HAL_Driver/Src/stm32l5xx_hal_rtc_ex.c ****   {
 4174              		.loc 1 2118 3 is_stmt 1 view .LVU1304
2118:../../Drivers/STM32L5xx_HAL_Driver/Src/stm32l5xx_hal_rtc_ex.c ****   {
 4175              		.loc 1 2118 6 is_stmt 0 view .LVU1305
 4176 004c 14F4801F 		tst	r4, #1048576
 4177 0050 2ED1     		bne	.L318
 4178              	.L304:
2130:../../Drivers/STM32L5xx_HAL_Driver/Src/stm32l5xx_hal_rtc_ex.c ****   {
 4179              		.loc 1 2130 3 is_stmt 1 view .LVU1306
2130:../../Drivers/STM32L5xx_HAL_Driver/Src/stm32l5xx_hal_rtc_ex.c ****   {
 4180              		.loc 1 2130 6 is_stmt 0 view .LVU1307
 4181 0052 14F4000F 		tst	r4, #8388608
 4182 0056 2FD1     		bne	.L319
 4183              	.L292:
2140:../../Drivers/STM32L5xx_HAL_Driver/Src/stm32l5xx_hal_rtc_ex.c **** 
 4184              		.loc 1 2140 1 view .LVU1308
 4185 0058 38BD     		pop	{r3, r4, r5, pc}
 4186              	.LVL256:
 4187              	.L307:
1993:../../Drivers/STM32L5xx_HAL_Driver/Src/stm32l5xx_hal_rtc_ex.c **** #endif
 4188              		.loc 1 1993 5 is_stmt 1 view .LVU1309
 4189 005a FFF7FEFF 		bl	HAL_RTCEx_Tamper1EventCallback
 4190              	.LVL257:
1993:../../Drivers/STM32L5xx_HAL_Driver/Src/stm32l5xx_hal_rtc_ex.c **** #endif
 4191              		.loc 1 1993 5 is_stmt 0 view .LVU1310
 4192 005e D7E7     		b	.L293
 4193              	.L308:
2005:../../Drivers/STM32L5xx_HAL_Driver/Src/stm32l5xx_hal_rtc_ex.c **** #endif
 4194              		.loc 1 2005 5 is_stmt 1 view .LVU1311
 4195 0060 2846     		mov	r0, r5
 4196 0062 FFF7FEFF 		bl	HAL_RTCEx_Tamper2EventCallback
 4197              	.LVL258:
 4198 0066 D6E7     		b	.L294
 4199              	.L309:
2017:../../Drivers/STM32L5xx_HAL_Driver/Src/stm32l5xx_hal_rtc_ex.c **** #endif
 4200              		.loc 1 2017 5 view .LVU1312
 4201 0068 2846     		mov	r0, r5
 4202 006a FFF7FEFF 		bl	HAL_RTCEx_Tamper3EventCallback
 4203              	.LVL259:
 4204 006e D5E7     		b	.L295
 4205              	.L310:
2029:../../Drivers/STM32L5xx_HAL_Driver/Src/stm32l5xx_hal_rtc_ex.c **** #endif
 4206              		.loc 1 2029 5 view .LVU1313
 4207 0070 2846     		mov	r0, r5
 4208 0072 FFF7FEFF 		bl	HAL_RTCEx_Tamper4EventCallback
 4209              	.LVL260:
 4210 0076 D4E7     		b	.L296
 4211              	.L311:
ARM GAS  C:\Users\carlos\AppData\Local\Temp\ccaMGGVT.s 			page 123


2041:../../Drivers/STM32L5xx_HAL_Driver/Src/stm32l5xx_hal_rtc_ex.c **** #endif
 4212              		.loc 1 2041 5 view .LVU1314
 4213 0078 2846     		mov	r0, r5
 4214 007a FFF7FEFF 		bl	HAL_RTCEx_Tamper5EventCallback
 4215              	.LVL261:
 4216 007e D3E7     		b	.L297
 4217              	.L312:
2053:../../Drivers/STM32L5xx_HAL_Driver/Src/stm32l5xx_hal_rtc_ex.c **** #endif
 4218              		.loc 1 2053 5 view .LVU1315
 4219 0080 2846     		mov	r0, r5
 4220 0082 FFF7FEFF 		bl	HAL_RTCEx_Tamper6EventCallback
 4221              	.LVL262:
 4222 0086 D2E7     		b	.L298
 4223              	.L313:
2065:../../Drivers/STM32L5xx_HAL_Driver/Src/stm32l5xx_hal_rtc_ex.c **** #endif
 4224              		.loc 1 2065 5 view .LVU1316
 4225 0088 2846     		mov	r0, r5
 4226 008a FFF7FEFF 		bl	HAL_RTCEx_Tamper7EventCallback
 4227              	.LVL263:
 4228 008e D1E7     		b	.L299
 4229              	.L314:
2077:../../Drivers/STM32L5xx_HAL_Driver/Src/stm32l5xx_hal_rtc_ex.c **** #endif
 4230              		.loc 1 2077 5 view .LVU1317
 4231 0090 2846     		mov	r0, r5
 4232 0092 FFF7FEFF 		bl	HAL_RTCEx_Tamper8EventCallback
 4233              	.LVL264:
 4234 0096 D0E7     		b	.L300
 4235              	.L315:
2089:../../Drivers/STM32L5xx_HAL_Driver/Src/stm32l5xx_hal_rtc_ex.c **** #endif
 4236              		.loc 1 2089 5 view .LVU1318
 4237 0098 2846     		mov	r0, r5
 4238 009a FFF7FEFF 		bl	HAL_RTCEx_InternalTamper1EventCallback
 4239              	.LVL265:
 4240 009e CFE7     		b	.L301
 4241              	.L316:
2101:../../Drivers/STM32L5xx_HAL_Driver/Src/stm32l5xx_hal_rtc_ex.c **** #endif
 4242              		.loc 1 2101 5 view .LVU1319
 4243 00a0 2846     		mov	r0, r5
 4244 00a2 FFF7FEFF 		bl	HAL_RTCEx_InternalTamper2EventCallback
 4245              	.LVL266:
 4246 00a6 CEE7     		b	.L302
 4247              	.L317:
2113:../../Drivers/STM32L5xx_HAL_Driver/Src/stm32l5xx_hal_rtc_ex.c **** #endif
 4248              		.loc 1 2113 5 view .LVU1320
 4249 00a8 2846     		mov	r0, r5
 4250 00aa FFF7FEFF 		bl	HAL_RTCEx_InternalTamper3EventCallback
 4251              	.LVL267:
 4252 00ae CDE7     		b	.L303
 4253              	.L318:
2125:../../Drivers/STM32L5xx_HAL_Driver/Src/stm32l5xx_hal_rtc_ex.c **** #endif
 4254              		.loc 1 2125 5 view .LVU1321
 4255 00b0 2846     		mov	r0, r5
 4256 00b2 FFF7FEFF 		bl	HAL_RTCEx_InternalTamper5EventCallback
 4257              	.LVL268:
 4258 00b6 CCE7     		b	.L304
 4259              	.L319:
2137:../../Drivers/STM32L5xx_HAL_Driver/Src/stm32l5xx_hal_rtc_ex.c **** #endif
ARM GAS  C:\Users\carlos\AppData\Local\Temp\ccaMGGVT.s 			page 124


 4260              		.loc 1 2137 5 view .LVU1322
 4261 00b8 2846     		mov	r0, r5
 4262 00ba FFF7FEFF 		bl	HAL_RTCEx_InternalTamper8EventCallback
 4263              	.LVL269:
2140:../../Drivers/STM32L5xx_HAL_Driver/Src/stm32l5xx_hal_rtc_ex.c **** 
 4264              		.loc 1 2140 1 is_stmt 0 view .LVU1323
 4265 00be CBE7     		b	.L292
 4266              	.L321:
 4267              		.align	2
 4268              	.L320:
 4269 00c0 00340050 		.word	1342190592
 4270              		.cfi_endproc
 4271              	.LFE242:
 4273              		.section	.text.HAL_RTCEx_EnableTemperatureMonitoring,"ax",%progbits
 4274              		.align	1
 4275              		.global	HAL_RTCEx_EnableTemperatureMonitoring
 4276              		.syntax unified
 4277              		.thumb
 4278              		.thumb_func
 4279              		.fpu fpv4-sp-d16
 4281              	HAL_RTCEx_EnableTemperatureMonitoring:
 4282              	.LVL270:
 4283              	.LFB256:
2511:../../Drivers/STM32L5xx_HAL_Driver/Src/stm32l5xx_hal_rtc_ex.c **** 
2512:../../Drivers/STM32L5xx_HAL_Driver/Src/stm32l5xx_hal_rtc_ex.c **** /**
2513:../../Drivers/STM32L5xx_HAL_Driver/Src/stm32l5xx_hal_rtc_ex.c ****   * @brief  Enable Temperature Monitoring.
2514:../../Drivers/STM32L5xx_HAL_Driver/Src/stm32l5xx_hal_rtc_ex.c ****   * @param  hrtc RTC handle
2515:../../Drivers/STM32L5xx_HAL_Driver/Src/stm32l5xx_hal_rtc_ex.c ****   * @retval None
2516:../../Drivers/STM32L5xx_HAL_Driver/Src/stm32l5xx_hal_rtc_ex.c ****   */
2517:../../Drivers/STM32L5xx_HAL_Driver/Src/stm32l5xx_hal_rtc_ex.c **** void HAL_RTCEx_EnableTemperatureMonitoring(RTC_HandleTypeDef *hrtc)
2518:../../Drivers/STM32L5xx_HAL_Driver/Src/stm32l5xx_hal_rtc_ex.c **** {
 4284              		.loc 1 2518 1 is_stmt 1 view -0
 4285              		.cfi_startproc
 4286              		@ args = 0, pretend = 0, frame = 0
 4287              		@ frame_needed = 0, uses_anonymous_args = 0
 4288              		@ link register save eliminated.
2519:../../Drivers/STM32L5xx_HAL_Driver/Src/stm32l5xx_hal_rtc_ex.c ****   /* Prevent unused argument(s) compilation warning */
2520:../../Drivers/STM32L5xx_HAL_Driver/Src/stm32l5xx_hal_rtc_ex.c ****   UNUSED(hrtc);
 4289              		.loc 1 2520 3 view .LVU1325
2521:../../Drivers/STM32L5xx_HAL_Driver/Src/stm32l5xx_hal_rtc_ex.c ****   SET_BIT(TAMP->CFGR, TAMP_CFGR_TMONEN);
 4290              		.loc 1 2521 3 view .LVU1326
 4291 0000 024A     		ldr	r2, .L323
 4292 0002 136D     		ldr	r3, [r2, #80]
 4293 0004 43F00203 		orr	r3, r3, #2
 4294 0008 1365     		str	r3, [r2, #80]
2522:../../Drivers/STM32L5xx_HAL_Driver/Src/stm32l5xx_hal_rtc_ex.c **** }
 4295              		.loc 1 2522 1 is_stmt 0 view .LVU1327
 4296 000a 7047     		bx	lr
 4297              	.L324:
 4298              		.align	2
 4299              	.L323:
 4300 000c 00340050 		.word	1342190592
 4301              		.cfi_endproc
 4302              	.LFE256:
 4304              		.section	.text.HAL_RTCEx_DisableTemperatureMonitoring,"ax",%progbits
 4305              		.align	1
 4306              		.global	HAL_RTCEx_DisableTemperatureMonitoring
ARM GAS  C:\Users\carlos\AppData\Local\Temp\ccaMGGVT.s 			page 125


 4307              		.syntax unified
 4308              		.thumb
 4309              		.thumb_func
 4310              		.fpu fpv4-sp-d16
 4312              	HAL_RTCEx_DisableTemperatureMonitoring:
 4313              	.LVL271:
 4314              	.LFB257:
2523:../../Drivers/STM32L5xx_HAL_Driver/Src/stm32l5xx_hal_rtc_ex.c **** 
2524:../../Drivers/STM32L5xx_HAL_Driver/Src/stm32l5xx_hal_rtc_ex.c **** /**
2525:../../Drivers/STM32L5xx_HAL_Driver/Src/stm32l5xx_hal_rtc_ex.c ****   * @brief  Disable Temperature Monitoring.
2526:../../Drivers/STM32L5xx_HAL_Driver/Src/stm32l5xx_hal_rtc_ex.c ****   * @param  hrtc RTC handle
2527:../../Drivers/STM32L5xx_HAL_Driver/Src/stm32l5xx_hal_rtc_ex.c ****   * @retval None
2528:../../Drivers/STM32L5xx_HAL_Driver/Src/stm32l5xx_hal_rtc_ex.c ****   */
2529:../../Drivers/STM32L5xx_HAL_Driver/Src/stm32l5xx_hal_rtc_ex.c **** void HAL_RTCEx_DisableTemperatureMonitoring(RTC_HandleTypeDef *hrtc)
2530:../../Drivers/STM32L5xx_HAL_Driver/Src/stm32l5xx_hal_rtc_ex.c **** {
 4315              		.loc 1 2530 1 is_stmt 1 view -0
 4316              		.cfi_startproc
 4317              		@ args = 0, pretend = 0, frame = 0
 4318              		@ frame_needed = 0, uses_anonymous_args = 0
 4319              		@ link register save eliminated.
2531:../../Drivers/STM32L5xx_HAL_Driver/Src/stm32l5xx_hal_rtc_ex.c ****   /* Prevent unused argument(s) compilation warning */
2532:../../Drivers/STM32L5xx_HAL_Driver/Src/stm32l5xx_hal_rtc_ex.c ****   UNUSED(hrtc);
 4320              		.loc 1 2532 3 view .LVU1329
2533:../../Drivers/STM32L5xx_HAL_Driver/Src/stm32l5xx_hal_rtc_ex.c ****   CLEAR_BIT(TAMP->CFGR, TAMP_CFGR_TMONEN);
 4321              		.loc 1 2533 3 view .LVU1330
 4322 0000 024A     		ldr	r2, .L326
 4323 0002 136D     		ldr	r3, [r2, #80]
 4324 0004 23F00203 		bic	r3, r3, #2
 4325 0008 1365     		str	r3, [r2, #80]
2534:../../Drivers/STM32L5xx_HAL_Driver/Src/stm32l5xx_hal_rtc_ex.c **** }
 4326              		.loc 1 2534 1 is_stmt 0 view .LVU1331
 4327 000a 7047     		bx	lr
 4328              	.L327:
 4329              		.align	2
 4330              	.L326:
 4331 000c 00340050 		.word	1342190592
 4332              		.cfi_endproc
 4333              	.LFE257:
 4335              		.section	.text.HAL_RTCEx_EnableVoltageMonitoring,"ax",%progbits
 4336              		.align	1
 4337              		.global	HAL_RTCEx_EnableVoltageMonitoring
 4338              		.syntax unified
 4339              		.thumb
 4340              		.thumb_func
 4341              		.fpu fpv4-sp-d16
 4343              	HAL_RTCEx_EnableVoltageMonitoring:
 4344              	.LVL272:
 4345              	.LFB258:
2535:../../Drivers/STM32L5xx_HAL_Driver/Src/stm32l5xx_hal_rtc_ex.c **** 
2536:../../Drivers/STM32L5xx_HAL_Driver/Src/stm32l5xx_hal_rtc_ex.c **** /**
2537:../../Drivers/STM32L5xx_HAL_Driver/Src/stm32l5xx_hal_rtc_ex.c ****   * @brief  Enable Voltage Monitoring.
2538:../../Drivers/STM32L5xx_HAL_Driver/Src/stm32l5xx_hal_rtc_ex.c ****   * @param  hrtc RTC handle
2539:../../Drivers/STM32L5xx_HAL_Driver/Src/stm32l5xx_hal_rtc_ex.c ****   * @retval None
2540:../../Drivers/STM32L5xx_HAL_Driver/Src/stm32l5xx_hal_rtc_ex.c ****   */
2541:../../Drivers/STM32L5xx_HAL_Driver/Src/stm32l5xx_hal_rtc_ex.c **** void HAL_RTCEx_EnableVoltageMonitoring(RTC_HandleTypeDef *hrtc)
2542:../../Drivers/STM32L5xx_HAL_Driver/Src/stm32l5xx_hal_rtc_ex.c **** {
 4346              		.loc 1 2542 1 is_stmt 1 view -0
ARM GAS  C:\Users\carlos\AppData\Local\Temp\ccaMGGVT.s 			page 126


 4347              		.cfi_startproc
 4348              		@ args = 0, pretend = 0, frame = 0
 4349              		@ frame_needed = 0, uses_anonymous_args = 0
 4350              		@ link register save eliminated.
2543:../../Drivers/STM32L5xx_HAL_Driver/Src/stm32l5xx_hal_rtc_ex.c ****   /* Prevent unused argument(s) compilation warning */
2544:../../Drivers/STM32L5xx_HAL_Driver/Src/stm32l5xx_hal_rtc_ex.c ****   UNUSED(hrtc);
 4351              		.loc 1 2544 3 view .LVU1333
2545:../../Drivers/STM32L5xx_HAL_Driver/Src/stm32l5xx_hal_rtc_ex.c ****   SET_BIT(TAMP->CFGR, TAMP_CFGR_VMONEN);
 4352              		.loc 1 2545 3 view .LVU1334
 4353 0000 024A     		ldr	r2, .L329
 4354 0002 136D     		ldr	r3, [r2, #80]
 4355 0004 43F00403 		orr	r3, r3, #4
 4356 0008 1365     		str	r3, [r2, #80]
2546:../../Drivers/STM32L5xx_HAL_Driver/Src/stm32l5xx_hal_rtc_ex.c **** }
 4357              		.loc 1 2546 1 is_stmt 0 view .LVU1335
 4358 000a 7047     		bx	lr
 4359              	.L330:
 4360              		.align	2
 4361              	.L329:
 4362 000c 00340050 		.word	1342190592
 4363              		.cfi_endproc
 4364              	.LFE258:
 4366              		.section	.text.HAL_RTCEx_DisableVoltageMonitoring,"ax",%progbits
 4367              		.align	1
 4368              		.global	HAL_RTCEx_DisableVoltageMonitoring
 4369              		.syntax unified
 4370              		.thumb
 4371              		.thumb_func
 4372              		.fpu fpv4-sp-d16
 4374              	HAL_RTCEx_DisableVoltageMonitoring:
 4375              	.LVL273:
 4376              	.LFB259:
2547:../../Drivers/STM32L5xx_HAL_Driver/Src/stm32l5xx_hal_rtc_ex.c **** 
2548:../../Drivers/STM32L5xx_HAL_Driver/Src/stm32l5xx_hal_rtc_ex.c **** /**
2549:../../Drivers/STM32L5xx_HAL_Driver/Src/stm32l5xx_hal_rtc_ex.c ****   * @brief  Disable Voltage Monitoring.
2550:../../Drivers/STM32L5xx_HAL_Driver/Src/stm32l5xx_hal_rtc_ex.c ****   * @param  hrtc RTC handle
2551:../../Drivers/STM32L5xx_HAL_Driver/Src/stm32l5xx_hal_rtc_ex.c ****   * @retval None
2552:../../Drivers/STM32L5xx_HAL_Driver/Src/stm32l5xx_hal_rtc_ex.c ****   */
2553:../../Drivers/STM32L5xx_HAL_Driver/Src/stm32l5xx_hal_rtc_ex.c **** void HAL_RTCEx_DisableVoltageMonitoring(RTC_HandleTypeDef *hrtc)
2554:../../Drivers/STM32L5xx_HAL_Driver/Src/stm32l5xx_hal_rtc_ex.c **** {
 4377              		.loc 1 2554 1 is_stmt 1 view -0
 4378              		.cfi_startproc
 4379              		@ args = 0, pretend = 0, frame = 0
 4380              		@ frame_needed = 0, uses_anonymous_args = 0
 4381              		@ link register save eliminated.
2555:../../Drivers/STM32L5xx_HAL_Driver/Src/stm32l5xx_hal_rtc_ex.c ****   /* Prevent unused argument(s) compilation warning */
2556:../../Drivers/STM32L5xx_HAL_Driver/Src/stm32l5xx_hal_rtc_ex.c ****   UNUSED(hrtc);
 4382              		.loc 1 2556 3 view .LVU1337
2557:../../Drivers/STM32L5xx_HAL_Driver/Src/stm32l5xx_hal_rtc_ex.c ****   CLEAR_BIT(TAMP->CFGR, TAMP_CFGR_VMONEN);
 4383              		.loc 1 2557 3 view .LVU1338
 4384 0000 024A     		ldr	r2, .L332
 4385 0002 136D     		ldr	r3, [r2, #80]
 4386 0004 23F00403 		bic	r3, r3, #4
 4387 0008 1365     		str	r3, [r2, #80]
2558:../../Drivers/STM32L5xx_HAL_Driver/Src/stm32l5xx_hal_rtc_ex.c **** }
 4388              		.loc 1 2558 1 is_stmt 0 view .LVU1339
 4389 000a 7047     		bx	lr
ARM GAS  C:\Users\carlos\AppData\Local\Temp\ccaMGGVT.s 			page 127


 4390              	.L333:
 4391              		.align	2
 4392              	.L332:
 4393 000c 00340050 		.word	1342190592
 4394              		.cfi_endproc
 4395              	.LFE259:
 4397              		.section	.text.HAL_RTCEx_EnableWUTMonitoring,"ax",%progbits
 4398              		.align	1
 4399              		.global	HAL_RTCEx_EnableWUTMonitoring
 4400              		.syntax unified
 4401              		.thumb
 4402              		.thumb_func
 4403              		.fpu fpv4-sp-d16
 4405              	HAL_RTCEx_EnableWUTMonitoring:
 4406              	.LVL274:
 4407              	.LFB260:
2559:../../Drivers/STM32L5xx_HAL_Driver/Src/stm32l5xx_hal_rtc_ex.c **** 
2560:../../Drivers/STM32L5xx_HAL_Driver/Src/stm32l5xx_hal_rtc_ex.c **** /**
2561:../../Drivers/STM32L5xx_HAL_Driver/Src/stm32l5xx_hal_rtc_ex.c ****   * @brief  Enable WUT Monitoring.
2562:../../Drivers/STM32L5xx_HAL_Driver/Src/stm32l5xx_hal_rtc_ex.c ****   * @note   Voltage and temperature monitor periodic enable by RTC WakeUp Timer (WUT).
2563:../../Drivers/STM32L5xx_HAL_Driver/Src/stm32l5xx_hal_rtc_ex.c ****   * @param  hrtc RTC handle
2564:../../Drivers/STM32L5xx_HAL_Driver/Src/stm32l5xx_hal_rtc_ex.c ****   * @retval None
2565:../../Drivers/STM32L5xx_HAL_Driver/Src/stm32l5xx_hal_rtc_ex.c ****   */
2566:../../Drivers/STM32L5xx_HAL_Driver/Src/stm32l5xx_hal_rtc_ex.c **** void HAL_RTCEx_EnableWUTMonitoring(RTC_HandleTypeDef *hrtc)
2567:../../Drivers/STM32L5xx_HAL_Driver/Src/stm32l5xx_hal_rtc_ex.c **** {
 4408              		.loc 1 2567 1 is_stmt 1 view -0
 4409              		.cfi_startproc
 4410              		@ args = 0, pretend = 0, frame = 0
 4411              		@ frame_needed = 0, uses_anonymous_args = 0
 4412              		@ link register save eliminated.
2568:../../Drivers/STM32L5xx_HAL_Driver/Src/stm32l5xx_hal_rtc_ex.c ****   /* Prevent unused argument(s) compilation warning */
2569:../../Drivers/STM32L5xx_HAL_Driver/Src/stm32l5xx_hal_rtc_ex.c ****   UNUSED(hrtc);
 4413              		.loc 1 2569 3 view .LVU1341
2570:../../Drivers/STM32L5xx_HAL_Driver/Src/stm32l5xx_hal_rtc_ex.c ****   SET_BIT(TAMP->CFGR, TAMP_CFGR_WUTMONEN);
 4414              		.loc 1 2570 3 view .LVU1342
 4415 0000 024A     		ldr	r2, .L335
 4416 0002 136D     		ldr	r3, [r2, #80]
 4417 0004 43F00803 		orr	r3, r3, #8
 4418 0008 1365     		str	r3, [r2, #80]
2571:../../Drivers/STM32L5xx_HAL_Driver/Src/stm32l5xx_hal_rtc_ex.c **** }
 4419              		.loc 1 2571 1 is_stmt 0 view .LVU1343
 4420 000a 7047     		bx	lr
 4421              	.L336:
 4422              		.align	2
 4423              	.L335:
 4424 000c 00340050 		.word	1342190592
 4425              		.cfi_endproc
 4426              	.LFE260:
 4428              		.section	.text.HAL_RTCEx_DisableWUTMonitoring,"ax",%progbits
 4429              		.align	1
 4430              		.global	HAL_RTCEx_DisableWUTMonitoring
 4431              		.syntax unified
 4432              		.thumb
 4433              		.thumb_func
 4434              		.fpu fpv4-sp-d16
 4436              	HAL_RTCEx_DisableWUTMonitoring:
 4437              	.LVL275:
ARM GAS  C:\Users\carlos\AppData\Local\Temp\ccaMGGVT.s 			page 128


 4438              	.LFB261:
2572:../../Drivers/STM32L5xx_HAL_Driver/Src/stm32l5xx_hal_rtc_ex.c **** 
2573:../../Drivers/STM32L5xx_HAL_Driver/Src/stm32l5xx_hal_rtc_ex.c **** /**
2574:../../Drivers/STM32L5xx_HAL_Driver/Src/stm32l5xx_hal_rtc_ex.c ****   * @brief  Disable WUT Monitoring.
2575:../../Drivers/STM32L5xx_HAL_Driver/Src/stm32l5xx_hal_rtc_ex.c ****   * @note   Voltage and temperature monitor periodic Disable by RTC WakeUp Timer (WUT).
2576:../../Drivers/STM32L5xx_HAL_Driver/Src/stm32l5xx_hal_rtc_ex.c ****   * @param  hrtc RTC handle
2577:../../Drivers/STM32L5xx_HAL_Driver/Src/stm32l5xx_hal_rtc_ex.c ****   * @retval None
2578:../../Drivers/STM32L5xx_HAL_Driver/Src/stm32l5xx_hal_rtc_ex.c ****   */
2579:../../Drivers/STM32L5xx_HAL_Driver/Src/stm32l5xx_hal_rtc_ex.c **** void HAL_RTCEx_DisableWUTMonitoring(RTC_HandleTypeDef *hrtc)
2580:../../Drivers/STM32L5xx_HAL_Driver/Src/stm32l5xx_hal_rtc_ex.c **** {
 4439              		.loc 1 2580 1 is_stmt 1 view -0
 4440              		.cfi_startproc
 4441              		@ args = 0, pretend = 0, frame = 0
 4442              		@ frame_needed = 0, uses_anonymous_args = 0
 4443              		@ link register save eliminated.
2581:../../Drivers/STM32L5xx_HAL_Driver/Src/stm32l5xx_hal_rtc_ex.c ****   /* Prevent unused argument(s) compilation warning */
2582:../../Drivers/STM32L5xx_HAL_Driver/Src/stm32l5xx_hal_rtc_ex.c ****   UNUSED(hrtc);
 4444              		.loc 1 2582 3 view .LVU1345
2583:../../Drivers/STM32L5xx_HAL_Driver/Src/stm32l5xx_hal_rtc_ex.c ****   CLEAR_BIT(TAMP->CFGR, TAMP_CFGR_WUTMONEN);
 4445              		.loc 1 2583 3 view .LVU1346
 4446 0000 024A     		ldr	r2, .L338
 4447 0002 136D     		ldr	r3, [r2, #80]
 4448 0004 23F00803 		bic	r3, r3, #8
 4449 0008 1365     		str	r3, [r2, #80]
2584:../../Drivers/STM32L5xx_HAL_Driver/Src/stm32l5xx_hal_rtc_ex.c **** }
 4450              		.loc 1 2584 1 is_stmt 0 view .LVU1347
 4451 000a 7047     		bx	lr
 4452              	.L339:
 4453              		.align	2
 4454              	.L338:
 4455 000c 00340050 		.word	1342190592
 4456              		.cfi_endproc
 4457              	.LFE261:
 4459              		.section	.text.HAL_RTCEx_BKUPWrite,"ax",%progbits
 4460              		.align	1
 4461              		.global	HAL_RTCEx_BKUPWrite
 4462              		.syntax unified
 4463              		.thumb
 4464              		.thumb_func
 4465              		.fpu fpv4-sp-d16
 4467              	HAL_RTCEx_BKUPWrite:
 4468              	.LVL276:
 4469              	.LFB262:
2585:../../Drivers/STM32L5xx_HAL_Driver/Src/stm32l5xx_hal_rtc_ex.c **** 
2586:../../Drivers/STM32L5xx_HAL_Driver/Src/stm32l5xx_hal_rtc_ex.c **** 
2587:../../Drivers/STM32L5xx_HAL_Driver/Src/stm32l5xx_hal_rtc_ex.c **** /**
2588:../../Drivers/STM32L5xx_HAL_Driver/Src/stm32l5xx_hal_rtc_ex.c ****   * @}
2589:../../Drivers/STM32L5xx_HAL_Driver/Src/stm32l5xx_hal_rtc_ex.c ****   */
2590:../../Drivers/STM32L5xx_HAL_Driver/Src/stm32l5xx_hal_rtc_ex.c **** 
2591:../../Drivers/STM32L5xx_HAL_Driver/Src/stm32l5xx_hal_rtc_ex.c **** 
2592:../../Drivers/STM32L5xx_HAL_Driver/Src/stm32l5xx_hal_rtc_ex.c **** /** @addtogroup RTCEx_Exported_Functions_Group6
2593:../../Drivers/STM32L5xx_HAL_Driver/Src/stm32l5xx_hal_rtc_ex.c ****   * @brief      Extended RTC Backup register functions
2594:../../Drivers/STM32L5xx_HAL_Driver/Src/stm32l5xx_hal_rtc_ex.c ****   *
2595:../../Drivers/STM32L5xx_HAL_Driver/Src/stm32l5xx_hal_rtc_ex.c **** @verbatim
2596:../../Drivers/STM32L5xx_HAL_Driver/Src/stm32l5xx_hal_rtc_ex.c ****   ===============================================================================
2597:../../Drivers/STM32L5xx_HAL_Driver/Src/stm32l5xx_hal_rtc_ex.c ****              ##### Extended RTC Backup register functions #####
2598:../../Drivers/STM32L5xx_HAL_Driver/Src/stm32l5xx_hal_rtc_ex.c ****   ===============================================================================
ARM GAS  C:\Users\carlos\AppData\Local\Temp\ccaMGGVT.s 			page 129


2599:../../Drivers/STM32L5xx_HAL_Driver/Src/stm32l5xx_hal_rtc_ex.c ****   [..]
2600:../../Drivers/STM32L5xx_HAL_Driver/Src/stm32l5xx_hal_rtc_ex.c ****    (+) Before calling any tamper or internal tamper function, you have to call first
2601:../../Drivers/STM32L5xx_HAL_Driver/Src/stm32l5xx_hal_rtc_ex.c ****        HAL_RTC_Init() function.
2602:../../Drivers/STM32L5xx_HAL_Driver/Src/stm32l5xx_hal_rtc_ex.c ****    (+) In that ine you can select to output tamper event on RTC pin.
2603:../../Drivers/STM32L5xx_HAL_Driver/Src/stm32l5xx_hal_rtc_ex.c ****   [..]
2604:../../Drivers/STM32L5xx_HAL_Driver/Src/stm32l5xx_hal_rtc_ex.c ****    This subsection provides functions allowing to
2605:../../Drivers/STM32L5xx_HAL_Driver/Src/stm32l5xx_hal_rtc_ex.c ****    (+) Write a data in a specified RTC Backup data register
2606:../../Drivers/STM32L5xx_HAL_Driver/Src/stm32l5xx_hal_rtc_ex.c ****    (+) Read a data in a specified RTC Backup data register
2607:../../Drivers/STM32L5xx_HAL_Driver/Src/stm32l5xx_hal_rtc_ex.c **** @endverbatim
2608:../../Drivers/STM32L5xx_HAL_Driver/Src/stm32l5xx_hal_rtc_ex.c ****   * @{
2609:../../Drivers/STM32L5xx_HAL_Driver/Src/stm32l5xx_hal_rtc_ex.c ****   */
2610:../../Drivers/STM32L5xx_HAL_Driver/Src/stm32l5xx_hal_rtc_ex.c **** 
2611:../../Drivers/STM32L5xx_HAL_Driver/Src/stm32l5xx_hal_rtc_ex.c **** 
2612:../../Drivers/STM32L5xx_HAL_Driver/Src/stm32l5xx_hal_rtc_ex.c **** /**
2613:../../Drivers/STM32L5xx_HAL_Driver/Src/stm32l5xx_hal_rtc_ex.c ****   * @brief  Write a data in a specified RTC Backup data register.
2614:../../Drivers/STM32L5xx_HAL_Driver/Src/stm32l5xx_hal_rtc_ex.c ****   * @param  hrtc RTC handle
2615:../../Drivers/STM32L5xx_HAL_Driver/Src/stm32l5xx_hal_rtc_ex.c ****   * @param  BackupRegister RTC Backup data Register number.
2616:../../Drivers/STM32L5xx_HAL_Driver/Src/stm32l5xx_hal_rtc_ex.c ****   *          This parameter can be RTC_BKP_DRx where x can be from 0 to RTC_BACKUP_NB
2617:../../Drivers/STM32L5xx_HAL_Driver/Src/stm32l5xx_hal_rtc_ex.c ****   * @param  Data Data to be written in the specified Backup data register.
2618:../../Drivers/STM32L5xx_HAL_Driver/Src/stm32l5xx_hal_rtc_ex.c ****   * @retval None
2619:../../Drivers/STM32L5xx_HAL_Driver/Src/stm32l5xx_hal_rtc_ex.c ****   */
2620:../../Drivers/STM32L5xx_HAL_Driver/Src/stm32l5xx_hal_rtc_ex.c **** void HAL_RTCEx_BKUPWrite(RTC_HandleTypeDef *hrtc, uint32_t BackupRegister, uint32_t Data)
2621:../../Drivers/STM32L5xx_HAL_Driver/Src/stm32l5xx_hal_rtc_ex.c **** {
 4470              		.loc 1 2621 1 is_stmt 1 view -0
 4471              		.cfi_startproc
 4472              		@ args = 0, pretend = 0, frame = 0
 4473              		@ frame_needed = 0, uses_anonymous_args = 0
 4474              		@ link register save eliminated.
2622:../../Drivers/STM32L5xx_HAL_Driver/Src/stm32l5xx_hal_rtc_ex.c ****   uint32_t tmp;
 4475              		.loc 1 2622 3 view .LVU1349
2623:../../Drivers/STM32L5xx_HAL_Driver/Src/stm32l5xx_hal_rtc_ex.c **** 
2624:../../Drivers/STM32L5xx_HAL_Driver/Src/stm32l5xx_hal_rtc_ex.c ****   UNUSED(hrtc);
 4476              		.loc 1 2624 3 view .LVU1350
2625:../../Drivers/STM32L5xx_HAL_Driver/Src/stm32l5xx_hal_rtc_ex.c ****   /* Check the parameters */
2626:../../Drivers/STM32L5xx_HAL_Driver/Src/stm32l5xx_hal_rtc_ex.c ****   assert_param(IS_RTC_BKP(BackupRegister));
 4477              		.loc 1 2626 3 view .LVU1351
2627:../../Drivers/STM32L5xx_HAL_Driver/Src/stm32l5xx_hal_rtc_ex.c **** 
2628:../../Drivers/STM32L5xx_HAL_Driver/Src/stm32l5xx_hal_rtc_ex.c ****   tmp = (uint32_t) & (TAMP->BKP0R);
 4478              		.loc 1 2628 3 view .LVU1352
2629:../../Drivers/STM32L5xx_HAL_Driver/Src/stm32l5xx_hal_rtc_ex.c ****   tmp += (BackupRegister * 4U);
 4479              		.loc 1 2629 3 view .LVU1353
 4480              		.loc 1 2629 26 is_stmt 0 view .LVU1354
 4481 0000 8900     		lsls	r1, r1, #2
 4482              	.LVL277:
 4483              		.loc 1 2629 7 view .LVU1355
 4484 0002 01F1A041 		add	r1, r1, #1342177280
 4485 0006 01F55451 		add	r1, r1, #13568
 4486              	.LVL278:
2630:../../Drivers/STM32L5xx_HAL_Driver/Src/stm32l5xx_hal_rtc_ex.c **** 
2631:../../Drivers/STM32L5xx_HAL_Driver/Src/stm32l5xx_hal_rtc_ex.c ****   /* Write the specified register */
2632:../../Drivers/STM32L5xx_HAL_Driver/Src/stm32l5xx_hal_rtc_ex.c ****   *(__IO uint32_t *)tmp = (uint32_t)Data;
 4487              		.loc 1 2632 3 is_stmt 1 view .LVU1356
 4488              		.loc 1 2632 25 is_stmt 0 view .LVU1357
 4489 000a 0A60     		str	r2, [r1]
2633:../../Drivers/STM32L5xx_HAL_Driver/Src/stm32l5xx_hal_rtc_ex.c **** }
 4490              		.loc 1 2633 1 view .LVU1358
 4491 000c 7047     		bx	lr
ARM GAS  C:\Users\carlos\AppData\Local\Temp\ccaMGGVT.s 			page 130


 4492              		.cfi_endproc
 4493              	.LFE262:
 4495              		.section	.text.HAL_RTCEx_BKUPRead,"ax",%progbits
 4496              		.align	1
 4497              		.global	HAL_RTCEx_BKUPRead
 4498              		.syntax unified
 4499              		.thumb
 4500              		.thumb_func
 4501              		.fpu fpv4-sp-d16
 4503              	HAL_RTCEx_BKUPRead:
 4504              	.LVL279:
 4505              	.LFB263:
2634:../../Drivers/STM32L5xx_HAL_Driver/Src/stm32l5xx_hal_rtc_ex.c **** 
2635:../../Drivers/STM32L5xx_HAL_Driver/Src/stm32l5xx_hal_rtc_ex.c **** 
2636:../../Drivers/STM32L5xx_HAL_Driver/Src/stm32l5xx_hal_rtc_ex.c **** /**
2637:../../Drivers/STM32L5xx_HAL_Driver/Src/stm32l5xx_hal_rtc_ex.c ****   * @brief  Reads data from the specified RTC Backup data Register.
2638:../../Drivers/STM32L5xx_HAL_Driver/Src/stm32l5xx_hal_rtc_ex.c ****   * @param  hrtc RTC handle
2639:../../Drivers/STM32L5xx_HAL_Driver/Src/stm32l5xx_hal_rtc_ex.c ****   * @param  BackupRegister RTC Backup data Register number.
2640:../../Drivers/STM32L5xx_HAL_Driver/Src/stm32l5xx_hal_rtc_ex.c ****   *          This parameter can be RTC_BKP_DRx where x can be from 0 to RTC_BACKUP_NB
2641:../../Drivers/STM32L5xx_HAL_Driver/Src/stm32l5xx_hal_rtc_ex.c ****   * @retval Read value
2642:../../Drivers/STM32L5xx_HAL_Driver/Src/stm32l5xx_hal_rtc_ex.c ****   */
2643:../../Drivers/STM32L5xx_HAL_Driver/Src/stm32l5xx_hal_rtc_ex.c **** uint32_t HAL_RTCEx_BKUPRead(RTC_HandleTypeDef *hrtc, uint32_t BackupRegister)
2644:../../Drivers/STM32L5xx_HAL_Driver/Src/stm32l5xx_hal_rtc_ex.c **** {
 4506              		.loc 1 2644 1 is_stmt 1 view -0
 4507              		.cfi_startproc
 4508              		@ args = 0, pretend = 0, frame = 0
 4509              		@ frame_needed = 0, uses_anonymous_args = 0
 4510              		@ link register save eliminated.
2645:../../Drivers/STM32L5xx_HAL_Driver/Src/stm32l5xx_hal_rtc_ex.c ****   uint32_t tmp;
 4511              		.loc 1 2645 3 view .LVU1360
2646:../../Drivers/STM32L5xx_HAL_Driver/Src/stm32l5xx_hal_rtc_ex.c **** 
2647:../../Drivers/STM32L5xx_HAL_Driver/Src/stm32l5xx_hal_rtc_ex.c ****   UNUSED(hrtc);
 4512              		.loc 1 2647 3 view .LVU1361
2648:../../Drivers/STM32L5xx_HAL_Driver/Src/stm32l5xx_hal_rtc_ex.c ****   /* Check the parameters */
2649:../../Drivers/STM32L5xx_HAL_Driver/Src/stm32l5xx_hal_rtc_ex.c ****   assert_param(IS_RTC_BKP(BackupRegister));
 4513              		.loc 1 2649 3 view .LVU1362
2650:../../Drivers/STM32L5xx_HAL_Driver/Src/stm32l5xx_hal_rtc_ex.c **** 
2651:../../Drivers/STM32L5xx_HAL_Driver/Src/stm32l5xx_hal_rtc_ex.c ****   tmp = (uint32_t) & (TAMP->BKP0R);
 4514              		.loc 1 2651 3 view .LVU1363
2652:../../Drivers/STM32L5xx_HAL_Driver/Src/stm32l5xx_hal_rtc_ex.c ****   tmp += (BackupRegister * 4U);
 4515              		.loc 1 2652 3 view .LVU1364
 4516              		.loc 1 2652 26 is_stmt 0 view .LVU1365
 4517 0000 8900     		lsls	r1, r1, #2
 4518              	.LVL280:
 4519              		.loc 1 2652 7 view .LVU1366
 4520 0002 01F1A041 		add	r1, r1, #1342177280
 4521 0006 01F55451 		add	r1, r1, #13568
 4522              	.LVL281:
2653:../../Drivers/STM32L5xx_HAL_Driver/Src/stm32l5xx_hal_rtc_ex.c **** 
2654:../../Drivers/STM32L5xx_HAL_Driver/Src/stm32l5xx_hal_rtc_ex.c ****   /* Read the specified register */
2655:../../Drivers/STM32L5xx_HAL_Driver/Src/stm32l5xx_hal_rtc_ex.c ****   return (*(__IO uint32_t *)tmp);
 4523              		.loc 1 2655 3 is_stmt 1 view .LVU1367
 4524              		.loc 1 2655 11 is_stmt 0 view .LVU1368
 4525 000a 0868     		ldr	r0, [r1]
 4526              	.LVL282:
2656:../../Drivers/STM32L5xx_HAL_Driver/Src/stm32l5xx_hal_rtc_ex.c **** }
 4527              		.loc 1 2656 1 view .LVU1369
ARM GAS  C:\Users\carlos\AppData\Local\Temp\ccaMGGVT.s 			page 131


 4528 000c 7047     		bx	lr
 4529              		.cfi_endproc
 4530              	.LFE263:
 4532              		.section	.text.HAL_RTCEx_SecureModeGet,"ax",%progbits
 4533              		.align	1
 4534              		.global	HAL_RTCEx_SecureModeGet
 4535              		.syntax unified
 4536              		.thumb
 4537              		.thumb_func
 4538              		.fpu fpv4-sp-d16
 4540              	HAL_RTCEx_SecureModeGet:
 4541              	.LVL283:
 4542              	.LFB264:
2657:../../Drivers/STM32L5xx_HAL_Driver/Src/stm32l5xx_hal_rtc_ex.c **** 
2658:../../Drivers/STM32L5xx_HAL_Driver/Src/stm32l5xx_hal_rtc_ex.c **** /**
2659:../../Drivers/STM32L5xx_HAL_Driver/Src/stm32l5xx_hal_rtc_ex.c ****   * @}
2660:../../Drivers/STM32L5xx_HAL_Driver/Src/stm32l5xx_hal_rtc_ex.c ****   */
2661:../../Drivers/STM32L5xx_HAL_Driver/Src/stm32l5xx_hal_rtc_ex.c **** 
2662:../../Drivers/STM32L5xx_HAL_Driver/Src/stm32l5xx_hal_rtc_ex.c **** 
2663:../../Drivers/STM32L5xx_HAL_Driver/Src/stm32l5xx_hal_rtc_ex.c **** /** @addtogroup RTCEx_Exported_Functions_Group7
2664:../../Drivers/STM32L5xx_HAL_Driver/Src/stm32l5xx_hal_rtc_ex.c ****   * @brief      Extended RTC security functions
2665:../../Drivers/STM32L5xx_HAL_Driver/Src/stm32l5xx_hal_rtc_ex.c ****   *
2666:../../Drivers/STM32L5xx_HAL_Driver/Src/stm32l5xx_hal_rtc_ex.c **** @verbatim
2667:../../Drivers/STM32L5xx_HAL_Driver/Src/stm32l5xx_hal_rtc_ex.c ****   ===============================================================================
2668:../../Drivers/STM32L5xx_HAL_Driver/Src/stm32l5xx_hal_rtc_ex.c ****              ##### Extended RTC security functions #####
2669:../../Drivers/STM32L5xx_HAL_Driver/Src/stm32l5xx_hal_rtc_ex.c ****   ===============================================================================
2670:../../Drivers/STM32L5xx_HAL_Driver/Src/stm32l5xx_hal_rtc_ex.c ****   [..]
2671:../../Drivers/STM32L5xx_HAL_Driver/Src/stm32l5xx_hal_rtc_ex.c ****    (+) Before calling security function, you have to call first
2672:../../Drivers/STM32L5xx_HAL_Driver/Src/stm32l5xx_hal_rtc_ex.c ****        HAL_RTC_Init() function.
2673:../../Drivers/STM32L5xx_HAL_Driver/Src/stm32l5xx_hal_rtc_ex.c **** @endverbatim
2674:../../Drivers/STM32L5xx_HAL_Driver/Src/stm32l5xx_hal_rtc_ex.c ****   * @{
2675:../../Drivers/STM32L5xx_HAL_Driver/Src/stm32l5xx_hal_rtc_ex.c ****   */
2676:../../Drivers/STM32L5xx_HAL_Driver/Src/stm32l5xx_hal_rtc_ex.c **** 
2677:../../Drivers/STM32L5xx_HAL_Driver/Src/stm32l5xx_hal_rtc_ex.c **** /**
2678:../../Drivers/STM32L5xx_HAL_Driver/Src/stm32l5xx_hal_rtc_ex.c ****   * @brief  Get the security level of the RTC.
2679:../../Drivers/STM32L5xx_HAL_Driver/Src/stm32l5xx_hal_rtc_ex.c ****   *         To set the secure level please call HAL_RTCEx_SecureModeSet.
2680:../../Drivers/STM32L5xx_HAL_Driver/Src/stm32l5xx_hal_rtc_ex.c ****   * @param  hrtc RTC handle
2681:../../Drivers/STM32L5xx_HAL_Driver/Src/stm32l5xx_hal_rtc_ex.c ****   * @param  secureState  Secure state
2682:../../Drivers/STM32L5xx_HAL_Driver/Src/stm32l5xx_hal_rtc_ex.c ****   * @retval HAL_StatusTypeDef
2683:../../Drivers/STM32L5xx_HAL_Driver/Src/stm32l5xx_hal_rtc_ex.c ****   */
2684:../../Drivers/STM32L5xx_HAL_Driver/Src/stm32l5xx_hal_rtc_ex.c **** HAL_StatusTypeDef HAL_RTCEx_SecureModeGet(RTC_HandleTypeDef *hrtc, RTC_SecureStateTypeDef  *secureS
2685:../../Drivers/STM32L5xx_HAL_Driver/Src/stm32l5xx_hal_rtc_ex.c **** {
 4543              		.loc 1 2685 1 is_stmt 1 view -0
 4544              		.cfi_startproc
 4545              		@ args = 0, pretend = 0, frame = 0
 4546              		@ frame_needed = 0, uses_anonymous_args = 0
 4547              		@ link register save eliminated.
2686:../../Drivers/STM32L5xx_HAL_Driver/Src/stm32l5xx_hal_rtc_ex.c ****   UNUSED(hrtc);
 4548              		.loc 1 2686 3 view .LVU1371
2687:../../Drivers/STM32L5xx_HAL_Driver/Src/stm32l5xx_hal_rtc_ex.c ****   /* Read registers */
2688:../../Drivers/STM32L5xx_HAL_Driver/Src/stm32l5xx_hal_rtc_ex.c ****   uint32_t rtc_smcr = READ_REG(RTC->SMCR);
 4549              		.loc 1 2688 3 view .LVU1372
 4550              		.loc 1 2688 12 is_stmt 0 view .LVU1373
 4551 0000 0C4B     		ldr	r3, .L343
 4552 0002 1A6A     		ldr	r2, [r3, #32]
 4553              	.LVL284:
2689:../../Drivers/STM32L5xx_HAL_Driver/Src/stm32l5xx_hal_rtc_ex.c ****   uint32_t tamp_smcr = READ_REG(TAMP->SMCR);
ARM GAS  C:\Users\carlos\AppData\Local\Temp\ccaMGGVT.s 			page 132


 4554              		.loc 1 2689 3 is_stmt 1 view .LVU1374
 4555              		.loc 1 2689 12 is_stmt 0 view .LVU1375
 4556 0004 03F54063 		add	r3, r3, #3072
 4557 0008 1B6A     		ldr	r3, [r3, #32]
 4558              	.LVL285:
2690:../../Drivers/STM32L5xx_HAL_Driver/Src/stm32l5xx_hal_rtc_ex.c **** 
2691:../../Drivers/STM32L5xx_HAL_Driver/Src/stm32l5xx_hal_rtc_ex.c ****   /* RTC */
2692:../../Drivers/STM32L5xx_HAL_Driver/Src/stm32l5xx_hal_rtc_ex.c ****   secureState->rtcSecureFull = READ_BIT(rtc_smcr, RTC_SMCR_DECPROT);
 4559              		.loc 1 2692 3 is_stmt 1 view .LVU1376
 4560              		.loc 1 2692 32 is_stmt 0 view .LVU1377
 4561 000a 02F40040 		and	r0, r2, #32768
 4562              	.LVL286:
 4563              		.loc 1 2692 30 view .LVU1378
 4564 000e 0860     		str	r0, [r1]
2693:../../Drivers/STM32L5xx_HAL_Driver/Src/stm32l5xx_hal_rtc_ex.c **** 
2694:../../Drivers/STM32L5xx_HAL_Driver/Src/stm32l5xx_hal_rtc_ex.c ****   /* Warning, rtcNonSecureFeatures is only relevant if secureState->rtcSecureFull == RTC_SECURE_FUL
2695:../../Drivers/STM32L5xx_HAL_Driver/Src/stm32l5xx_hal_rtc_ex.c ****   secureState->rtcNonSecureFeatures = READ_BIT(rtc_smcr, RTC_NONSECURE_FEATURE_ALL);
 4565              		.loc 1 2695 3 is_stmt 1 view .LVU1379
 4566              		.loc 1 2695 39 is_stmt 0 view .LVU1380
 4567 0010 22F4FF52 		bic	r2, r2, #8160
 4568              	.LVL287:
 4569              		.loc 1 2695 39 view .LVU1381
 4570 0014 22F01002 		bic	r2, r2, #16
 4571 0018 5204     		lsls	r2, r2, #17
 4572 001a 520C     		lsrs	r2, r2, #17
 4573              		.loc 1 2695 37 view .LVU1382
 4574 001c 4A60     		str	r2, [r1, #4]
2696:../../Drivers/STM32L5xx_HAL_Driver/Src/stm32l5xx_hal_rtc_ex.c **** 
2697:../../Drivers/STM32L5xx_HAL_Driver/Src/stm32l5xx_hal_rtc_ex.c ****   /* TAMP */
2698:../../Drivers/STM32L5xx_HAL_Driver/Src/stm32l5xx_hal_rtc_ex.c ****   secureState->tampSecureFull = READ_BIT(tamp_smcr, TAMP_SMCR_TAMPDPROT);
 4575              		.loc 1 2698 3 is_stmt 1 view .LVU1383
 4576              		.loc 1 2698 33 is_stmt 0 view .LVU1384
 4577 001e 03F00042 		and	r2, r3, #-2147483648
 4578              		.loc 1 2698 31 view .LVU1385
 4579 0022 8A60     		str	r2, [r1, #8]
2699:../../Drivers/STM32L5xx_HAL_Driver/Src/stm32l5xx_hal_rtc_ex.c **** 
2700:../../Drivers/STM32L5xx_HAL_Driver/Src/stm32l5xx_hal_rtc_ex.c ****   /* Backup register start zones
2701:../../Drivers/STM32L5xx_HAL_Driver/Src/stm32l5xx_hal_rtc_ex.c ****      Warning : Backup register start zones are shared with privilege configuration */
2702:../../Drivers/STM32L5xx_HAL_Driver/Src/stm32l5xx_hal_rtc_ex.c ****   secureState->backupRegisterStartZone2 = READ_BIT(tamp_smcr, TAMP_SMCR_BKPRWDPROT) >> TAMP_SMCR_BK
 4580              		.loc 1 2702 3 is_stmt 1 view .LVU1386
 4581              		.loc 1 2702 85 is_stmt 0 view .LVU1387
 4582 0024 DAB2     		uxtb	r2, r3
 4583              		.loc 1 2702 41 view .LVU1388
 4584 0026 CA60     		str	r2, [r1, #12]
2703:../../Drivers/STM32L5xx_HAL_Driver/Src/stm32l5xx_hal_rtc_ex.c ****   secureState->backupRegisterStartZone3 = READ_BIT(tamp_smcr, TAMP_SMCR_BKPWDPROT) >> TAMP_SMCR_BKP
 4585              		.loc 1 2703 3 is_stmt 1 view .LVU1389
 4586              		.loc 1 2703 84 is_stmt 0 view .LVU1390
 4587 0028 C3F30743 		ubfx	r3, r3, #16, #8
 4588              	.LVL288:
 4589              		.loc 1 2703 41 view .LVU1391
 4590 002c 0B61     		str	r3, [r1, #16]
2704:../../Drivers/STM32L5xx_HAL_Driver/Src/stm32l5xx_hal_rtc_ex.c **** 
2705:../../Drivers/STM32L5xx_HAL_Driver/Src/stm32l5xx_hal_rtc_ex.c ****   return HAL_OK;
 4591              		.loc 1 2705 3 is_stmt 1 view .LVU1392
2706:../../Drivers/STM32L5xx_HAL_Driver/Src/stm32l5xx_hal_rtc_ex.c **** }
 4592              		.loc 1 2706 1 is_stmt 0 view .LVU1393
 4593 002e 0020     		movs	r0, #0
ARM GAS  C:\Users\carlos\AppData\Local\Temp\ccaMGGVT.s 			page 133


 4594 0030 7047     		bx	lr
 4595              	.L344:
 4596 0032 00BF     		.align	2
 4597              	.L343:
 4598 0034 00280050 		.word	1342187520
 4599              		.cfi_endproc
 4600              	.LFE264:
 4602              		.section	.text.HAL_RTCEx_SecureModeSet,"ax",%progbits
 4603              		.align	1
 4604              		.global	HAL_RTCEx_SecureModeSet
 4605              		.syntax unified
 4606              		.thumb
 4607              		.thumb_func
 4608              		.fpu fpv4-sp-d16
 4610              	HAL_RTCEx_SecureModeSet:
 4611              	.LVL289:
 4612              	.LFB265:
2707:../../Drivers/STM32L5xx_HAL_Driver/Src/stm32l5xx_hal_rtc_ex.c **** 
2708:../../Drivers/STM32L5xx_HAL_Driver/Src/stm32l5xx_hal_rtc_ex.c **** 
2709:../../Drivers/STM32L5xx_HAL_Driver/Src/stm32l5xx_hal_rtc_ex.c **** #if defined (__ARM_FEATURE_CMSE) && (__ARM_FEATURE_CMSE == 3U)
2710:../../Drivers/STM32L5xx_HAL_Driver/Src/stm32l5xx_hal_rtc_ex.c **** /**
2711:../../Drivers/STM32L5xx_HAL_Driver/Src/stm32l5xx_hal_rtc_ex.c ****   * @brief  Set the security level of the RTC/TAMP/Backup registers.
2712:../../Drivers/STM32L5xx_HAL_Driver/Src/stm32l5xx_hal_rtc_ex.c ****   *         To get the current security level call HAL_RTCEx_SecureModeGet.
2713:../../Drivers/STM32L5xx_HAL_Driver/Src/stm32l5xx_hal_rtc_ex.c ****   * @param  hrtc RTC handle
2714:../../Drivers/STM32L5xx_HAL_Driver/Src/stm32l5xx_hal_rtc_ex.c ****   * @param  secureState  Secure state
2715:../../Drivers/STM32L5xx_HAL_Driver/Src/stm32l5xx_hal_rtc_ex.c ****   * @retval HAL_StatusTypeDef
2716:../../Drivers/STM32L5xx_HAL_Driver/Src/stm32l5xx_hal_rtc_ex.c ****   */
2717:../../Drivers/STM32L5xx_HAL_Driver/Src/stm32l5xx_hal_rtc_ex.c **** HAL_StatusTypeDef HAL_RTCEx_SecureModeSet(RTC_HandleTypeDef *hrtc, RTC_SecureStateTypeDef  *secureS
2718:../../Drivers/STM32L5xx_HAL_Driver/Src/stm32l5xx_hal_rtc_ex.c **** {
 4613              		.loc 1 2718 1 is_stmt 1 view -0
 4614              		.cfi_startproc
 4615              		@ args = 0, pretend = 0, frame = 0
 4616              		@ frame_needed = 0, uses_anonymous_args = 0
 4617              		@ link register save eliminated.
2719:../../Drivers/STM32L5xx_HAL_Driver/Src/stm32l5xx_hal_rtc_ex.c ****   UNUSED(hrtc);
 4618              		.loc 1 2719 3 view .LVU1395
2720:../../Drivers/STM32L5xx_HAL_Driver/Src/stm32l5xx_hal_rtc_ex.c ****   assert_param(IS_RTC_SECURE_FULL(secureState->rtcSecureFull));
 4619              		.loc 1 2720 3 view .LVU1396
2721:../../Drivers/STM32L5xx_HAL_Driver/Src/stm32l5xx_hal_rtc_ex.c ****   assert_param(IS_RTC_NONSECURE_FEATURES(secureState->rtcNonSecureFeatures));
 4620              		.loc 1 2721 3 view .LVU1397
2722:../../Drivers/STM32L5xx_HAL_Driver/Src/stm32l5xx_hal_rtc_ex.c ****   assert_param(IS_TAMP_SECURE_FULL(secureState->tampSecureFull));
 4621              		.loc 1 2722 3 view .LVU1398
2723:../../Drivers/STM32L5xx_HAL_Driver/Src/stm32l5xx_hal_rtc_ex.c ****   assert_param(IS_RTC_BKP(secureState->backupRegisterStartZone2));
 4622              		.loc 1 2723 3 view .LVU1399
2724:../../Drivers/STM32L5xx_HAL_Driver/Src/stm32l5xx_hal_rtc_ex.c ****   assert_param(IS_RTC_BKP(secureState->backupRegisterStartZone3));
 4623              		.loc 1 2724 3 view .LVU1400
2725:../../Drivers/STM32L5xx_HAL_Driver/Src/stm32l5xx_hal_rtc_ex.c **** 
2726:../../Drivers/STM32L5xx_HAL_Driver/Src/stm32l5xx_hal_rtc_ex.c ****   /* RTC, rtcNonSecureFeatures is only relevant if secureState->rtcSecureFull == RTC_SECURE_FULL_NO
2727:../../Drivers/STM32L5xx_HAL_Driver/Src/stm32l5xx_hal_rtc_ex.c ****   WRITE_REG(RTC->SMCR, secureState->rtcSecureFull | secureState->rtcNonSecureFeatures);
 4624              		.loc 1 2727 3 view .LVU1401
 4625 0000 0B68     		ldr	r3, [r1]
 4626 0002 4A68     		ldr	r2, [r1, #4]
 4627 0004 1343     		orrs	r3, r3, r2
 4628 0006 074A     		ldr	r2, .L346
 4629 0008 1362     		str	r3, [r2, #32]
2728:../../Drivers/STM32L5xx_HAL_Driver/Src/stm32l5xx_hal_rtc_ex.c **** 
2729:../../Drivers/STM32L5xx_HAL_Driver/Src/stm32l5xx_hal_rtc_ex.c ****   /* Tamper + Backup register
ARM GAS  C:\Users\carlos\AppData\Local\Temp\ccaMGGVT.s 			page 134


2730:../../Drivers/STM32L5xx_HAL_Driver/Src/stm32l5xx_hal_rtc_ex.c ****      Warning : Backup register start zone are Shared with privilege configuration */
2731:../../Drivers/STM32L5xx_HAL_Driver/Src/stm32l5xx_hal_rtc_ex.c ****   WRITE_REG(TAMP->SMCR,
 4630              		.loc 1 2731 3 view .LVU1402
 4631 000a 8B68     		ldr	r3, [r1, #8]
 4632 000c 0A7B     		ldrb	r2, [r1, #12]	@ zero_extendqisi2
 4633 000e 1343     		orrs	r3, r3, r2
 4634 0010 0A69     		ldr	r2, [r1, #16]
 4635 0012 1204     		lsls	r2, r2, #16
 4636 0014 02F47F02 		and	r2, r2, #16711680
 4637 0018 1343     		orrs	r3, r3, r2
 4638 001a 034A     		ldr	r2, .L346+4
 4639 001c 1362     		str	r3, [r2, #32]
2732:../../Drivers/STM32L5xx_HAL_Driver/Src/stm32l5xx_hal_rtc_ex.c ****             secureState->tampSecureFull |
2733:../../Drivers/STM32L5xx_HAL_Driver/Src/stm32l5xx_hal_rtc_ex.c ****             (TAMP_SMCR_BKPRWDPROT & (secureState->backupRegisterStartZone2 << TAMP_SMCR_BKPRWDPROT_
2734:../../Drivers/STM32L5xx_HAL_Driver/Src/stm32l5xx_hal_rtc_ex.c ****             (TAMP_SMCR_BKPWDPROT & (secureState->backupRegisterStartZone3 << TAMP_SMCR_BKPWDPROT_Po
2735:../../Drivers/STM32L5xx_HAL_Driver/Src/stm32l5xx_hal_rtc_ex.c **** 
2736:../../Drivers/STM32L5xx_HAL_Driver/Src/stm32l5xx_hal_rtc_ex.c ****   return HAL_OK;
 4640              		.loc 1 2736 3 view .LVU1403
2737:../../Drivers/STM32L5xx_HAL_Driver/Src/stm32l5xx_hal_rtc_ex.c **** }
 4641              		.loc 1 2737 1 is_stmt 0 view .LVU1404
 4642 001e 0020     		movs	r0, #0
 4643              	.LVL290:
 4644              		.loc 1 2737 1 view .LVU1405
 4645 0020 7047     		bx	lr
 4646              	.L347:
 4647 0022 00BF     		.align	2
 4648              	.L346:
 4649 0024 00280050 		.word	1342187520
 4650 0028 00340050 		.word	1342190592
 4651              		.cfi_endproc
 4652              	.LFE265:
 4654              		.section	.text.HAL_RTCEx_PrivilegeModeSet,"ax",%progbits
 4655              		.align	1
 4656              		.global	HAL_RTCEx_PrivilegeModeSet
 4657              		.syntax unified
 4658              		.thumb
 4659              		.thumb_func
 4660              		.fpu fpv4-sp-d16
 4662              	HAL_RTCEx_PrivilegeModeSet:
 4663              	.LVL291:
 4664              	.LFB266:
2738:../../Drivers/STM32L5xx_HAL_Driver/Src/stm32l5xx_hal_rtc_ex.c **** #endif /* #if defined (__ARM_FEATURE_CMSE) && (__ARM_FEATURE_CMSE == 3U) */
2739:../../Drivers/STM32L5xx_HAL_Driver/Src/stm32l5xx_hal_rtc_ex.c **** 
2740:../../Drivers/STM32L5xx_HAL_Driver/Src/stm32l5xx_hal_rtc_ex.c **** /**
2741:../../Drivers/STM32L5xx_HAL_Driver/Src/stm32l5xx_hal_rtc_ex.c ****   * @}
2742:../../Drivers/STM32L5xx_HAL_Driver/Src/stm32l5xx_hal_rtc_ex.c ****   */
2743:../../Drivers/STM32L5xx_HAL_Driver/Src/stm32l5xx_hal_rtc_ex.c **** 
2744:../../Drivers/STM32L5xx_HAL_Driver/Src/stm32l5xx_hal_rtc_ex.c **** /** @addtogroup RTCEx_Exported_Functions_Group8
2745:../../Drivers/STM32L5xx_HAL_Driver/Src/stm32l5xx_hal_rtc_ex.c ****   * @brief      Extended RTC privilege functions
2746:../../Drivers/STM32L5xx_HAL_Driver/Src/stm32l5xx_hal_rtc_ex.c ****   *
2747:../../Drivers/STM32L5xx_HAL_Driver/Src/stm32l5xx_hal_rtc_ex.c **** @verbatim
2748:../../Drivers/STM32L5xx_HAL_Driver/Src/stm32l5xx_hal_rtc_ex.c ****   ===============================================================================
2749:../../Drivers/STM32L5xx_HAL_Driver/Src/stm32l5xx_hal_rtc_ex.c ****              ##### Extended RTC privilege functions #####
2750:../../Drivers/STM32L5xx_HAL_Driver/Src/stm32l5xx_hal_rtc_ex.c ****   ===============================================================================
2751:../../Drivers/STM32L5xx_HAL_Driver/Src/stm32l5xx_hal_rtc_ex.c ****   [..]
2752:../../Drivers/STM32L5xx_HAL_Driver/Src/stm32l5xx_hal_rtc_ex.c ****    (+) Before calling privilege function, you have to call first
2753:../../Drivers/STM32L5xx_HAL_Driver/Src/stm32l5xx_hal_rtc_ex.c ****        HAL_RTC_Init() function.
ARM GAS  C:\Users\carlos\AppData\Local\Temp\ccaMGGVT.s 			page 135


2754:../../Drivers/STM32L5xx_HAL_Driver/Src/stm32l5xx_hal_rtc_ex.c **** @endverbatim
2755:../../Drivers/STM32L5xx_HAL_Driver/Src/stm32l5xx_hal_rtc_ex.c ****   * @{
2756:../../Drivers/STM32L5xx_HAL_Driver/Src/stm32l5xx_hal_rtc_ex.c ****   */
2757:../../Drivers/STM32L5xx_HAL_Driver/Src/stm32l5xx_hal_rtc_ex.c **** 
2758:../../Drivers/STM32L5xx_HAL_Driver/Src/stm32l5xx_hal_rtc_ex.c **** 
2759:../../Drivers/STM32L5xx_HAL_Driver/Src/stm32l5xx_hal_rtc_ex.c **** /**
2760:../../Drivers/STM32L5xx_HAL_Driver/Src/stm32l5xx_hal_rtc_ex.c ****   * @brief  Set the privilege level of the RTC/TAMP registers.
2761:../../Drivers/STM32L5xx_HAL_Driver/Src/stm32l5xx_hal_rtc_ex.c ****   *         To get the current privilege level call HAL_RTCEx_PrivilegeModeGet.
2762:../../Drivers/STM32L5xx_HAL_Driver/Src/stm32l5xx_hal_rtc_ex.c ****   * @param  hrtc RTC handle
2763:../../Drivers/STM32L5xx_HAL_Driver/Src/stm32l5xx_hal_rtc_ex.c ****   * @param  privilegeState  Privilege state
2764:../../Drivers/STM32L5xx_HAL_Driver/Src/stm32l5xx_hal_rtc_ex.c ****   * @retval HAL_StatusTypeDef
2765:../../Drivers/STM32L5xx_HAL_Driver/Src/stm32l5xx_hal_rtc_ex.c ****   */
2766:../../Drivers/STM32L5xx_HAL_Driver/Src/stm32l5xx_hal_rtc_ex.c **** HAL_StatusTypeDef HAL_RTCEx_PrivilegeModeSet(RTC_HandleTypeDef *hrtc, RTC_PrivilegeStateTypeDef *pr
2767:../../Drivers/STM32L5xx_HAL_Driver/Src/stm32l5xx_hal_rtc_ex.c **** {
 4665              		.loc 1 2767 1 is_stmt 1 view -0
 4666              		.cfi_startproc
 4667              		@ args = 0, pretend = 0, frame = 0
 4668              		@ frame_needed = 0, uses_anonymous_args = 0
 4669              		@ link register save eliminated.
2768:../../Drivers/STM32L5xx_HAL_Driver/Src/stm32l5xx_hal_rtc_ex.c ****   UNUSED(hrtc);
 4670              		.loc 1 2768 3 view .LVU1407
2769:../../Drivers/STM32L5xx_HAL_Driver/Src/stm32l5xx_hal_rtc_ex.c ****   assert_param(IS_RTC_PRIVILEGE_FULL(privilegeState->rtcPrivilegeFull));
 4671              		.loc 1 2769 3 view .LVU1408
2770:../../Drivers/STM32L5xx_HAL_Driver/Src/stm32l5xx_hal_rtc_ex.c ****   assert_param(IS_RTC_PRIVILEGE_FEATURES(privilegeState->rtcPrivilegeFeatures));
 4672              		.loc 1 2770 3 view .LVU1409
2771:../../Drivers/STM32L5xx_HAL_Driver/Src/stm32l5xx_hal_rtc_ex.c ****   assert_param(IS_TAMP_PRIVILEGE_FULL(privilegeState->tampPrivilegeFull));
 4673              		.loc 1 2771 3 view .LVU1410
2772:../../Drivers/STM32L5xx_HAL_Driver/Src/stm32l5xx_hal_rtc_ex.c ****   assert_param(IS_RTC_PRIVILEGE_BKUP_ZONE(privilegeState->backupRegisterPrivZone));
 4674              		.loc 1 2772 3 view .LVU1411
2773:../../Drivers/STM32L5xx_HAL_Driver/Src/stm32l5xx_hal_rtc_ex.c ****   assert_param(IS_RTC_BKP(privilegeState->backupRegisterStartZone2));
 4675              		.loc 1 2773 3 view .LVU1412
2774:../../Drivers/STM32L5xx_HAL_Driver/Src/stm32l5xx_hal_rtc_ex.c ****   assert_param(IS_RTC_BKP(privilegeState->backupRegisterStartZone3));
 4676              		.loc 1 2774 3 view .LVU1413
2775:../../Drivers/STM32L5xx_HAL_Driver/Src/stm32l5xx_hal_rtc_ex.c **** 
2776:../../Drivers/STM32L5xx_HAL_Driver/Src/stm32l5xx_hal_rtc_ex.c ****   /* RTC privilege configuration */
2777:../../Drivers/STM32L5xx_HAL_Driver/Src/stm32l5xx_hal_rtc_ex.c ****   WRITE_REG(RTC->PRIVCR, privilegeState->rtcPrivilegeFull | privilegeState->rtcPrivilegeFeatures);
 4677              		.loc 1 2777 3 view .LVU1414
 4678 0000 0B68     		ldr	r3, [r1]
 4679 0002 4A68     		ldr	r2, [r1, #4]
 4680 0004 1343     		orrs	r3, r3, r2
 4681 0006 094A     		ldr	r2, .L349
 4682 0008 D361     		str	r3, [r2, #28]
2778:../../Drivers/STM32L5xx_HAL_Driver/Src/stm32l5xx_hal_rtc_ex.c **** 
2779:../../Drivers/STM32L5xx_HAL_Driver/Src/stm32l5xx_hal_rtc_ex.c ****   /* TAMP and Backup registers privilege configuration
2780:../../Drivers/STM32L5xx_HAL_Driver/Src/stm32l5xx_hal_rtc_ex.c ****      Warning : privilegeState->backupRegisterPrivZone is only writable in secure mode or if trustzo
2781:../../Drivers/STM32L5xx_HAL_Driver/Src/stm32l5xx_hal_rtc_ex.c ****                In non secure mode, a notification is generated through a flag/interrupt in the TZIC
2782:../../Drivers/STM32L5xx_HAL_Driver/Src/stm32l5xx_hal_rtc_ex.c ****   WRITE_REG(TAMP->PRIVCR, privilegeState->tampPrivilegeFull | privilegeState->backupRegisterPrivZon
 4683              		.loc 1 2782 3 view .LVU1415
 4684 000a 8B68     		ldr	r3, [r1, #8]
 4685 000c CA68     		ldr	r2, [r1, #12]
 4686 000e 1343     		orrs	r3, r3, r2
 4687 0010 074A     		ldr	r2, .L349+4
 4688 0012 5362     		str	r3, [r2, #36]
2783:../../Drivers/STM32L5xx_HAL_Driver/Src/stm32l5xx_hal_rtc_ex.c **** 
2784:../../Drivers/STM32L5xx_HAL_Driver/Src/stm32l5xx_hal_rtc_ex.c ****   /* Backup register start zone
2785:../../Drivers/STM32L5xx_HAL_Driver/Src/stm32l5xx_hal_rtc_ex.c ****      Warning : This parameter is only writable in secure mode or if trustzone is disabled.
2786:../../Drivers/STM32L5xx_HAL_Driver/Src/stm32l5xx_hal_rtc_ex.c ****                In non secure mode, a notification is generated through a flag/interrupt in the TZIC
ARM GAS  C:\Users\carlos\AppData\Local\Temp\ccaMGGVT.s 			page 136


2787:../../Drivers/STM32L5xx_HAL_Driver/Src/stm32l5xx_hal_rtc_ex.c ****      Warning : Backup register start zones are shared with secure configuration */
2788:../../Drivers/STM32L5xx_HAL_Driver/Src/stm32l5xx_hal_rtc_ex.c ****   MODIFY_REG(TAMP->SMCR,
 4689              		.loc 1 2788 3 view .LVU1416
 4690 0014 136A     		ldr	r3, [r2, #32]
 4691 0016 03F0FF23 		and	r3, r3, #-16711936
 4692 001a 0869     		ldr	r0, [r1, #16]
 4693              	.LVL292:
 4694              		.loc 1 2788 3 is_stmt 0 view .LVU1417
 4695 001c 4969     		ldr	r1, [r1, #20]
 4696              	.LVL293:
 4697              		.loc 1 2788 3 view .LVU1418
 4698 001e 40EA0141 		orr	r1, r0, r1, lsl #16
 4699 0022 0B43     		orrs	r3, r3, r1
 4700 0024 1362     		str	r3, [r2, #32]
2789:../../Drivers/STM32L5xx_HAL_Driver/Src/stm32l5xx_hal_rtc_ex.c ****              (TAMP_SMCR_BKPRWDPROT | TAMP_SMCR_BKPWDPROT),
2790:../../Drivers/STM32L5xx_HAL_Driver/Src/stm32l5xx_hal_rtc_ex.c ****              ((privilegeState->backupRegisterStartZone2 << TAMP_SMCR_BKPRWDPROT_Pos) | (privilegeSt
2791:../../Drivers/STM32L5xx_HAL_Driver/Src/stm32l5xx_hal_rtc_ex.c **** 
2792:../../Drivers/STM32L5xx_HAL_Driver/Src/stm32l5xx_hal_rtc_ex.c ****   return HAL_OK;
 4701              		.loc 1 2792 3 is_stmt 1 view .LVU1419
2793:../../Drivers/STM32L5xx_HAL_Driver/Src/stm32l5xx_hal_rtc_ex.c **** }
 4702              		.loc 1 2793 1 is_stmt 0 view .LVU1420
 4703 0026 0020     		movs	r0, #0
 4704 0028 7047     		bx	lr
 4705              	.L350:
 4706 002a 00BF     		.align	2
 4707              	.L349:
 4708 002c 00280050 		.word	1342187520
 4709 0030 00340050 		.word	1342190592
 4710              		.cfi_endproc
 4711              	.LFE266:
 4713              		.section	.text.HAL_RTCEx_PrivilegeModeGet,"ax",%progbits
 4714              		.align	1
 4715              		.global	HAL_RTCEx_PrivilegeModeGet
 4716              		.syntax unified
 4717              		.thumb
 4718              		.thumb_func
 4719              		.fpu fpv4-sp-d16
 4721              	HAL_RTCEx_PrivilegeModeGet:
 4722              	.LVL294:
 4723              	.LFB267:
2794:../../Drivers/STM32L5xx_HAL_Driver/Src/stm32l5xx_hal_rtc_ex.c **** 
2795:../../Drivers/STM32L5xx_HAL_Driver/Src/stm32l5xx_hal_rtc_ex.c **** /**
2796:../../Drivers/STM32L5xx_HAL_Driver/Src/stm32l5xx_hal_rtc_ex.c ****   * @brief  Get the privilege level of the RTC.
2797:../../Drivers/STM32L5xx_HAL_Driver/Src/stm32l5xx_hal_rtc_ex.c ****   *         To set the privilege level please call HAL_RTCEx_PrivilegeModeSet.
2798:../../Drivers/STM32L5xx_HAL_Driver/Src/stm32l5xx_hal_rtc_ex.c ****   * @param  hrtc RTC handle
2799:../../Drivers/STM32L5xx_HAL_Driver/Src/stm32l5xx_hal_rtc_ex.c ****   * @param  privilegeState  Privilege state
2800:../../Drivers/STM32L5xx_HAL_Driver/Src/stm32l5xx_hal_rtc_ex.c ****   * @retval HAL_StatusTypeDef
2801:../../Drivers/STM32L5xx_HAL_Driver/Src/stm32l5xx_hal_rtc_ex.c ****   */
2802:../../Drivers/STM32L5xx_HAL_Driver/Src/stm32l5xx_hal_rtc_ex.c **** HAL_StatusTypeDef HAL_RTCEx_PrivilegeModeGet(RTC_HandleTypeDef *hrtc, RTC_PrivilegeStateTypeDef *pr
2803:../../Drivers/STM32L5xx_HAL_Driver/Src/stm32l5xx_hal_rtc_ex.c **** {
 4724              		.loc 1 2803 1 is_stmt 1 view -0
 4725              		.cfi_startproc
 4726              		@ args = 0, pretend = 0, frame = 0
 4727              		@ frame_needed = 0, uses_anonymous_args = 0
 4728              		@ link register save eliminated.
 4729              		.loc 1 2803 1 is_stmt 0 view .LVU1422
 4730 0000 10B4     		push	{r4}
ARM GAS  C:\Users\carlos\AppData\Local\Temp\ccaMGGVT.s 			page 137


 4731              	.LCFI21:
 4732              		.cfi_def_cfa_offset 4
 4733              		.cfi_offset 4, -4
2804:../../Drivers/STM32L5xx_HAL_Driver/Src/stm32l5xx_hal_rtc_ex.c ****   /* Read registers */
2805:../../Drivers/STM32L5xx_HAL_Driver/Src/stm32l5xx_hal_rtc_ex.c ****   uint32_t rtc_privcr = READ_REG(RTC->PRIVCR);
 4734              		.loc 1 2805 3 is_stmt 1 view .LVU1423
 4735              		.loc 1 2805 12 is_stmt 0 view .LVU1424
 4736 0002 0F4B     		ldr	r3, .L353
 4737 0004 D869     		ldr	r0, [r3, #28]
 4738              	.LVL295:
2806:../../Drivers/STM32L5xx_HAL_Driver/Src/stm32l5xx_hal_rtc_ex.c ****   uint32_t tamp_privcr = READ_REG(TAMP->PRIVCR);
 4739              		.loc 1 2806 3 is_stmt 1 view .LVU1425
 4740              		.loc 1 2806 12 is_stmt 0 view .LVU1426
 4741 0006 03F54063 		add	r3, r3, #3072
 4742 000a 5A6A     		ldr	r2, [r3, #36]
 4743              	.LVL296:
2807:../../Drivers/STM32L5xx_HAL_Driver/Src/stm32l5xx_hal_rtc_ex.c ****   uint32_t tamp_smcr = READ_REG(TAMP->SMCR);
 4744              		.loc 1 2807 3 is_stmt 1 view .LVU1427
 4745              		.loc 1 2807 12 is_stmt 0 view .LVU1428
 4746 000c 1B6A     		ldr	r3, [r3, #32]
 4747              	.LVL297:
2808:../../Drivers/STM32L5xx_HAL_Driver/Src/stm32l5xx_hal_rtc_ex.c **** 
2809:../../Drivers/STM32L5xx_HAL_Driver/Src/stm32l5xx_hal_rtc_ex.c ****   UNUSED(hrtc);
 4748              		.loc 1 2809 3 is_stmt 1 view .LVU1429
2810:../../Drivers/STM32L5xx_HAL_Driver/Src/stm32l5xx_hal_rtc_ex.c ****   /* RTC privilege configuration */
2811:../../Drivers/STM32L5xx_HAL_Driver/Src/stm32l5xx_hal_rtc_ex.c ****   privilegeState->rtcPrivilegeFull = READ_BIT(rtc_privcr, RTC_PRIVCR_PRIV);
 4749              		.loc 1 2811 3 view .LVU1430
 4750              		.loc 1 2811 38 is_stmt 0 view .LVU1431
 4751 000e 00F40044 		and	r4, r0, #32768
 4752              		.loc 1 2811 36 view .LVU1432
 4753 0012 0C60     		str	r4, [r1]
2812:../../Drivers/STM32L5xx_HAL_Driver/Src/stm32l5xx_hal_rtc_ex.c **** 
2813:../../Drivers/STM32L5xx_HAL_Driver/Src/stm32l5xx_hal_rtc_ex.c ****   /* Warning, rtcPrivilegeFeatures is only relevant if privilegeState->rtcPrivilegeFull == RTC_PRIV
2814:../../Drivers/STM32L5xx_HAL_Driver/Src/stm32l5xx_hal_rtc_ex.c ****   privilegeState->rtcPrivilegeFeatures = READ_BIT(rtc_privcr, RTC_PRIVILEGE_FEATURE_ALL);
 4754              		.loc 1 2814 3 is_stmt 1 view .LVU1433
 4755              		.loc 1 2814 42 is_stmt 0 view .LVU1434
 4756 0014 20F4FF50 		bic	r0, r0, #8160
 4757              	.LVL298:
 4758              		.loc 1 2814 42 view .LVU1435
 4759 0018 20F01000 		bic	r0, r0, #16
 4760 001c 4004     		lsls	r0, r0, #17
 4761 001e 400C     		lsrs	r0, r0, #17
 4762              		.loc 1 2814 40 view .LVU1436
 4763 0020 4860     		str	r0, [r1, #4]
2815:../../Drivers/STM32L5xx_HAL_Driver/Src/stm32l5xx_hal_rtc_ex.c **** 
2816:../../Drivers/STM32L5xx_HAL_Driver/Src/stm32l5xx_hal_rtc_ex.c ****   /* TAMP and Backup registers privilege configuration */
2817:../../Drivers/STM32L5xx_HAL_Driver/Src/stm32l5xx_hal_rtc_ex.c ****   privilegeState->tampPrivilegeFull = READ_BIT(tamp_privcr, TAMP_PRIVCR_TAMPPRIV);
 4764              		.loc 1 2817 3 is_stmt 1 view .LVU1437
 4765              		.loc 1 2817 39 is_stmt 0 view .LVU1438
 4766 0022 02F00040 		and	r0, r2, #-2147483648
 4767              		.loc 1 2817 37 view .LVU1439
 4768 0026 8860     		str	r0, [r1, #8]
2818:../../Drivers/STM32L5xx_HAL_Driver/Src/stm32l5xx_hal_rtc_ex.c **** 
2819:../../Drivers/STM32L5xx_HAL_Driver/Src/stm32l5xx_hal_rtc_ex.c ****   /* Backup registers Zones */
2820:../../Drivers/STM32L5xx_HAL_Driver/Src/stm32l5xx_hal_rtc_ex.c ****   privilegeState->backupRegisterPrivZone = READ_BIT(tamp_privcr, (TAMP_PRIVCR_BKPWPRIV | TAMP_PRIVC
 4769              		.loc 1 2820 3 is_stmt 1 view .LVU1440
 4770              		.loc 1 2820 44 is_stmt 0 view .LVU1441
ARM GAS  C:\Users\carlos\AppData\Local\Temp\ccaMGGVT.s 			page 138


 4771 0028 02F0C042 		and	r2, r2, #1610612736
 4772              	.LVL299:
 4773              		.loc 1 2820 42 view .LVU1442
 4774 002c CA60     		str	r2, [r1, #12]
2821:../../Drivers/STM32L5xx_HAL_Driver/Src/stm32l5xx_hal_rtc_ex.c **** 
2822:../../Drivers/STM32L5xx_HAL_Driver/Src/stm32l5xx_hal_rtc_ex.c ****   /* Backup register start zones
2823:../../Drivers/STM32L5xx_HAL_Driver/Src/stm32l5xx_hal_rtc_ex.c ****      Warning : Shared with secure configuration */
2824:../../Drivers/STM32L5xx_HAL_Driver/Src/stm32l5xx_hal_rtc_ex.c ****   privilegeState->backupRegisterStartZone2 = READ_BIT(tamp_smcr, TAMP_SMCR_BKPRWDPROT) >> TAMP_SMCR
 4775              		.loc 1 2824 3 is_stmt 1 view .LVU1443
 4776              		.loc 1 2824 88 is_stmt 0 view .LVU1444
 4777 002e DAB2     		uxtb	r2, r3
 4778              		.loc 1 2824 44 view .LVU1445
 4779 0030 0A61     		str	r2, [r1, #16]
2825:../../Drivers/STM32L5xx_HAL_Driver/Src/stm32l5xx_hal_rtc_ex.c ****   privilegeState->backupRegisterStartZone3 = READ_BIT(tamp_smcr, TAMP_SMCR_BKPWDPROT) >> TAMP_SMCR_
 4780              		.loc 1 2825 3 is_stmt 1 view .LVU1446
 4781              		.loc 1 2825 87 is_stmt 0 view .LVU1447
 4782 0032 C3F30743 		ubfx	r3, r3, #16, #8
 4783              	.LVL300:
 4784              		.loc 1 2825 44 view .LVU1448
 4785 0036 4B61     		str	r3, [r1, #20]
2826:../../Drivers/STM32L5xx_HAL_Driver/Src/stm32l5xx_hal_rtc_ex.c **** 
2827:../../Drivers/STM32L5xx_HAL_Driver/Src/stm32l5xx_hal_rtc_ex.c ****   return HAL_OK;
 4786              		.loc 1 2827 3 is_stmt 1 view .LVU1449
2828:../../Drivers/STM32L5xx_HAL_Driver/Src/stm32l5xx_hal_rtc_ex.c **** }
 4787              		.loc 1 2828 1 is_stmt 0 view .LVU1450
 4788 0038 0020     		movs	r0, #0
 4789 003a 5DF8044B 		ldr	r4, [sp], #4
 4790              	.LCFI22:
 4791              		.cfi_restore 4
 4792              		.cfi_def_cfa_offset 0
 4793 003e 7047     		bx	lr
 4794              	.L354:
 4795              		.align	2
 4796              	.L353:
 4797 0040 00280050 		.word	1342187520
 4798              		.cfi_endproc
 4799              	.LFE267:
 4801              		.text
 4802              	.Letext0:
 4803              		.file 2 "c:\\opt\\toolchains\\gcc-arm-10.3-2021.07-mingw-w64-i686-arm-none-eabi\\gcc-arm-10.3-2021
 4804              		.file 3 "c:\\opt\\toolchains\\gcc-arm-10.3-2021.07-mingw-w64-i686-arm-none-eabi\\gcc-arm-10.3-2021
 4805              		.file 4 "../../Drivers/CMSIS/Device/ST/STM32L5xx/Include/stm32l552xx.h"
 4806              		.file 5 "../../Drivers/STM32L5xx_HAL_Driver/Inc/stm32l5xx_hal_def.h"
 4807              		.file 6 "../../Drivers/STM32L5xx_HAL_Driver/Inc/stm32l5xx_hal_rtc.h"
 4808              		.file 7 "../../Drivers/STM32L5xx_HAL_Driver/Inc/stm32l5xx_hal_rtc_ex.h"
 4809              		.file 8 "../../Drivers/STM32L5xx_HAL_Driver/Inc/stm32l5xx_hal.h"
ARM GAS  C:\Users\carlos\AppData\Local\Temp\ccaMGGVT.s 			page 139


DEFINED SYMBOLS
                            *ABS*:00000000 stm32l5xx_hal_rtc_ex.c
C:\Users\carlos\AppData\Local\Temp\ccaMGGVT.s:18     .text.HAL_RTCEx_SetTimeStamp:00000000 $t
C:\Users\carlos\AppData\Local\Temp\ccaMGGVT.s:27     .text.HAL_RTCEx_SetTimeStamp:00000000 HAL_RTCEx_SetTimeStamp
C:\Users\carlos\AppData\Local\Temp\ccaMGGVT.s:104    .text.HAL_RTCEx_SetTimeStamp:0000004c $d
C:\Users\carlos\AppData\Local\Temp\ccaMGGVT.s:109    .text.HAL_RTCEx_SetTimeStamp_IT:00000000 $t
C:\Users\carlos\AppData\Local\Temp\ccaMGGVT.s:116    .text.HAL_RTCEx_SetTimeStamp_IT:00000000 HAL_RTCEx_SetTimeStamp_IT
C:\Users\carlos\AppData\Local\Temp\ccaMGGVT.s:200    .text.HAL_RTCEx_SetTimeStamp_IT:00000060 $d
C:\Users\carlos\AppData\Local\Temp\ccaMGGVT.s:206    .text.HAL_RTCEx_DeactivateTimeStamp:00000000 $t
C:\Users\carlos\AppData\Local\Temp\ccaMGGVT.s:213    .text.HAL_RTCEx_DeactivateTimeStamp:00000000 HAL_RTCEx_DeactivateTimeStamp
C:\Users\carlos\AppData\Local\Temp\ccaMGGVT.s:277    .text.HAL_RTCEx_DeactivateTimeStamp:00000040 $d
C:\Users\carlos\AppData\Local\Temp\ccaMGGVT.s:282    .text.HAL_RTCEx_SetInternalTimeStamp:00000000 $t
C:\Users\carlos\AppData\Local\Temp\ccaMGGVT.s:289    .text.HAL_RTCEx_SetInternalTimeStamp:00000000 HAL_RTCEx_SetInternalTimeStamp
C:\Users\carlos\AppData\Local\Temp\ccaMGGVT.s:352    .text.HAL_RTCEx_SetInternalTimeStamp:0000003c $d
C:\Users\carlos\AppData\Local\Temp\ccaMGGVT.s:357    .text.HAL_RTCEx_DeactivateInternalTimeStamp:00000000 $t
C:\Users\carlos\AppData\Local\Temp\ccaMGGVT.s:364    .text.HAL_RTCEx_DeactivateInternalTimeStamp:00000000 HAL_RTCEx_DeactivateInternalTimeStamp
C:\Users\carlos\AppData\Local\Temp\ccaMGGVT.s:427    .text.HAL_RTCEx_DeactivateInternalTimeStamp:0000003c $d
C:\Users\carlos\AppData\Local\Temp\ccaMGGVT.s:432    .text.HAL_RTCEx_GetTimeStamp:00000000 $t
C:\Users\carlos\AppData\Local\Temp\ccaMGGVT.s:439    .text.HAL_RTCEx_GetTimeStamp:00000000 HAL_RTCEx_GetTimeStamp
C:\Users\carlos\AppData\Local\Temp\ccaMGGVT.s:578    .text.HAL_RTCEx_GetTimeStamp:00000084 $d
C:\Users\carlos\AppData\Local\Temp\ccaMGGVT.s:583    .text.HAL_RTCEx_TimeStampEventCallback:00000000 $t
C:\Users\carlos\AppData\Local\Temp\ccaMGGVT.s:590    .text.HAL_RTCEx_TimeStampEventCallback:00000000 HAL_RTCEx_TimeStampEventCallback
C:\Users\carlos\AppData\Local\Temp\ccaMGGVT.s:605    .text.HAL_RTCEx_TimeStampIRQHandler:00000000 $t
C:\Users\carlos\AppData\Local\Temp\ccaMGGVT.s:612    .text.HAL_RTCEx_TimeStampIRQHandler:00000000 HAL_RTCEx_TimeStampIRQHandler
C:\Users\carlos\AppData\Local\Temp\ccaMGGVT.s:654    .text.HAL_RTCEx_TimeStampIRQHandler:00000024 $d
C:\Users\carlos\AppData\Local\Temp\ccaMGGVT.s:659    .text.HAL_RTCEx_PollForTimeStampEvent:00000000 $t
C:\Users\carlos\AppData\Local\Temp\ccaMGGVT.s:666    .text.HAL_RTCEx_PollForTimeStampEvent:00000000 HAL_RTCEx_PollForTimeStampEvent
C:\Users\carlos\AppData\Local\Temp\ccaMGGVT.s:759    .text.HAL_RTCEx_PollForTimeStampEvent:00000058 $d
C:\Users\carlos\AppData\Local\Temp\ccaMGGVT.s:764    .text.HAL_RTCEx_SetWakeUpTimer:00000000 $t
C:\Users\carlos\AppData\Local\Temp\ccaMGGVT.s:771    .text.HAL_RTCEx_SetWakeUpTimer:00000000 HAL_RTCEx_SetWakeUpTimer
C:\Users\carlos\AppData\Local\Temp\ccaMGGVT.s:918    .text.HAL_RTCEx_SetWakeUpTimer:00000094 $d
C:\Users\carlos\AppData\Local\Temp\ccaMGGVT.s:923    .text.HAL_RTCEx_SetWakeUpTimer_IT:00000000 $t
C:\Users\carlos\AppData\Local\Temp\ccaMGGVT.s:930    .text.HAL_RTCEx_SetWakeUpTimer_IT:00000000 HAL_RTCEx_SetWakeUpTimer_IT
C:\Users\carlos\AppData\Local\Temp\ccaMGGVT.s:1105   .text.HAL_RTCEx_SetWakeUpTimer_IT:000000c8 $d
C:\Users\carlos\AppData\Local\Temp\ccaMGGVT.s:1111   .text.HAL_RTCEx_DeactivateWakeUpTimer:00000000 $t
C:\Users\carlos\AppData\Local\Temp\ccaMGGVT.s:1118   .text.HAL_RTCEx_DeactivateWakeUpTimer:00000000 HAL_RTCEx_DeactivateWakeUpTimer
C:\Users\carlos\AppData\Local\Temp\ccaMGGVT.s:1235   .text.HAL_RTCEx_DeactivateWakeUpTimer:00000074 $d
C:\Users\carlos\AppData\Local\Temp\ccaMGGVT.s:1240   .text.HAL_RTCEx_GetWakeUpTimer:00000000 $t
C:\Users\carlos\AppData\Local\Temp\ccaMGGVT.s:1247   .text.HAL_RTCEx_GetWakeUpTimer:00000000 HAL_RTCEx_GetWakeUpTimer
C:\Users\carlos\AppData\Local\Temp\ccaMGGVT.s:1267   .text.HAL_RTCEx_GetWakeUpTimer:00000008 $d
C:\Users\carlos\AppData\Local\Temp\ccaMGGVT.s:1272   .text.HAL_RTCEx_WakeUpTimerEventCallback:00000000 $t
C:\Users\carlos\AppData\Local\Temp\ccaMGGVT.s:1279   .text.HAL_RTCEx_WakeUpTimerEventCallback:00000000 HAL_RTCEx_WakeUpTimerEventCallback
C:\Users\carlos\AppData\Local\Temp\ccaMGGVT.s:1294   .text.HAL_RTCEx_WakeUpTimerIRQHandler:00000000 $t
C:\Users\carlos\AppData\Local\Temp\ccaMGGVT.s:1301   .text.HAL_RTCEx_WakeUpTimerIRQHandler:00000000 HAL_RTCEx_WakeUpTimerIRQHandler
C:\Users\carlos\AppData\Local\Temp\ccaMGGVT.s:1344   .text.HAL_RTCEx_WakeUpTimerIRQHandler:00000024 $d
C:\Users\carlos\AppData\Local\Temp\ccaMGGVT.s:1349   .text.HAL_RTCEx_PollForWakeUpTimerEvent:00000000 $t
C:\Users\carlos\AppData\Local\Temp\ccaMGGVT.s:1356   .text.HAL_RTCEx_PollForWakeUpTimerEvent:00000000 HAL_RTCEx_PollForWakeUpTimerEvent
C:\Users\carlos\AppData\Local\Temp\ccaMGGVT.s:1433   .text.HAL_RTCEx_PollForWakeUpTimerEvent:00000044 $d
C:\Users\carlos\AppData\Local\Temp\ccaMGGVT.s:1438   .text.HAL_RTCEx_SetSmoothCalib:00000000 $t
C:\Users\carlos\AppData\Local\Temp\ccaMGGVT.s:1445   .text.HAL_RTCEx_SetSmoothCalib:00000000 HAL_RTCEx_SetSmoothCalib
C:\Users\carlos\AppData\Local\Temp\ccaMGGVT.s:1591   .text.HAL_RTCEx_SetSmoothCalib:00000090 $d
C:\Users\carlos\AppData\Local\Temp\ccaMGGVT.s:1596   .text.HAL_RTCEx_SetLowPowerCalib:00000000 $t
C:\Users\carlos\AppData\Local\Temp\ccaMGGVT.s:1603   .text.HAL_RTCEx_SetLowPowerCalib:00000000 HAL_RTCEx_SetLowPowerCalib
C:\Users\carlos\AppData\Local\Temp\ccaMGGVT.s:1670   .text.HAL_RTCEx_SetLowPowerCalib:00000040 $d
C:\Users\carlos\AppData\Local\Temp\ccaMGGVT.s:1675   .text.HAL_RTCEx_SetSynchroShift:00000000 $t
C:\Users\carlos\AppData\Local\Temp\ccaMGGVT.s:1682   .text.HAL_RTCEx_SetSynchroShift:00000000 HAL_RTCEx_SetSynchroShift
C:\Users\carlos\AppData\Local\Temp\ccaMGGVT.s:1877   .text.HAL_RTCEx_SetSynchroShift:000000c8 $d
ARM GAS  C:\Users\carlos\AppData\Local\Temp\ccaMGGVT.s 			page 140


C:\Users\carlos\AppData\Local\Temp\ccaMGGVT.s:1882   .text.HAL_RTCEx_SetCalibrationOutPut:00000000 $t
C:\Users\carlos\AppData\Local\Temp\ccaMGGVT.s:1889   .text.HAL_RTCEx_SetCalibrationOutPut:00000000 HAL_RTCEx_SetCalibrationOutPut
C:\Users\carlos\AppData\Local\Temp\ccaMGGVT.s:1960   .text.HAL_RTCEx_SetCalibrationOutPut:00000048 $d
C:\Users\carlos\AppData\Local\Temp\ccaMGGVT.s:1965   .text.HAL_RTCEx_DeactivateCalibrationOutPut:00000000 $t
C:\Users\carlos\AppData\Local\Temp\ccaMGGVT.s:1972   .text.HAL_RTCEx_DeactivateCalibrationOutPut:00000000 HAL_RTCEx_DeactivateCalibrationOutPut
C:\Users\carlos\AppData\Local\Temp\ccaMGGVT.s:2035   .text.HAL_RTCEx_DeactivateCalibrationOutPut:0000003c $d
C:\Users\carlos\AppData\Local\Temp\ccaMGGVT.s:2040   .text.HAL_RTCEx_SetRefClock:00000000 $t
C:\Users\carlos\AppData\Local\Temp\ccaMGGVT.s:2047   .text.HAL_RTCEx_SetRefClock:00000000 HAL_RTCEx_SetRefClock
C:\Users\carlos\AppData\Local\Temp\ccaMGGVT.s:2144   .text.HAL_RTCEx_SetRefClock:00000054 $d
C:\Users\carlos\AppData\Local\Temp\ccaMGGVT.s:2149   .text.HAL_RTCEx_DeactivateRefClock:00000000 $t
C:\Users\carlos\AppData\Local\Temp\ccaMGGVT.s:2156   .text.HAL_RTCEx_DeactivateRefClock:00000000 HAL_RTCEx_DeactivateRefClock
C:\Users\carlos\AppData\Local\Temp\ccaMGGVT.s:2253   .text.HAL_RTCEx_DeactivateRefClock:00000054 $d
C:\Users\carlos\AppData\Local\Temp\ccaMGGVT.s:2258   .text.HAL_RTCEx_EnableBypassShadow:00000000 $t
C:\Users\carlos\AppData\Local\Temp\ccaMGGVT.s:2265   .text.HAL_RTCEx_EnableBypassShadow:00000000 HAL_RTCEx_EnableBypassShadow
C:\Users\carlos\AppData\Local\Temp\ccaMGGVT.s:2328   .text.HAL_RTCEx_EnableBypassShadow:0000003c $d
C:\Users\carlos\AppData\Local\Temp\ccaMGGVT.s:2333   .text.HAL_RTCEx_DisableBypassShadow:00000000 $t
C:\Users\carlos\AppData\Local\Temp\ccaMGGVT.s:2340   .text.HAL_RTCEx_DisableBypassShadow:00000000 HAL_RTCEx_DisableBypassShadow
C:\Users\carlos\AppData\Local\Temp\ccaMGGVT.s:2403   .text.HAL_RTCEx_DisableBypassShadow:0000003c $d
C:\Users\carlos\AppData\Local\Temp\ccaMGGVT.s:2408   .text.HAL_RTCEx_MonotonicCounterIncrement:00000000 $t
C:\Users\carlos\AppData\Local\Temp\ccaMGGVT.s:2415   .text.HAL_RTCEx_MonotonicCounterIncrement:00000000 HAL_RTCEx_MonotonicCounterIncrement
C:\Users\carlos\AppData\Local\Temp\ccaMGGVT.s:2437   .text.HAL_RTCEx_MonotonicCounterIncrement:00000008 $d
C:\Users\carlos\AppData\Local\Temp\ccaMGGVT.s:2442   .text.HAL_RTCEx_MonotonicCounterGet:00000000 $t
C:\Users\carlos\AppData\Local\Temp\ccaMGGVT.s:2449   .text.HAL_RTCEx_MonotonicCounterGet:00000000 HAL_RTCEx_MonotonicCounterGet
C:\Users\carlos\AppData\Local\Temp\ccaMGGVT.s:2474   .text.HAL_RTCEx_MonotonicCounterGet:0000000c $d
C:\Users\carlos\AppData\Local\Temp\ccaMGGVT.s:2479   .text.HAL_RTCEx_AlarmBEventCallback:00000000 $t
C:\Users\carlos\AppData\Local\Temp\ccaMGGVT.s:2486   .text.HAL_RTCEx_AlarmBEventCallback:00000000 HAL_RTCEx_AlarmBEventCallback
C:\Users\carlos\AppData\Local\Temp\ccaMGGVT.s:2501   .text.HAL_RTCEx_PollForAlarmBEvent:00000000 $t
C:\Users\carlos\AppData\Local\Temp\ccaMGGVT.s:2508   .text.HAL_RTCEx_PollForAlarmBEvent:00000000 HAL_RTCEx_PollForAlarmBEvent
C:\Users\carlos\AppData\Local\Temp\ccaMGGVT.s:2585   .text.HAL_RTCEx_PollForAlarmBEvent:00000044 $d
C:\Users\carlos\AppData\Local\Temp\ccaMGGVT.s:2590   .text.HAL_RTCEx_SetTamper:00000000 $t
C:\Users\carlos\AppData\Local\Temp\ccaMGGVT.s:2597   .text.HAL_RTCEx_SetTamper:00000000 HAL_RTCEx_SetTamper
C:\Users\carlos\AppData\Local\Temp\ccaMGGVT.s:2738   .text.HAL_RTCEx_SetTamper:00000084 $d
C:\Users\carlos\AppData\Local\Temp\ccaMGGVT.s:2744   .text.HAL_RTCEx_SetTamper_IT:00000000 $t
C:\Users\carlos\AppData\Local\Temp\ccaMGGVT.s:2751   .text.HAL_RTCEx_SetTamper_IT:00000000 HAL_RTCEx_SetTamper_IT
C:\Users\carlos\AppData\Local\Temp\ccaMGGVT.s:2887   .text.HAL_RTCEx_SetTamper_IT:0000008c $d
C:\Users\carlos\AppData\Local\Temp\ccaMGGVT.s:2894   .text.HAL_RTCEx_DeactivateTamper:00000000 $t
C:\Users\carlos\AppData\Local\Temp\ccaMGGVT.s:2901   .text.HAL_RTCEx_DeactivateTamper:00000000 HAL_RTCEx_DeactivateTamper
C:\Users\carlos\AppData\Local\Temp\ccaMGGVT.s:2938   .text.HAL_RTCEx_DeactivateTamper:00000028 $d
C:\Users\carlos\AppData\Local\Temp\ccaMGGVT.s:2943   .text.HAL_RTCEx_SetActiveSeed:00000000 $t
C:\Users\carlos\AppData\Local\Temp\ccaMGGVT.s:2950   .text.HAL_RTCEx_SetActiveSeed:00000000 HAL_RTCEx_SetActiveSeed
C:\Users\carlos\AppData\Local\Temp\ccaMGGVT.s:3040   .text.HAL_RTCEx_SetActiveSeed:0000004c $d
C:\Users\carlos\AppData\Local\Temp\ccaMGGVT.s:3045   .text.HAL_RTCEx_DeactivateActiveTampers:00000000 $t
C:\Users\carlos\AppData\Local\Temp\ccaMGGVT.s:3052   .text.HAL_RTCEx_DeactivateActiveTampers:00000000 HAL_RTCEx_DeactivateActiveTampers
C:\Users\carlos\AppData\Local\Temp\ccaMGGVT.s:3105   .text.HAL_RTCEx_DeactivateActiveTampers:0000003c $d
C:\Users\carlos\AppData\Local\Temp\ccaMGGVT.s:3111   .text.HAL_RTCEx_SetActiveTampers:00000000 $t
C:\Users\carlos\AppData\Local\Temp\ccaMGGVT.s:3118   .text.HAL_RTCEx_SetActiveTampers:00000000 HAL_RTCEx_SetActiveTampers
C:\Users\carlos\AppData\Local\Temp\ccaMGGVT.s:3403   .text.HAL_RTCEx_SetActiveTampers:00000138 $d
C:\Users\carlos\AppData\Local\Temp\ccaMGGVT.s:3410   .text.HAL_RTCEx_PollForTamperEvent:00000000 $t
C:\Users\carlos\AppData\Local\Temp\ccaMGGVT.s:3417   .text.HAL_RTCEx_PollForTamperEvent:00000000 HAL_RTCEx_PollForTamperEvent
C:\Users\carlos\AppData\Local\Temp\ccaMGGVT.s:3489   .text.HAL_RTCEx_PollForTamperEvent:0000003c $d
C:\Users\carlos\AppData\Local\Temp\ccaMGGVT.s:3494   .text.HAL_RTCEx_SetInternalTamper:00000000 $t
C:\Users\carlos\AppData\Local\Temp\ccaMGGVT.s:3501   .text.HAL_RTCEx_SetInternalTamper:00000000 HAL_RTCEx_SetInternalTamper
C:\Users\carlos\AppData\Local\Temp\ccaMGGVT.s:3573   .text.HAL_RTCEx_SetInternalTamper:00000044 $d
C:\Users\carlos\AppData\Local\Temp\ccaMGGVT.s:3579   .text.HAL_RTCEx_SetInternalTamper_IT:00000000 $t
C:\Users\carlos\AppData\Local\Temp\ccaMGGVT.s:3586   .text.HAL_RTCEx_SetInternalTamper_IT:00000000 HAL_RTCEx_SetInternalTamper_IT
C:\Users\carlos\AppData\Local\Temp\ccaMGGVT.s:3668   .text.HAL_RTCEx_SetInternalTamper_IT:0000005c $d
C:\Users\carlos\AppData\Local\Temp\ccaMGGVT.s:3675   .text.HAL_RTCEx_DeactivateInternalTamper:00000000 $t
ARM GAS  C:\Users\carlos\AppData\Local\Temp\ccaMGGVT.s 			page 141


C:\Users\carlos\AppData\Local\Temp\ccaMGGVT.s:3682   .text.HAL_RTCEx_DeactivateInternalTamper:00000000 HAL_RTCEx_DeactivateInternalTamper
C:\Users\carlos\AppData\Local\Temp\ccaMGGVT.s:3712   .text.HAL_RTCEx_DeactivateInternalTamper:00000018 $d
C:\Users\carlos\AppData\Local\Temp\ccaMGGVT.s:3717   .text.HAL_RTCEx_PollForInternalTamperEvent:00000000 $t
C:\Users\carlos\AppData\Local\Temp\ccaMGGVT.s:3724   .text.HAL_RTCEx_PollForInternalTamperEvent:00000000 HAL_RTCEx_PollForInternalTamperEvent
C:\Users\carlos\AppData\Local\Temp\ccaMGGVT.s:3796   .text.HAL_RTCEx_PollForInternalTamperEvent:0000003c $d
C:\Users\carlos\AppData\Local\Temp\ccaMGGVT.s:3801   .text.HAL_RTCEx_Tamper1EventCallback:00000000 $t
C:\Users\carlos\AppData\Local\Temp\ccaMGGVT.s:3808   .text.HAL_RTCEx_Tamper1EventCallback:00000000 HAL_RTCEx_Tamper1EventCallback
C:\Users\carlos\AppData\Local\Temp\ccaMGGVT.s:3823   .text.HAL_RTCEx_Tamper2EventCallback:00000000 $t
C:\Users\carlos\AppData\Local\Temp\ccaMGGVT.s:3830   .text.HAL_RTCEx_Tamper2EventCallback:00000000 HAL_RTCEx_Tamper2EventCallback
C:\Users\carlos\AppData\Local\Temp\ccaMGGVT.s:3845   .text.HAL_RTCEx_Tamper3EventCallback:00000000 $t
C:\Users\carlos\AppData\Local\Temp\ccaMGGVT.s:3852   .text.HAL_RTCEx_Tamper3EventCallback:00000000 HAL_RTCEx_Tamper3EventCallback
C:\Users\carlos\AppData\Local\Temp\ccaMGGVT.s:3867   .text.HAL_RTCEx_Tamper4EventCallback:00000000 $t
C:\Users\carlos\AppData\Local\Temp\ccaMGGVT.s:3874   .text.HAL_RTCEx_Tamper4EventCallback:00000000 HAL_RTCEx_Tamper4EventCallback
C:\Users\carlos\AppData\Local\Temp\ccaMGGVT.s:3889   .text.HAL_RTCEx_Tamper5EventCallback:00000000 $t
C:\Users\carlos\AppData\Local\Temp\ccaMGGVT.s:3896   .text.HAL_RTCEx_Tamper5EventCallback:00000000 HAL_RTCEx_Tamper5EventCallback
C:\Users\carlos\AppData\Local\Temp\ccaMGGVT.s:3911   .text.HAL_RTCEx_Tamper6EventCallback:00000000 $t
C:\Users\carlos\AppData\Local\Temp\ccaMGGVT.s:3918   .text.HAL_RTCEx_Tamper6EventCallback:00000000 HAL_RTCEx_Tamper6EventCallback
C:\Users\carlos\AppData\Local\Temp\ccaMGGVT.s:3933   .text.HAL_RTCEx_Tamper7EventCallback:00000000 $t
C:\Users\carlos\AppData\Local\Temp\ccaMGGVT.s:3940   .text.HAL_RTCEx_Tamper7EventCallback:00000000 HAL_RTCEx_Tamper7EventCallback
C:\Users\carlos\AppData\Local\Temp\ccaMGGVT.s:3955   .text.HAL_RTCEx_Tamper8EventCallback:00000000 $t
C:\Users\carlos\AppData\Local\Temp\ccaMGGVT.s:3962   .text.HAL_RTCEx_Tamper8EventCallback:00000000 HAL_RTCEx_Tamper8EventCallback
C:\Users\carlos\AppData\Local\Temp\ccaMGGVT.s:3977   .text.HAL_RTCEx_InternalTamper1EventCallback:00000000 $t
C:\Users\carlos\AppData\Local\Temp\ccaMGGVT.s:3984   .text.HAL_RTCEx_InternalTamper1EventCallback:00000000 HAL_RTCEx_InternalTamper1EventCallback
C:\Users\carlos\AppData\Local\Temp\ccaMGGVT.s:3999   .text.HAL_RTCEx_InternalTamper2EventCallback:00000000 $t
C:\Users\carlos\AppData\Local\Temp\ccaMGGVT.s:4006   .text.HAL_RTCEx_InternalTamper2EventCallback:00000000 HAL_RTCEx_InternalTamper2EventCallback
C:\Users\carlos\AppData\Local\Temp\ccaMGGVT.s:4021   .text.HAL_RTCEx_InternalTamper3EventCallback:00000000 $t
C:\Users\carlos\AppData\Local\Temp\ccaMGGVT.s:4028   .text.HAL_RTCEx_InternalTamper3EventCallback:00000000 HAL_RTCEx_InternalTamper3EventCallback
C:\Users\carlos\AppData\Local\Temp\ccaMGGVT.s:4043   .text.HAL_RTCEx_InternalTamper5EventCallback:00000000 $t
C:\Users\carlos\AppData\Local\Temp\ccaMGGVT.s:4050   .text.HAL_RTCEx_InternalTamper5EventCallback:00000000 HAL_RTCEx_InternalTamper5EventCallback
C:\Users\carlos\AppData\Local\Temp\ccaMGGVT.s:4065   .text.HAL_RTCEx_InternalTamper8EventCallback:00000000 $t
C:\Users\carlos\AppData\Local\Temp\ccaMGGVT.s:4072   .text.HAL_RTCEx_InternalTamper8EventCallback:00000000 HAL_RTCEx_InternalTamper8EventCallback
C:\Users\carlos\AppData\Local\Temp\ccaMGGVT.s:4087   .text.HAL_RTCEx_TamperIRQHandler:00000000 $t
C:\Users\carlos\AppData\Local\Temp\ccaMGGVT.s:4094   .text.HAL_RTCEx_TamperIRQHandler:00000000 HAL_RTCEx_TamperIRQHandler
C:\Users\carlos\AppData\Local\Temp\ccaMGGVT.s:4269   .text.HAL_RTCEx_TamperIRQHandler:000000c0 $d
C:\Users\carlos\AppData\Local\Temp\ccaMGGVT.s:4274   .text.HAL_RTCEx_EnableTemperatureMonitoring:00000000 $t
C:\Users\carlos\AppData\Local\Temp\ccaMGGVT.s:4281   .text.HAL_RTCEx_EnableTemperatureMonitoring:00000000 HAL_RTCEx_EnableTemperatureMonitoring
C:\Users\carlos\AppData\Local\Temp\ccaMGGVT.s:4300   .text.HAL_RTCEx_EnableTemperatureMonitoring:0000000c $d
C:\Users\carlos\AppData\Local\Temp\ccaMGGVT.s:4305   .text.HAL_RTCEx_DisableTemperatureMonitoring:00000000 $t
C:\Users\carlos\AppData\Local\Temp\ccaMGGVT.s:4312   .text.HAL_RTCEx_DisableTemperatureMonitoring:00000000 HAL_RTCEx_DisableTemperatureMonitoring
C:\Users\carlos\AppData\Local\Temp\ccaMGGVT.s:4331   .text.HAL_RTCEx_DisableTemperatureMonitoring:0000000c $d
C:\Users\carlos\AppData\Local\Temp\ccaMGGVT.s:4336   .text.HAL_RTCEx_EnableVoltageMonitoring:00000000 $t
C:\Users\carlos\AppData\Local\Temp\ccaMGGVT.s:4343   .text.HAL_RTCEx_EnableVoltageMonitoring:00000000 HAL_RTCEx_EnableVoltageMonitoring
C:\Users\carlos\AppData\Local\Temp\ccaMGGVT.s:4362   .text.HAL_RTCEx_EnableVoltageMonitoring:0000000c $d
C:\Users\carlos\AppData\Local\Temp\ccaMGGVT.s:4367   .text.HAL_RTCEx_DisableVoltageMonitoring:00000000 $t
C:\Users\carlos\AppData\Local\Temp\ccaMGGVT.s:4374   .text.HAL_RTCEx_DisableVoltageMonitoring:00000000 HAL_RTCEx_DisableVoltageMonitoring
C:\Users\carlos\AppData\Local\Temp\ccaMGGVT.s:4393   .text.HAL_RTCEx_DisableVoltageMonitoring:0000000c $d
C:\Users\carlos\AppData\Local\Temp\ccaMGGVT.s:4398   .text.HAL_RTCEx_EnableWUTMonitoring:00000000 $t
C:\Users\carlos\AppData\Local\Temp\ccaMGGVT.s:4405   .text.HAL_RTCEx_EnableWUTMonitoring:00000000 HAL_RTCEx_EnableWUTMonitoring
C:\Users\carlos\AppData\Local\Temp\ccaMGGVT.s:4424   .text.HAL_RTCEx_EnableWUTMonitoring:0000000c $d
C:\Users\carlos\AppData\Local\Temp\ccaMGGVT.s:4429   .text.HAL_RTCEx_DisableWUTMonitoring:00000000 $t
C:\Users\carlos\AppData\Local\Temp\ccaMGGVT.s:4436   .text.HAL_RTCEx_DisableWUTMonitoring:00000000 HAL_RTCEx_DisableWUTMonitoring
C:\Users\carlos\AppData\Local\Temp\ccaMGGVT.s:4455   .text.HAL_RTCEx_DisableWUTMonitoring:0000000c $d
C:\Users\carlos\AppData\Local\Temp\ccaMGGVT.s:4460   .text.HAL_RTCEx_BKUPWrite:00000000 $t
C:\Users\carlos\AppData\Local\Temp\ccaMGGVT.s:4467   .text.HAL_RTCEx_BKUPWrite:00000000 HAL_RTCEx_BKUPWrite
C:\Users\carlos\AppData\Local\Temp\ccaMGGVT.s:4496   .text.HAL_RTCEx_BKUPRead:00000000 $t
C:\Users\carlos\AppData\Local\Temp\ccaMGGVT.s:4503   .text.HAL_RTCEx_BKUPRead:00000000 HAL_RTCEx_BKUPRead
C:\Users\carlos\AppData\Local\Temp\ccaMGGVT.s:4533   .text.HAL_RTCEx_SecureModeGet:00000000 $t
ARM GAS  C:\Users\carlos\AppData\Local\Temp\ccaMGGVT.s 			page 142


C:\Users\carlos\AppData\Local\Temp\ccaMGGVT.s:4540   .text.HAL_RTCEx_SecureModeGet:00000000 HAL_RTCEx_SecureModeGet
C:\Users\carlos\AppData\Local\Temp\ccaMGGVT.s:4598   .text.HAL_RTCEx_SecureModeGet:00000034 $d
C:\Users\carlos\AppData\Local\Temp\ccaMGGVT.s:4603   .text.HAL_RTCEx_SecureModeSet:00000000 $t
C:\Users\carlos\AppData\Local\Temp\ccaMGGVT.s:4610   .text.HAL_RTCEx_SecureModeSet:00000000 HAL_RTCEx_SecureModeSet
C:\Users\carlos\AppData\Local\Temp\ccaMGGVT.s:4649   .text.HAL_RTCEx_SecureModeSet:00000024 $d
C:\Users\carlos\AppData\Local\Temp\ccaMGGVT.s:4655   .text.HAL_RTCEx_PrivilegeModeSet:00000000 $t
C:\Users\carlos\AppData\Local\Temp\ccaMGGVT.s:4662   .text.HAL_RTCEx_PrivilegeModeSet:00000000 HAL_RTCEx_PrivilegeModeSet
C:\Users\carlos\AppData\Local\Temp\ccaMGGVT.s:4708   .text.HAL_RTCEx_PrivilegeModeSet:0000002c $d
C:\Users\carlos\AppData\Local\Temp\ccaMGGVT.s:4714   .text.HAL_RTCEx_PrivilegeModeGet:00000000 $t
C:\Users\carlos\AppData\Local\Temp\ccaMGGVT.s:4721   .text.HAL_RTCEx_PrivilegeModeGet:00000000 HAL_RTCEx_PrivilegeModeGet
C:\Users\carlos\AppData\Local\Temp\ccaMGGVT.s:4797   .text.HAL_RTCEx_PrivilegeModeGet:00000040 $d

UNDEFINED SYMBOLS
RTC_Bcd2ToByte
HAL_GetTick
HAL_RTC_WaitForSynchro
RTC_EnterInitMode
RTC_ExitInitMode
