ARM GAS  C:\Users\carlos\AppData\Local\Temp\ccENU8bg.s 			page 1


   1              		.cpu cortex-m33
   2              		.eabi_attribute 27, 1
   3              		.eabi_attribute 28, 1
   4              		.eabi_attribute 20, 1
   5              		.eabi_attribute 21, 1
   6              		.eabi_attribute 23, 3
   7              		.eabi_attribute 24, 1
   8              		.eabi_attribute 25, 1
   9              		.eabi_attribute 26, 1
  10              		.eabi_attribute 30, 1
  11              		.eabi_attribute 34, 1
  12              		.eabi_attribute 18, 4
  13              		.file	"stm32l5xx_hal_gtzc.c"
  14              		.text
  15              	.Ltext0:
  16              		.cfi_sections	.debug_frame
  17              		.section	.text.HAL_GTZC_TZSC_ConfigPeriphAttributes,"ax",%progbits
  18              		.align	1
  19              		.global	HAL_GTZC_TZSC_ConfigPeriphAttributes
  20              		.arch armv8-m.main
  21              		.arch_extension dsp
  22              		.syntax unified
  23              		.thumb
  24              		.thumb_func
  25              		.fpu fpv4-sp-d16
  27              	HAL_GTZC_TZSC_ConfigPeriphAttributes:
  28              	.LVL0:
  29              	.LFB202:
  30              		.file 1 "../../Drivers/STM32L5xx_HAL_Driver/Src/stm32l5xx_hal_gtzc.c"
   1:../../Drivers/STM32L5xx_HAL_Driver/Src/stm32l5xx_hal_gtzc.c **** /**
   2:../../Drivers/STM32L5xx_HAL_Driver/Src/stm32l5xx_hal_gtzc.c ****   ******************************************************************************
   3:../../Drivers/STM32L5xx_HAL_Driver/Src/stm32l5xx_hal_gtzc.c ****   * @file    stm32l5xx_hal_gtzc.c
   4:../../Drivers/STM32L5xx_HAL_Driver/Src/stm32l5xx_hal_gtzc.c ****   * @author  MCD Application Team
   5:../../Drivers/STM32L5xx_HAL_Driver/Src/stm32l5xx_hal_gtzc.c ****   * @brief   GTZC HAL module driver.
   6:../../Drivers/STM32L5xx_HAL_Driver/Src/stm32l5xx_hal_gtzc.c ****   *          This file provides firmware functions to manage the following
   7:../../Drivers/STM32L5xx_HAL_Driver/Src/stm32l5xx_hal_gtzc.c ****   *          functionalities of GTZC peripheral:
   8:../../Drivers/STM32L5xx_HAL_Driver/Src/stm32l5xx_hal_gtzc.c ****   *           + TZSC Initialization and Configuration functions
   9:../../Drivers/STM32L5xx_HAL_Driver/Src/stm32l5xx_hal_gtzc.c ****   *           + TZSC-MPCWM Initialization and Configuration functions
  10:../../Drivers/STM32L5xx_HAL_Driver/Src/stm32l5xx_hal_gtzc.c ****   *           + MPCBB Initialization and Configuration functions
  11:../../Drivers/STM32L5xx_HAL_Driver/Src/stm32l5xx_hal_gtzc.c ****   *           + TZSC, TZSC-MPCWM and MPCBB Lock functions
  12:../../Drivers/STM32L5xx_HAL_Driver/Src/stm32l5xx_hal_gtzc.c ****   *           + TZIC Initialization and Configuration functions
  13:../../Drivers/STM32L5xx_HAL_Driver/Src/stm32l5xx_hal_gtzc.c ****   *
  14:../../Drivers/STM32L5xx_HAL_Driver/Src/stm32l5xx_hal_gtzc.c ****   ******************************************************************************
  15:../../Drivers/STM32L5xx_HAL_Driver/Src/stm32l5xx_hal_gtzc.c ****   * @attention
  16:../../Drivers/STM32L5xx_HAL_Driver/Src/stm32l5xx_hal_gtzc.c ****   *
  17:../../Drivers/STM32L5xx_HAL_Driver/Src/stm32l5xx_hal_gtzc.c ****   * Copyright (c) 2019 STMicroelectronics.
  18:../../Drivers/STM32L5xx_HAL_Driver/Src/stm32l5xx_hal_gtzc.c ****   * All rights reserved.
  19:../../Drivers/STM32L5xx_HAL_Driver/Src/stm32l5xx_hal_gtzc.c ****   *
  20:../../Drivers/STM32L5xx_HAL_Driver/Src/stm32l5xx_hal_gtzc.c ****   * This software is licensed under terms that can be found in the LICENSE file
  21:../../Drivers/STM32L5xx_HAL_Driver/Src/stm32l5xx_hal_gtzc.c ****   * in the root directory of this software component.
  22:../../Drivers/STM32L5xx_HAL_Driver/Src/stm32l5xx_hal_gtzc.c ****   * If no LICENSE file comes with this software, it is provided AS-IS.
  23:../../Drivers/STM32L5xx_HAL_Driver/Src/stm32l5xx_hal_gtzc.c ****   *
  24:../../Drivers/STM32L5xx_HAL_Driver/Src/stm32l5xx_hal_gtzc.c ****   ******************************************************************************
  25:../../Drivers/STM32L5xx_HAL_Driver/Src/stm32l5xx_hal_gtzc.c ****   @verbatim
  26:../../Drivers/STM32L5xx_HAL_Driver/Src/stm32l5xx_hal_gtzc.c ****   ==============================================================================
  27:../../Drivers/STM32L5xx_HAL_Driver/Src/stm32l5xx_hal_gtzc.c ****                 ##### GTZC main features #####
  28:../../Drivers/STM32L5xx_HAL_Driver/Src/stm32l5xx_hal_gtzc.c ****   ==============================================================================
ARM GAS  C:\Users\carlos\AppData\Local\Temp\ccENU8bg.s 			page 2


  29:../../Drivers/STM32L5xx_HAL_Driver/Src/stm32l5xx_hal_gtzc.c ****   [..]
  30:../../Drivers/STM32L5xx_HAL_Driver/Src/stm32l5xx_hal_gtzc.c ****     (+) Global TrustZone Controller (GTZC) composed of three sub-blocks:
  31:../../Drivers/STM32L5xx_HAL_Driver/Src/stm32l5xx_hal_gtzc.c ****       (++) TZSC: TrustZone security controller
  32:../../Drivers/STM32L5xx_HAL_Driver/Src/stm32l5xx_hal_gtzc.c ****             This sub-block defines the secure/privileged state of master and slave
  33:../../Drivers/STM32L5xx_HAL_Driver/Src/stm32l5xx_hal_gtzc.c ****             peripherals. It also controls the secure state of subregions
  34:../../Drivers/STM32L5xx_HAL_Driver/Src/stm32l5xx_hal_gtzc.c ****             for the watermark memory peripheral controller (MPCWM).
  35:../../Drivers/STM32L5xx_HAL_Driver/Src/stm32l5xx_hal_gtzc.c ****       (++) MPCBB: Block-Based memory protection controller
  36:../../Drivers/STM32L5xx_HAL_Driver/Src/stm32l5xx_hal_gtzc.c ****             This sub-block defines the secure state of all blocks
  37:../../Drivers/STM32L5xx_HAL_Driver/Src/stm32l5xx_hal_gtzc.c ****             (256-byte pages) of the associated SRAM.
  38:../../Drivers/STM32L5xx_HAL_Driver/Src/stm32l5xx_hal_gtzc.c ****       (++) TZIC: TrustZone illegal access controller
  39:../../Drivers/STM32L5xx_HAL_Driver/Src/stm32l5xx_hal_gtzc.c ****             This sub-block gathers all illegal access events in the system and
  40:../../Drivers/STM32L5xx_HAL_Driver/Src/stm32l5xx_hal_gtzc.c ****             generates a secure interrupt towards NVIC.
  41:../../Drivers/STM32L5xx_HAL_Driver/Src/stm32l5xx_hal_gtzc.c **** 
  42:../../Drivers/STM32L5xx_HAL_Driver/Src/stm32l5xx_hal_gtzc.c ****     (+) These sub-blocks are used to configure TrustZone system security in
  43:../../Drivers/STM32L5xx_HAL_Driver/Src/stm32l5xx_hal_gtzc.c ****         a product having bus agents with programmable-security and privileged
  44:../../Drivers/STM32L5xx_HAL_Driver/Src/stm32l5xx_hal_gtzc.c ****         attributes (securable) such as:
  45:../../Drivers/STM32L5xx_HAL_Driver/Src/stm32l5xx_hal_gtzc.c ****       (++) on-chip RAM with programmable secure blocks (pages)
  46:../../Drivers/STM32L5xx_HAL_Driver/Src/stm32l5xx_hal_gtzc.c ****       (++) AHB and APB peripherals with programmable security and/or privilege access
  47:../../Drivers/STM32L5xx_HAL_Driver/Src/stm32l5xx_hal_gtzc.c ****       (++) AHB master granted as secure and/or privilege
  48:../../Drivers/STM32L5xx_HAL_Driver/Src/stm32l5xx_hal_gtzc.c ****       (++) off-chip memories with secure areas
  49:../../Drivers/STM32L5xx_HAL_Driver/Src/stm32l5xx_hal_gtzc.c **** 
  50:../../Drivers/STM32L5xx_HAL_Driver/Src/stm32l5xx_hal_gtzc.c ****   [..]
  51:../../Drivers/STM32L5xx_HAL_Driver/Src/stm32l5xx_hal_gtzc.c ****     (+) TZIC accessible only with secure privileged transactions.
  52:../../Drivers/STM32L5xx_HAL_Driver/Src/stm32l5xx_hal_gtzc.c ****     (+) Secure and non-secure access supported for privileged and unprivileged
  53:../../Drivers/STM32L5xx_HAL_Driver/Src/stm32l5xx_hal_gtzc.c ****         part of TZSC and MPCBB
  54:../../Drivers/STM32L5xx_HAL_Driver/Src/stm32l5xx_hal_gtzc.c **** 
  55:../../Drivers/STM32L5xx_HAL_Driver/Src/stm32l5xx_hal_gtzc.c ****   ==============================================================================
  56:../../Drivers/STM32L5xx_HAL_Driver/Src/stm32l5xx_hal_gtzc.c ****                          ##### How to use this driver #####
  57:../../Drivers/STM32L5xx_HAL_Driver/Src/stm32l5xx_hal_gtzc.c ****   ==============================================================================
  58:../../Drivers/STM32L5xx_HAL_Driver/Src/stm32l5xx_hal_gtzc.c ****   [..]
  59:../../Drivers/STM32L5xx_HAL_Driver/Src/stm32l5xx_hal_gtzc.c ****     The GTZC HAL driver can be used as follows:
  60:../../Drivers/STM32L5xx_HAL_Driver/Src/stm32l5xx_hal_gtzc.c **** 
  61:../../Drivers/STM32L5xx_HAL_Driver/Src/stm32l5xx_hal_gtzc.c ****     (#) Configure or get back securable peripherals attributes using
  62:../../Drivers/STM32L5xx_HAL_Driver/Src/stm32l5xx_hal_gtzc.c ****         HAL_GTZC_TZSC_ConfigPeriphAttributes() / HAL_GTZC_TZSC_GetConfigPeriphAttributes()
  63:../../Drivers/STM32L5xx_HAL_Driver/Src/stm32l5xx_hal_gtzc.c **** 
  64:../../Drivers/STM32L5xx_HAL_Driver/Src/stm32l5xx_hal_gtzc.c ****     (#) Configure or get back MPCWM memories attributes using
  65:../../Drivers/STM32L5xx_HAL_Driver/Src/stm32l5xx_hal_gtzc.c ****         HAL_GTZC_TZSC_MPCWM_ConfigMemAttributes() / HAL_GTZC_TZSC_MPCWM_GetConfigMemAttributes()
  66:../../Drivers/STM32L5xx_HAL_Driver/Src/stm32l5xx_hal_gtzc.c **** 
  67:../../Drivers/STM32L5xx_HAL_Driver/Src/stm32l5xx_hal_gtzc.c ****     (#) Lock TZSC sub-block or get lock status using HAL_GTZC_TZSC_Lock() /
  68:../../Drivers/STM32L5xx_HAL_Driver/Src/stm32l5xx_hal_gtzc.c ****         HAL_GTZC_TZSC_GetLock()
  69:../../Drivers/STM32L5xx_HAL_Driver/Src/stm32l5xx_hal_gtzc.c **** 
  70:../../Drivers/STM32L5xx_HAL_Driver/Src/stm32l5xx_hal_gtzc.c ****     (#) Configure or get back MPCBB memories complete configuration using
  71:../../Drivers/STM32L5xx_HAL_Driver/Src/stm32l5xx_hal_gtzc.c ****         HAL_GTZC_MPCBB_ConfigMem() / HAL_GTZC_MPCBB_GetConfigMem()
  72:../../Drivers/STM32L5xx_HAL_Driver/Src/stm32l5xx_hal_gtzc.c **** 
  73:../../Drivers/STM32L5xx_HAL_Driver/Src/stm32l5xx_hal_gtzc.c ****     (#) Configure or get back MPCBB memories attributes using
  74:../../Drivers/STM32L5xx_HAL_Driver/Src/stm32l5xx_hal_gtzc.c ****         HAL_GTZC_MPCBB_ConfigMemAttributes() / HAL_GTZC_MPCBB_GetConfigMemAttributes()
  75:../../Drivers/STM32L5xx_HAL_Driver/Src/stm32l5xx_hal_gtzc.c **** 
  76:../../Drivers/STM32L5xx_HAL_Driver/Src/stm32l5xx_hal_gtzc.c ****     (#) Lock MPCBB configuration or get lock status using HAL_GTZC_MPCBB_Lock() /
  77:../../Drivers/STM32L5xx_HAL_Driver/Src/stm32l5xx_hal_gtzc.c ****         HAL_GTZC_MPCBB_GetLock()
  78:../../Drivers/STM32L5xx_HAL_Driver/Src/stm32l5xx_hal_gtzc.c **** 
  79:../../Drivers/STM32L5xx_HAL_Driver/Src/stm32l5xx_hal_gtzc.c ****     (#) Lock MPCBB super-blocks or get lock status using HAL_GTZC_MPCBB_LockConfig() /
  80:../../Drivers/STM32L5xx_HAL_Driver/Src/stm32l5xx_hal_gtzc.c ****         HAL_GTZC_MPCBB_GetLockConfig()
  81:../../Drivers/STM32L5xx_HAL_Driver/Src/stm32l5xx_hal_gtzc.c **** 
  82:../../Drivers/STM32L5xx_HAL_Driver/Src/stm32l5xx_hal_gtzc.c ****     (#) Illegal access detection can be configured through TZIC sub-block using
  83:../../Drivers/STM32L5xx_HAL_Driver/Src/stm32l5xx_hal_gtzc.c ****         following functions: HAL_GTZC_TZIC_DisableIT() / HAL_GTZC_TZIC_EnableIT()
  84:../../Drivers/STM32L5xx_HAL_Driver/Src/stm32l5xx_hal_gtzc.c **** 
  85:../../Drivers/STM32L5xx_HAL_Driver/Src/stm32l5xx_hal_gtzc.c ****     (#) Illegal access flags can be retrieved through HAL_GTZC_TZIC_GetFlag() and
ARM GAS  C:\Users\carlos\AppData\Local\Temp\ccENU8bg.s 			page 3


  86:../../Drivers/STM32L5xx_HAL_Driver/Src/stm32l5xx_hal_gtzc.c ****         HAL_GTZC_TZIC_ClearFlag() functions
  87:../../Drivers/STM32L5xx_HAL_Driver/Src/stm32l5xx_hal_gtzc.c **** 
  88:../../Drivers/STM32L5xx_HAL_Driver/Src/stm32l5xx_hal_gtzc.c ****     (#) Illegal access interrupt service routines are served by HAL_GTZC_IRQHandler()
  89:../../Drivers/STM32L5xx_HAL_Driver/Src/stm32l5xx_hal_gtzc.c ****         and user can add his own code using HAL_GTZC_TZIC_Callback()
  90:../../Drivers/STM32L5xx_HAL_Driver/Src/stm32l5xx_hal_gtzc.c **** 
  91:../../Drivers/STM32L5xx_HAL_Driver/Src/stm32l5xx_hal_gtzc.c ****   @endverbatim
  92:../../Drivers/STM32L5xx_HAL_Driver/Src/stm32l5xx_hal_gtzc.c ****   ******************************************************************************
  93:../../Drivers/STM32L5xx_HAL_Driver/Src/stm32l5xx_hal_gtzc.c ****   */
  94:../../Drivers/STM32L5xx_HAL_Driver/Src/stm32l5xx_hal_gtzc.c **** 
  95:../../Drivers/STM32L5xx_HAL_Driver/Src/stm32l5xx_hal_gtzc.c **** /* Includes ------------------------------------------------------------------*/
  96:../../Drivers/STM32L5xx_HAL_Driver/Src/stm32l5xx_hal_gtzc.c **** #include "stm32l5xx_hal.h"
  97:../../Drivers/STM32L5xx_HAL_Driver/Src/stm32l5xx_hal_gtzc.c **** 
  98:../../Drivers/STM32L5xx_HAL_Driver/Src/stm32l5xx_hal_gtzc.c **** /** @addtogroup STM32L5xx_HAL_Driver
  99:../../Drivers/STM32L5xx_HAL_Driver/Src/stm32l5xx_hal_gtzc.c ****   * @{
 100:../../Drivers/STM32L5xx_HAL_Driver/Src/stm32l5xx_hal_gtzc.c ****   */
 101:../../Drivers/STM32L5xx_HAL_Driver/Src/stm32l5xx_hal_gtzc.c **** 
 102:../../Drivers/STM32L5xx_HAL_Driver/Src/stm32l5xx_hal_gtzc.c **** /** @defgroup GTZC GTZC
 103:../../Drivers/STM32L5xx_HAL_Driver/Src/stm32l5xx_hal_gtzc.c ****   * @brief GTZC HAL module driver
 104:../../Drivers/STM32L5xx_HAL_Driver/Src/stm32l5xx_hal_gtzc.c ****   * @{
 105:../../Drivers/STM32L5xx_HAL_Driver/Src/stm32l5xx_hal_gtzc.c ****   */
 106:../../Drivers/STM32L5xx_HAL_Driver/Src/stm32l5xx_hal_gtzc.c **** 
 107:../../Drivers/STM32L5xx_HAL_Driver/Src/stm32l5xx_hal_gtzc.c **** #ifdef HAL_GTZC_MODULE_ENABLED
 108:../../Drivers/STM32L5xx_HAL_Driver/Src/stm32l5xx_hal_gtzc.c **** 
 109:../../Drivers/STM32L5xx_HAL_Driver/Src/stm32l5xx_hal_gtzc.c **** /* Private typedef -----------------------------------------------------------*/
 110:../../Drivers/STM32L5xx_HAL_Driver/Src/stm32l5xx_hal_gtzc.c **** /* Private constants ---------------------------------------------------------*/
 111:../../Drivers/STM32L5xx_HAL_Driver/Src/stm32l5xx_hal_gtzc.c **** 
 112:../../Drivers/STM32L5xx_HAL_Driver/Src/stm32l5xx_hal_gtzc.c **** /** @defgroup GTZC_Private_Constants GTZC Private Constants
 113:../../Drivers/STM32L5xx_HAL_Driver/Src/stm32l5xx_hal_gtzc.c ****   * @{
 114:../../Drivers/STM32L5xx_HAL_Driver/Src/stm32l5xx_hal_gtzc.c ****   */
 115:../../Drivers/STM32L5xx_HAL_Driver/Src/stm32l5xx_hal_gtzc.c **** 
 116:../../Drivers/STM32L5xx_HAL_Driver/Src/stm32l5xx_hal_gtzc.c **** /* Definitions for GTZC_TZSC_MPCWM */
 117:../../Drivers/STM32L5xx_HAL_Driver/Src/stm32l5xx_hal_gtzc.c **** #define GTZC_TZSC_MPCWM1_MEM_SIZE      0x10000000U    /* 256MB max size */
 118:../../Drivers/STM32L5xx_HAL_Driver/Src/stm32l5xx_hal_gtzc.c **** #define GTZC_TZSC_MPCWM2_MEM_SIZE      0x10000000U    /* 256MB max size */
 119:../../Drivers/STM32L5xx_HAL_Driver/Src/stm32l5xx_hal_gtzc.c **** #define GTZC_TZSC_MPCWM3_MEM_SIZE      0x10000000U    /* 256MB max size */
 120:../../Drivers/STM32L5xx_HAL_Driver/Src/stm32l5xx_hal_gtzc.c **** 
 121:../../Drivers/STM32L5xx_HAL_Driver/Src/stm32l5xx_hal_gtzc.c **** /* Definitions for GTZC TZSC & TZIC ALL register values */
 122:../../Drivers/STM32L5xx_HAL_Driver/Src/stm32l5xx_hal_gtzc.c **** #define TZSC_SECCFGR1_ALL       (0xFFFFFFFFUL)
 123:../../Drivers/STM32L5xx_HAL_Driver/Src/stm32l5xx_hal_gtzc.c **** #if defined (STM32L562xx)
 124:../../Drivers/STM32L5xx_HAL_Driver/Src/stm32l5xx_hal_gtzc.c **** #define TZSC_SECCFGR2_ALL       (0x0007FFFFUL)
 125:../../Drivers/STM32L5xx_HAL_Driver/Src/stm32l5xx_hal_gtzc.c **** #else
 126:../../Drivers/STM32L5xx_HAL_Driver/Src/stm32l5xx_hal_gtzc.c **** #define TZSC_SECCFGR2_ALL       (0x00076FFFUL)
 127:../../Drivers/STM32L5xx_HAL_Driver/Src/stm32l5xx_hal_gtzc.c **** #endif /* STM32L562xx */
 128:../../Drivers/STM32L5xx_HAL_Driver/Src/stm32l5xx_hal_gtzc.c **** #define TZSC_PRIVCFGR1_ALL      (0xFFFFFFFFUL)
 129:../../Drivers/STM32L5xx_HAL_Driver/Src/stm32l5xx_hal_gtzc.c **** #if defined (STM32L562xx)
 130:../../Drivers/STM32L5xx_HAL_Driver/Src/stm32l5xx_hal_gtzc.c **** #define TZSC_PRIVCFGR2_ALL      (0x0007FFFFUL)
 131:../../Drivers/STM32L5xx_HAL_Driver/Src/stm32l5xx_hal_gtzc.c **** #else
 132:../../Drivers/STM32L5xx_HAL_Driver/Src/stm32l5xx_hal_gtzc.c **** #define TZSC_PRIVCFGR2_ALL      (0x00076FFFUL)
 133:../../Drivers/STM32L5xx_HAL_Driver/Src/stm32l5xx_hal_gtzc.c **** #endif /* STM32L562xx */
 134:../../Drivers/STM32L5xx_HAL_Driver/Src/stm32l5xx_hal_gtzc.c **** #define TZIC_IER1_ALL           (0xFFFFFFFFUL)
 135:../../Drivers/STM32L5xx_HAL_Driver/Src/stm32l5xx_hal_gtzc.c **** #if defined (STM32L562xx)
 136:../../Drivers/STM32L5xx_HAL_Driver/Src/stm32l5xx_hal_gtzc.c **** #define TZIC_IER2_ALL           (0x3FFFFFFFUL)
 137:../../Drivers/STM32L5xx_HAL_Driver/Src/stm32l5xx_hal_gtzc.c **** #else
 138:../../Drivers/STM32L5xx_HAL_Driver/Src/stm32l5xx_hal_gtzc.c **** #define TZIC_IER2_ALL           (0x3FFF6FFFUL)
 139:../../Drivers/STM32L5xx_HAL_Driver/Src/stm32l5xx_hal_gtzc.c **** #endif /* STM32L562xx */
 140:../../Drivers/STM32L5xx_HAL_Driver/Src/stm32l5xx_hal_gtzc.c **** #define TZIC_IER3_ALL           (0x000000FFUL)
 141:../../Drivers/STM32L5xx_HAL_Driver/Src/stm32l5xx_hal_gtzc.c **** #define TZIC_FCR1_ALL           (0xFFFFFFFFUL)
 142:../../Drivers/STM32L5xx_HAL_Driver/Src/stm32l5xx_hal_gtzc.c **** #if defined (STM32L562xx)
ARM GAS  C:\Users\carlos\AppData\Local\Temp\ccENU8bg.s 			page 4


 143:../../Drivers/STM32L5xx_HAL_Driver/Src/stm32l5xx_hal_gtzc.c **** #define TZIC_FCR2_ALL           (0x3FFFFFFFUL)
 144:../../Drivers/STM32L5xx_HAL_Driver/Src/stm32l5xx_hal_gtzc.c **** #else
 145:../../Drivers/STM32L5xx_HAL_Driver/Src/stm32l5xx_hal_gtzc.c **** #define TZIC_FCR2_ALL           (0x3FFF6FFFUL)
 146:../../Drivers/STM32L5xx_HAL_Driver/Src/stm32l5xx_hal_gtzc.c **** #endif /* STM32L562xx */
 147:../../Drivers/STM32L5xx_HAL_Driver/Src/stm32l5xx_hal_gtzc.c **** #define TZIC_FCR3_ALL           (0x000000FFUL)
 148:../../Drivers/STM32L5xx_HAL_Driver/Src/stm32l5xx_hal_gtzc.c **** 
 149:../../Drivers/STM32L5xx_HAL_Driver/Src/stm32l5xx_hal_gtzc.c **** /**
 150:../../Drivers/STM32L5xx_HAL_Driver/Src/stm32l5xx_hal_gtzc.c ****   * @}
 151:../../Drivers/STM32L5xx_HAL_Driver/Src/stm32l5xx_hal_gtzc.c ****   */
 152:../../Drivers/STM32L5xx_HAL_Driver/Src/stm32l5xx_hal_gtzc.c **** 
 153:../../Drivers/STM32L5xx_HAL_Driver/Src/stm32l5xx_hal_gtzc.c **** /* Private macros ------------------------------------------------------------*/
 154:../../Drivers/STM32L5xx_HAL_Driver/Src/stm32l5xx_hal_gtzc.c **** 
 155:../../Drivers/STM32L5xx_HAL_Driver/Src/stm32l5xx_hal_gtzc.c **** /** @defgroup GTZC_Private_Macros GTZC Private Macros
 156:../../Drivers/STM32L5xx_HAL_Driver/Src/stm32l5xx_hal_gtzc.c ****   * @{
 157:../../Drivers/STM32L5xx_HAL_Driver/Src/stm32l5xx_hal_gtzc.c ****   */
 158:../../Drivers/STM32L5xx_HAL_Driver/Src/stm32l5xx_hal_gtzc.c **** 
 159:../../Drivers/STM32L5xx_HAL_Driver/Src/stm32l5xx_hal_gtzc.c **** #define IS_ADDRESS_IN(mem, address)\
 160:../../Drivers/STM32L5xx_HAL_Driver/Src/stm32l5xx_hal_gtzc.c ****   (   (   ( (uint32_t)(address) >= (uint32_t)GTZC_BASE_ADDRESS_NS(mem) )                           
 161:../../Drivers/STM32L5xx_HAL_Driver/Src/stm32l5xx_hal_gtzc.c ****           && ( (uint32_t)(address) < ((uint32_t)GTZC_BASE_ADDRESS_NS(mem) + (uint32_t)GTZC_MEM_SIZE
 162:../../Drivers/STM32L5xx_HAL_Driver/Src/stm32l5xx_hal_gtzc.c ****       || (   ( (uint32_t)(address) >= (uint32_t)GTZC_BASE_ADDRESS_S(mem) )                         
 163:../../Drivers/STM32L5xx_HAL_Driver/Src/stm32l5xx_hal_gtzc.c ****              && ( (uint32_t)(address) < ((uint32_t)GTZC_BASE_ADDRESS_S(mem) + (uint32_t)GTZC_MEM_SI
 164:../../Drivers/STM32L5xx_HAL_Driver/Src/stm32l5xx_hal_gtzc.c **** 
 165:../../Drivers/STM32L5xx_HAL_Driver/Src/stm32l5xx_hal_gtzc.c **** #define IS_ADDRESS_IN_S(mem, address)\
 166:../../Drivers/STM32L5xx_HAL_Driver/Src/stm32l5xx_hal_gtzc.c ****   (   ( (uint32_t)(address) >= (uint32_t)GTZC_BASE_ADDRESS_S(mem) )                                
 167:../../Drivers/STM32L5xx_HAL_Driver/Src/stm32l5xx_hal_gtzc.c ****       && ( (uint32_t)(address) < ((uint32_t)GTZC_BASE_ADDRESS_S(mem) + (uint32_t)GTZC_MEM_SIZE(mem)
 168:../../Drivers/STM32L5xx_HAL_Driver/Src/stm32l5xx_hal_gtzc.c **** 
 169:../../Drivers/STM32L5xx_HAL_Driver/Src/stm32l5xx_hal_gtzc.c **** #define IS_ADDRESS_IN_NS(mem, address)\
 170:../../Drivers/STM32L5xx_HAL_Driver/Src/stm32l5xx_hal_gtzc.c ****   (   ( (uint32_t)(address) >= (uint32_t)GTZC_BASE_ADDRESS_NS(mem) )                               
 171:../../Drivers/STM32L5xx_HAL_Driver/Src/stm32l5xx_hal_gtzc.c ****       && ( (uint32_t)(address) < ((uint32_t)GTZC_BASE_ADDRESS_NS(mem) + (uint32_t)GTZC_MEM_SIZE(mem
 172:../../Drivers/STM32L5xx_HAL_Driver/Src/stm32l5xx_hal_gtzc.c **** 
 173:../../Drivers/STM32L5xx_HAL_Driver/Src/stm32l5xx_hal_gtzc.c **** #define GTZC_BASE_ADDRESS(mem)\
 174:../../Drivers/STM32L5xx_HAL_Driver/Src/stm32l5xx_hal_gtzc.c ****   ( mem ## _BASE )
 175:../../Drivers/STM32L5xx_HAL_Driver/Src/stm32l5xx_hal_gtzc.c **** 
 176:../../Drivers/STM32L5xx_HAL_Driver/Src/stm32l5xx_hal_gtzc.c **** /**
 177:../../Drivers/STM32L5xx_HAL_Driver/Src/stm32l5xx_hal_gtzc.c ****   * @}
 178:../../Drivers/STM32L5xx_HAL_Driver/Src/stm32l5xx_hal_gtzc.c ****   */
 179:../../Drivers/STM32L5xx_HAL_Driver/Src/stm32l5xx_hal_gtzc.c **** 
 180:../../Drivers/STM32L5xx_HAL_Driver/Src/stm32l5xx_hal_gtzc.c **** /* Private variables ---------------------------------------------------------*/
 181:../../Drivers/STM32L5xx_HAL_Driver/Src/stm32l5xx_hal_gtzc.c **** /* Private function prototypes -----------------------------------------------*/
 182:../../Drivers/STM32L5xx_HAL_Driver/Src/stm32l5xx_hal_gtzc.c **** /* Exported functions --------------------------------------------------------*/
 183:../../Drivers/STM32L5xx_HAL_Driver/Src/stm32l5xx_hal_gtzc.c **** 
 184:../../Drivers/STM32L5xx_HAL_Driver/Src/stm32l5xx_hal_gtzc.c **** /** @defgroup GTZC_Exported_Functions GTZC Exported Functions
 185:../../Drivers/STM32L5xx_HAL_Driver/Src/stm32l5xx_hal_gtzc.c ****   * @{
 186:../../Drivers/STM32L5xx_HAL_Driver/Src/stm32l5xx_hal_gtzc.c ****   */
 187:../../Drivers/STM32L5xx_HAL_Driver/Src/stm32l5xx_hal_gtzc.c **** 
 188:../../Drivers/STM32L5xx_HAL_Driver/Src/stm32l5xx_hal_gtzc.c **** /** @defgroup GTZC_Exported_Functions_Group1  TZSC Configuration functions
 189:../../Drivers/STM32L5xx_HAL_Driver/Src/stm32l5xx_hal_gtzc.c ****   * @brief    TZSC Configuration functions
 190:../../Drivers/STM32L5xx_HAL_Driver/Src/stm32l5xx_hal_gtzc.c ****   *
 191:../../Drivers/STM32L5xx_HAL_Driver/Src/stm32l5xx_hal_gtzc.c ****   @verbatim
 192:../../Drivers/STM32L5xx_HAL_Driver/Src/stm32l5xx_hal_gtzc.c ****   ==============================================================================
 193:../../Drivers/STM32L5xx_HAL_Driver/Src/stm32l5xx_hal_gtzc.c ****             ##### TZSC Configuration functions #####
 194:../../Drivers/STM32L5xx_HAL_Driver/Src/stm32l5xx_hal_gtzc.c ****   ==============================================================================
 195:../../Drivers/STM32L5xx_HAL_Driver/Src/stm32l5xx_hal_gtzc.c ****   [..]
 196:../../Drivers/STM32L5xx_HAL_Driver/Src/stm32l5xx_hal_gtzc.c ****     This section provides functions allowing to configure TZSC
 197:../../Drivers/STM32L5xx_HAL_Driver/Src/stm32l5xx_hal_gtzc.c ****     TZSC is TrustZone Security Controller
 198:../../Drivers/STM32L5xx_HAL_Driver/Src/stm32l5xx_hal_gtzc.c **** @endverbatim
 199:../../Drivers/STM32L5xx_HAL_Driver/Src/stm32l5xx_hal_gtzc.c ****   * @{
ARM GAS  C:\Users\carlos\AppData\Local\Temp\ccENU8bg.s 			page 5


 200:../../Drivers/STM32L5xx_HAL_Driver/Src/stm32l5xx_hal_gtzc.c ****   */
 201:../../Drivers/STM32L5xx_HAL_Driver/Src/stm32l5xx_hal_gtzc.c **** 
 202:../../Drivers/STM32L5xx_HAL_Driver/Src/stm32l5xx_hal_gtzc.c **** /**
 203:../../Drivers/STM32L5xx_HAL_Driver/Src/stm32l5xx_hal_gtzc.c ****   * @brief  Configure TZSC on a single peripheral or on all peripherals.
 204:../../Drivers/STM32L5xx_HAL_Driver/Src/stm32l5xx_hal_gtzc.c ****   * @note   Secure and non-secure attributes can only be set from the secure
 205:../../Drivers/STM32L5xx_HAL_Driver/Src/stm32l5xx_hal_gtzc.c ****   *         state when the system implements the security (TZEN=1).
 206:../../Drivers/STM32L5xx_HAL_Driver/Src/stm32l5xx_hal_gtzc.c ****   * @note   Privilege and non-privilege attributes can only be set from the
 207:../../Drivers/STM32L5xx_HAL_Driver/Src/stm32l5xx_hal_gtzc.c ****   *         privilege state when TZEN=0 or TZEN=1
 208:../../Drivers/STM32L5xx_HAL_Driver/Src/stm32l5xx_hal_gtzc.c ****   * @note   Security and privilege attributes can be set independently.
 209:../../Drivers/STM32L5xx_HAL_Driver/Src/stm32l5xx_hal_gtzc.c ****   * @note   Default state is non-secure and unprivileged access allowed.
 210:../../Drivers/STM32L5xx_HAL_Driver/Src/stm32l5xx_hal_gtzc.c ****   * @param  PeriphId Peripheral identifier
 211:../../Drivers/STM32L5xx_HAL_Driver/Src/stm32l5xx_hal_gtzc.c ****   *         This parameter can be a value of @ref GTZC_TZSC_TZIC_PeriphId.
 212:../../Drivers/STM32L5xx_HAL_Driver/Src/stm32l5xx_hal_gtzc.c ****   *         Use GTZC_PERIPH_ALL to select all peripherals.
 213:../../Drivers/STM32L5xx_HAL_Driver/Src/stm32l5xx_hal_gtzc.c ****   * @param  PeriphAttributes Peripheral attributes, see @ref GTZC_TZSC_PeriphAttributes.
 214:../../Drivers/STM32L5xx_HAL_Driver/Src/stm32l5xx_hal_gtzc.c ****   * @retval HAL status.
 215:../../Drivers/STM32L5xx_HAL_Driver/Src/stm32l5xx_hal_gtzc.c ****   */
 216:../../Drivers/STM32L5xx_HAL_Driver/Src/stm32l5xx_hal_gtzc.c **** HAL_StatusTypeDef HAL_GTZC_TZSC_ConfigPeriphAttributes(uint32_t PeriphId,
 217:../../Drivers/STM32L5xx_HAL_Driver/Src/stm32l5xx_hal_gtzc.c ****                                                        uint32_t PeriphAttributes)
 218:../../Drivers/STM32L5xx_HAL_Driver/Src/stm32l5xx_hal_gtzc.c **** {
  31              		.loc 1 218 1 view -0
  32              		.cfi_startproc
  33              		@ args = 0, pretend = 0, frame = 0
  34              		@ frame_needed = 0, uses_anonymous_args = 0
  35              		@ link register save eliminated.
 219:../../Drivers/STM32L5xx_HAL_Driver/Src/stm32l5xx_hal_gtzc.c ****   uint32_t register_address;
  36              		.loc 1 219 3 view .LVU1
 220:../../Drivers/STM32L5xx_HAL_Driver/Src/stm32l5xx_hal_gtzc.c **** 
 221:../../Drivers/STM32L5xx_HAL_Driver/Src/stm32l5xx_hal_gtzc.c ****   /* check entry parameters */
 222:../../Drivers/STM32L5xx_HAL_Driver/Src/stm32l5xx_hal_gtzc.c ****   if ((PeriphAttributes > (GTZC_TZSC_PERIPH_SEC | GTZC_TZSC_PERIPH_PRIV))
  37              		.loc 1 222 3 view .LVU2
  38              		.loc 1 222 6 is_stmt 0 view .LVU3
  39 0000 B1F5417F 		cmp	r1, #772
  40 0004 7BD2     		bcs	.L11
 218:../../Drivers/STM32L5xx_HAL_Driver/Src/stm32l5xx_hal_gtzc.c ****   uint32_t register_address;
  41              		.loc 1 218 1 view .LVU4
  42 0006 10B4     		push	{r4}
  43              	.LCFI0:
  44              		.cfi_def_cfa_offset 4
  45              		.cfi_offset 4, -4
 223:../../Drivers/STM32L5xx_HAL_Driver/Src/stm32l5xx_hal_gtzc.c ****       || (HAL_GTZC_GET_ARRAY_INDEX(PeriphId) >= GTZC_TZSC_PERIPH_NUMBER)
  46              		.loc 1 223 11 view .LVU5
  47 0008 030F     		lsrs	r3, r0, #28
  48 000a 00F01F02 		and	r2, r0, #31
  49 000e 02EB4314 		add	r4, r2, r3, lsl #5
  50              		.loc 1 223 7 view .LVU6
  51 0012 322C     		cmp	r4, #50
  52 0014 75D8     		bhi	.L12
 224:../../Drivers/STM32L5xx_HAL_Driver/Src/stm32l5xx_hal_gtzc.c ****       || (((PeriphId & GTZC_PERIPH_ALL) != 0U) && (HAL_GTZC_GET_ARRAY_INDEX(PeriphId) != 0U)))
  53              		.loc 1 224 7 view .LVU7
  54 0016 10F02000 		ands	r0, r0, #32
  55              	.LVL1:
  56              		.loc 1 224 7 view .LVU8
  57 001a 01D0     		beq	.L3
  58              		.loc 1 224 48 discriminator 1 view .LVU9
  59 001c 002C     		cmp	r4, #0
  60 001e 74D1     		bne	.L13
  61              	.L3:
ARM GAS  C:\Users\carlos\AppData\Local\Temp\ccENU8bg.s 			page 6


 225:../../Drivers/STM32L5xx_HAL_Driver/Src/stm32l5xx_hal_gtzc.c ****   {
 226:../../Drivers/STM32L5xx_HAL_Driver/Src/stm32l5xx_hal_gtzc.c ****     return HAL_ERROR;
 227:../../Drivers/STM32L5xx_HAL_Driver/Src/stm32l5xx_hal_gtzc.c ****   }
 228:../../Drivers/STM32L5xx_HAL_Driver/Src/stm32l5xx_hal_gtzc.c **** 
 229:../../Drivers/STM32L5xx_HAL_Driver/Src/stm32l5xx_hal_gtzc.c ****   if ((PeriphId & GTZC_PERIPH_ALL) != 0U)
  62              		.loc 1 229 3 is_stmt 1 view .LVU10
  63              		.loc 1 229 6 is_stmt 0 view .LVU11
  64 0020 0028     		cmp	r0, #0
  65 0022 36D0     		beq	.L4
 230:../../Drivers/STM32L5xx_HAL_Driver/Src/stm32l5xx_hal_gtzc.c ****   {
 231:../../Drivers/STM32L5xx_HAL_Driver/Src/stm32l5xx_hal_gtzc.c ****     /* special case where same attributes are applied to all peripherals */
 232:../../Drivers/STM32L5xx_HAL_Driver/Src/stm32l5xx_hal_gtzc.c **** 
 233:../../Drivers/STM32L5xx_HAL_Driver/Src/stm32l5xx_hal_gtzc.c **** #if defined(__ARM_FEATURE_CMSE) && (__ARM_FEATURE_CMSE == 3U)
 234:../../Drivers/STM32L5xx_HAL_Driver/Src/stm32l5xx_hal_gtzc.c ****     /* secure configuration */
 235:../../Drivers/STM32L5xx_HAL_Driver/Src/stm32l5xx_hal_gtzc.c ****     if ((PeriphAttributes & GTZC_TZSC_PERIPH_SEC) == GTZC_TZSC_PERIPH_SEC)
  66              		.loc 1 235 5 is_stmt 1 view .LVU12
  67              		.loc 1 235 8 is_stmt 0 view .LVU13
  68 0024 40F20113 		movw	r3, #257
  69 0028 8B43     		bics	r3, r3, r1
  70 002a 0CD0     		beq	.L20
 236:../../Drivers/STM32L5xx_HAL_Driver/Src/stm32l5xx_hal_gtzc.c ****     {
 237:../../Drivers/STM32L5xx_HAL_Driver/Src/stm32l5xx_hal_gtzc.c ****       SET_BIT(GTZC_TZSC->SECCFGR1, TZSC_SECCFGR1_ALL);
 238:../../Drivers/STM32L5xx_HAL_Driver/Src/stm32l5xx_hal_gtzc.c ****       SET_BIT(GTZC_TZSC->SECCFGR2, TZSC_SECCFGR2_ALL);
 239:../../Drivers/STM32L5xx_HAL_Driver/Src/stm32l5xx_hal_gtzc.c ****     }
 240:../../Drivers/STM32L5xx_HAL_Driver/Src/stm32l5xx_hal_gtzc.c ****     else if ((PeriphAttributes & GTZC_TZSC_PERIPH_NSEC) == GTZC_TZSC_PERIPH_NSEC)
  71              		.loc 1 240 10 is_stmt 1 view .LVU14
  72              		.loc 1 240 13 is_stmt 0 view .LVU15
  73 002c 11F4807F 		tst	r1, #256
  74 0030 13D0     		beq	.L6
 241:../../Drivers/STM32L5xx_HAL_Driver/Src/stm32l5xx_hal_gtzc.c ****     {
 242:../../Drivers/STM32L5xx_HAL_Driver/Src/stm32l5xx_hal_gtzc.c ****       CLEAR_BIT(GTZC_TZSC->SECCFGR1, TZSC_SECCFGR1_ALL);
  75              		.loc 1 242 7 is_stmt 1 view .LVU16
  76 0032 394B     		ldr	r3, .L24
  77 0034 1A69     		ldr	r2, [r3, #16]
  78 0036 0022     		movs	r2, #0
  79 0038 1A61     		str	r2, [r3, #16]
 243:../../Drivers/STM32L5xx_HAL_Driver/Src/stm32l5xx_hal_gtzc.c ****       CLEAR_BIT(GTZC_TZSC->SECCFGR2, TZSC_SECCFGR2_ALL);
  80              		.loc 1 243 7 view .LVU17
  81 003a 5869     		ldr	r0, [r3, #20]
  82 003c A2F5EE22 		sub	r2, r2, #487424
  83 0040 0240     		ands	r2, r2, r0
  84 0042 5A61     		str	r2, [r3, #20]
  85 0044 09E0     		b	.L6
  86              	.L20:
 237:../../Drivers/STM32L5xx_HAL_Driver/Src/stm32l5xx_hal_gtzc.c ****       SET_BIT(GTZC_TZSC->SECCFGR2, TZSC_SECCFGR2_ALL);
  87              		.loc 1 237 7 view .LVU18
  88 0046 344B     		ldr	r3, .L24
  89 0048 1A69     		ldr	r2, [r3, #16]
  90 004a 4FF0FF32 		mov	r2, #-1
  91 004e 1A61     		str	r2, [r3, #16]
 238:../../Drivers/STM32L5xx_HAL_Driver/Src/stm32l5xx_hal_gtzc.c ****     }
  92              		.loc 1 238 7 view .LVU19
  93 0050 5869     		ldr	r0, [r3, #20]
  94 0052 02F5EE22 		add	r2, r2, #487424
  95 0056 0243     		orrs	r2, r2, r0
  96 0058 5A61     		str	r2, [r3, #20]
  97              	.L6:
ARM GAS  C:\Users\carlos\AppData\Local\Temp\ccENU8bg.s 			page 7


 244:../../Drivers/STM32L5xx_HAL_Driver/Src/stm32l5xx_hal_gtzc.c ****     }
 245:../../Drivers/STM32L5xx_HAL_Driver/Src/stm32l5xx_hal_gtzc.c ****     else
 246:../../Drivers/STM32L5xx_HAL_Driver/Src/stm32l5xx_hal_gtzc.c ****     {
 247:../../Drivers/STM32L5xx_HAL_Driver/Src/stm32l5xx_hal_gtzc.c ****       /* do nothing */
 248:../../Drivers/STM32L5xx_HAL_Driver/Src/stm32l5xx_hal_gtzc.c ****     }
  98              		.loc 1 248 5 view .LVU20
 249:../../Drivers/STM32L5xx_HAL_Driver/Src/stm32l5xx_hal_gtzc.c **** #endif /* defined(__ARM_FEATURE_CMSE) && (__ARM_FEATURE_CMSE == 3U) */
 250:../../Drivers/STM32L5xx_HAL_Driver/Src/stm32l5xx_hal_gtzc.c **** 
 251:../../Drivers/STM32L5xx_HAL_Driver/Src/stm32l5xx_hal_gtzc.c ****     /* privilege configuration */
 252:../../Drivers/STM32L5xx_HAL_Driver/Src/stm32l5xx_hal_gtzc.c ****     if ((PeriphAttributes & GTZC_TZSC_PERIPH_PRIV) == GTZC_TZSC_PERIPH_PRIV)
  99              		.loc 1 252 5 view .LVU21
 100              		.loc 1 252 8 is_stmt 0 view .LVU22
 101 005a 40F20223 		movw	r3, #514
 102 005e 8B43     		bics	r3, r3, r1
 103 0060 0BD0     		beq	.L21
 253:../../Drivers/STM32L5xx_HAL_Driver/Src/stm32l5xx_hal_gtzc.c ****     {
 254:../../Drivers/STM32L5xx_HAL_Driver/Src/stm32l5xx_hal_gtzc.c ****       SET_BIT(GTZC_TZSC->PRIVCFGR1, TZSC_PRIVCFGR1_ALL);
 255:../../Drivers/STM32L5xx_HAL_Driver/Src/stm32l5xx_hal_gtzc.c ****       SET_BIT(GTZC_TZSC->PRIVCFGR2, TZSC_PRIVCFGR2_ALL);
 256:../../Drivers/STM32L5xx_HAL_Driver/Src/stm32l5xx_hal_gtzc.c ****     }
 257:../../Drivers/STM32L5xx_HAL_Driver/Src/stm32l5xx_hal_gtzc.c ****     else if ((PeriphAttributes & GTZC_TZSC_PERIPH_NPRIV) == GTZC_TZSC_PERIPH_NPRIV)
 104              		.loc 1 257 10 is_stmt 1 view .LVU23
 105              		.loc 1 257 13 is_stmt 0 view .LVU24
 106 0062 11F4007F 		tst	r1, #512
 107 0066 52D0     		beq	.L14
 258:../../Drivers/STM32L5xx_HAL_Driver/Src/stm32l5xx_hal_gtzc.c ****     {
 259:../../Drivers/STM32L5xx_HAL_Driver/Src/stm32l5xx_hal_gtzc.c ****       CLEAR_BIT(GTZC_TZSC->PRIVCFGR1, TZSC_PRIVCFGR1_ALL);
 108              		.loc 1 259 7 is_stmt 1 view .LVU25
 109 0068 2B4B     		ldr	r3, .L24
 110 006a 1A6A     		ldr	r2, [r3, #32]
 111 006c 0020     		movs	r0, #0
 112 006e 1862     		str	r0, [r3, #32]
 260:../../Drivers/STM32L5xx_HAL_Driver/Src/stm32l5xx_hal_gtzc.c ****       CLEAR_BIT(GTZC_TZSC->PRIVCFGR2, TZSC_PRIVCFGR2_ALL);
 113              		.loc 1 260 7 view .LVU26
 114 0070 596A     		ldr	r1, [r3, #36]
 115              	.LVL2:
 116              		.loc 1 260 7 is_stmt 0 view .LVU27
 117 0072 2A4A     		ldr	r2, .L24+4
 118 0074 0A40     		ands	r2, r2, r1
 119 0076 5A62     		str	r2, [r3, #36]
 120 0078 44E0     		b	.L2
 121              	.LVL3:
 122              	.L21:
 254:../../Drivers/STM32L5xx_HAL_Driver/Src/stm32l5xx_hal_gtzc.c ****       SET_BIT(GTZC_TZSC->PRIVCFGR2, TZSC_PRIVCFGR2_ALL);
 123              		.loc 1 254 7 is_stmt 1 view .LVU28
 124 007a 274B     		ldr	r3, .L24
 125 007c 1A6A     		ldr	r2, [r3, #32]
 126 007e 4FF0FF32 		mov	r2, #-1
 127 0082 1A62     		str	r2, [r3, #32]
 255:../../Drivers/STM32L5xx_HAL_Driver/Src/stm32l5xx_hal_gtzc.c ****     }
 128              		.loc 1 255 7 view .LVU29
 129 0084 596A     		ldr	r1, [r3, #36]
 130              	.LVL4:
 255:../../Drivers/STM32L5xx_HAL_Driver/Src/stm32l5xx_hal_gtzc.c ****     }
 131              		.loc 1 255 7 is_stmt 0 view .LVU30
 132 0086 02F5EE22 		add	r2, r2, #487424
 133 008a 0A43     		orrs	r2, r2, r1
 134 008c 5A62     		str	r2, [r3, #36]
ARM GAS  C:\Users\carlos\AppData\Local\Temp\ccENU8bg.s 			page 8


 261:../../Drivers/STM32L5xx_HAL_Driver/Src/stm32l5xx_hal_gtzc.c ****     }
 262:../../Drivers/STM32L5xx_HAL_Driver/Src/stm32l5xx_hal_gtzc.c ****     else
 263:../../Drivers/STM32L5xx_HAL_Driver/Src/stm32l5xx_hal_gtzc.c ****     {
 264:../../Drivers/STM32L5xx_HAL_Driver/Src/stm32l5xx_hal_gtzc.c ****       /* do nothing */
 265:../../Drivers/STM32L5xx_HAL_Driver/Src/stm32l5xx_hal_gtzc.c ****     }
 266:../../Drivers/STM32L5xx_HAL_Driver/Src/stm32l5xx_hal_gtzc.c ****   }
 267:../../Drivers/STM32L5xx_HAL_Driver/Src/stm32l5xx_hal_gtzc.c ****   else
 268:../../Drivers/STM32L5xx_HAL_Driver/Src/stm32l5xx_hal_gtzc.c ****   {
 269:../../Drivers/STM32L5xx_HAL_Driver/Src/stm32l5xx_hal_gtzc.c ****     /* common case where only one peripheral is configured */
 270:../../Drivers/STM32L5xx_HAL_Driver/Src/stm32l5xx_hal_gtzc.c **** 
 271:../../Drivers/STM32L5xx_HAL_Driver/Src/stm32l5xx_hal_gtzc.c **** #if defined(__ARM_FEATURE_CMSE) && (__ARM_FEATURE_CMSE == 3U)
 272:../../Drivers/STM32L5xx_HAL_Driver/Src/stm32l5xx_hal_gtzc.c ****     /* secure configuration */
 273:../../Drivers/STM32L5xx_HAL_Driver/Src/stm32l5xx_hal_gtzc.c ****     register_address = (uint32_t) &(GTZC_TZSC->SECCFGR1) + (4U * GTZC_GET_REG_INDEX(PeriphId));
 274:../../Drivers/STM32L5xx_HAL_Driver/Src/stm32l5xx_hal_gtzc.c ****     if ((PeriphAttributes & GTZC_TZSC_PERIPH_SEC) == GTZC_TZSC_PERIPH_SEC)
 275:../../Drivers/STM32L5xx_HAL_Driver/Src/stm32l5xx_hal_gtzc.c ****     {
 276:../../Drivers/STM32L5xx_HAL_Driver/Src/stm32l5xx_hal_gtzc.c ****       SET_BIT(*(__IO uint32_t *)register_address, 1UL << GTZC_GET_PERIPH_POS(PeriphId));
 277:../../Drivers/STM32L5xx_HAL_Driver/Src/stm32l5xx_hal_gtzc.c ****     }
 278:../../Drivers/STM32L5xx_HAL_Driver/Src/stm32l5xx_hal_gtzc.c ****     else if ((PeriphAttributes & GTZC_TZSC_PERIPH_NSEC) == GTZC_TZSC_PERIPH_NSEC)
 279:../../Drivers/STM32L5xx_HAL_Driver/Src/stm32l5xx_hal_gtzc.c ****     {
 280:../../Drivers/STM32L5xx_HAL_Driver/Src/stm32l5xx_hal_gtzc.c ****       CLEAR_BIT(*(__IO uint32_t *)register_address, 1UL << GTZC_GET_PERIPH_POS(PeriphId));
 281:../../Drivers/STM32L5xx_HAL_Driver/Src/stm32l5xx_hal_gtzc.c ****     }
 282:../../Drivers/STM32L5xx_HAL_Driver/Src/stm32l5xx_hal_gtzc.c ****     else
 283:../../Drivers/STM32L5xx_HAL_Driver/Src/stm32l5xx_hal_gtzc.c ****     {
 284:../../Drivers/STM32L5xx_HAL_Driver/Src/stm32l5xx_hal_gtzc.c ****       /* do nothing */
 285:../../Drivers/STM32L5xx_HAL_Driver/Src/stm32l5xx_hal_gtzc.c ****     }
 286:../../Drivers/STM32L5xx_HAL_Driver/Src/stm32l5xx_hal_gtzc.c **** #endif /* defined(__ARM_FEATURE_CMSE) && (__ARM_FEATURE_CMSE == 3U) */
 287:../../Drivers/STM32L5xx_HAL_Driver/Src/stm32l5xx_hal_gtzc.c **** 
 288:../../Drivers/STM32L5xx_HAL_Driver/Src/stm32l5xx_hal_gtzc.c ****     /* privilege configuration */
 289:../../Drivers/STM32L5xx_HAL_Driver/Src/stm32l5xx_hal_gtzc.c ****     register_address = (uint32_t) &(GTZC_TZSC->PRIVCFGR1) + (4U * GTZC_GET_REG_INDEX(PeriphId));
 290:../../Drivers/STM32L5xx_HAL_Driver/Src/stm32l5xx_hal_gtzc.c ****     if ((PeriphAttributes & GTZC_TZSC_PERIPH_PRIV) == GTZC_TZSC_PERIPH_PRIV)
 291:../../Drivers/STM32L5xx_HAL_Driver/Src/stm32l5xx_hal_gtzc.c ****     {
 292:../../Drivers/STM32L5xx_HAL_Driver/Src/stm32l5xx_hal_gtzc.c ****       SET_BIT(*(__IO uint32_t *)register_address, 1UL << GTZC_GET_PERIPH_POS(PeriphId));
 293:../../Drivers/STM32L5xx_HAL_Driver/Src/stm32l5xx_hal_gtzc.c ****     }
 294:../../Drivers/STM32L5xx_HAL_Driver/Src/stm32l5xx_hal_gtzc.c ****     else if ((PeriphAttributes & GTZC_TZSC_PERIPH_NPRIV) == GTZC_TZSC_PERIPH_NPRIV)
 295:../../Drivers/STM32L5xx_HAL_Driver/Src/stm32l5xx_hal_gtzc.c ****     {
 296:../../Drivers/STM32L5xx_HAL_Driver/Src/stm32l5xx_hal_gtzc.c ****       CLEAR_BIT(*(__IO uint32_t *)register_address, 1UL << GTZC_GET_PERIPH_POS(PeriphId));
 297:../../Drivers/STM32L5xx_HAL_Driver/Src/stm32l5xx_hal_gtzc.c ****     }
 298:../../Drivers/STM32L5xx_HAL_Driver/Src/stm32l5xx_hal_gtzc.c ****     else
 299:../../Drivers/STM32L5xx_HAL_Driver/Src/stm32l5xx_hal_gtzc.c ****     {
 300:../../Drivers/STM32L5xx_HAL_Driver/Src/stm32l5xx_hal_gtzc.c ****       /* do nothing */
 301:../../Drivers/STM32L5xx_HAL_Driver/Src/stm32l5xx_hal_gtzc.c ****     }
 302:../../Drivers/STM32L5xx_HAL_Driver/Src/stm32l5xx_hal_gtzc.c ****   }
 303:../../Drivers/STM32L5xx_HAL_Driver/Src/stm32l5xx_hal_gtzc.c ****   return HAL_OK;
 135              		.loc 1 303 10 view .LVU31
 136 008e 0020     		movs	r0, #0
 137 0090 38E0     		b	.L2
 138              	.LVL5:
 139              	.L4:
 273:../../Drivers/STM32L5xx_HAL_Driver/Src/stm32l5xx_hal_gtzc.c ****     if ((PeriphAttributes & GTZC_TZSC_PERIPH_SEC) == GTZC_TZSC_PERIPH_SEC)
 140              		.loc 1 273 5 is_stmt 1 view .LVU32
 273:../../Drivers/STM32L5xx_HAL_Driver/Src/stm32l5xx_hal_gtzc.c ****     if ((PeriphAttributes & GTZC_TZSC_PERIPH_SEC) == GTZC_TZSC_PERIPH_SEC)
 141              		.loc 1 273 58 is_stmt 0 view .LVU33
 142 0092 2348     		ldr	r0, .L24+8
 143 0094 1844     		add	r0, r0, r3
 273:../../Drivers/STM32L5xx_HAL_Driver/Src/stm32l5xx_hal_gtzc.c ****     if ((PeriphAttributes & GTZC_TZSC_PERIPH_SEC) == GTZC_TZSC_PERIPH_SEC)
 144              		.loc 1 273 22 view .LVU34
 145 0096 8000     		lsls	r0, r0, #2
ARM GAS  C:\Users\carlos\AppData\Local\Temp\ccENU8bg.s 			page 9


 146              	.LVL6:
 274:../../Drivers/STM32L5xx_HAL_Driver/Src/stm32l5xx_hal_gtzc.c ****     {
 147              		.loc 1 274 5 is_stmt 1 view .LVU35
 274:../../Drivers/STM32L5xx_HAL_Driver/Src/stm32l5xx_hal_gtzc.c ****     {
 148              		.loc 1 274 8 is_stmt 0 view .LVU36
 149 0098 40F20114 		movw	r4, #257
 150 009c 8C43     		bics	r4, r4, r1
 151 009e 0BD0     		beq	.L22
 278:../../Drivers/STM32L5xx_HAL_Driver/Src/stm32l5xx_hal_gtzc.c ****     {
 152              		.loc 1 278 10 is_stmt 1 view .LVU37
 278:../../Drivers/STM32L5xx_HAL_Driver/Src/stm32l5xx_hal_gtzc.c ****     {
 153              		.loc 1 278 13 is_stmt 0 view .LVU38
 154 00a0 11F4807F 		tst	r1, #256
 155 00a4 10D0     		beq	.L9
 280:../../Drivers/STM32L5xx_HAL_Driver/Src/stm32l5xx_hal_gtzc.c ****     }
 156              		.loc 1 280 7 is_stmt 1 view .LVU39
 157 00a6 0468     		ldr	r4, [r0]
 158 00a8 4FF0010C 		mov	ip, #1
 159 00ac 0CFA02FC 		lsl	ip, ip, r2
 160 00b0 24EA0C04 		bic	r4, r4, ip
 161 00b4 0460     		str	r4, [r0]
 162 00b6 07E0     		b	.L9
 163              	.L22:
 276:../../Drivers/STM32L5xx_HAL_Driver/Src/stm32l5xx_hal_gtzc.c ****     }
 164              		.loc 1 276 7 view .LVU40
 165 00b8 0468     		ldr	r4, [r0]
 166 00ba 4FF0010C 		mov	ip, #1
 167 00be 0CFA02FC 		lsl	ip, ip, r2
 168 00c2 44EA0C04 		orr	r4, r4, ip
 169 00c6 0460     		str	r4, [r0]
 170              	.L9:
 285:../../Drivers/STM32L5xx_HAL_Driver/Src/stm32l5xx_hal_gtzc.c **** #endif /* defined(__ARM_FEATURE_CMSE) && (__ARM_FEATURE_CMSE == 3U) */
 171              		.loc 1 285 5 view .LVU41
 289:../../Drivers/STM32L5xx_HAL_Driver/Src/stm32l5xx_hal_gtzc.c ****     if ((PeriphAttributes & GTZC_TZSC_PERIPH_PRIV) == GTZC_TZSC_PERIPH_PRIV)
 172              		.loc 1 289 5 view .LVU42
 289:../../Drivers/STM32L5xx_HAL_Driver/Src/stm32l5xx_hal_gtzc.c ****     if ((PeriphAttributes & GTZC_TZSC_PERIPH_PRIV) == GTZC_TZSC_PERIPH_PRIV)
 173              		.loc 1 289 59 is_stmt 0 view .LVU43
 174 00c8 1648     		ldr	r0, .L24+12
 175              	.LVL7:
 289:../../Drivers/STM32L5xx_HAL_Driver/Src/stm32l5xx_hal_gtzc.c ****     if ((PeriphAttributes & GTZC_TZSC_PERIPH_PRIV) == GTZC_TZSC_PERIPH_PRIV)
 176              		.loc 1 289 59 view .LVU44
 177 00ca 1844     		add	r0, r0, r3
 289:../../Drivers/STM32L5xx_HAL_Driver/Src/stm32l5xx_hal_gtzc.c ****     if ((PeriphAttributes & GTZC_TZSC_PERIPH_PRIV) == GTZC_TZSC_PERIPH_PRIV)
 178              		.loc 1 289 22 view .LVU45
 179 00cc 8000     		lsls	r0, r0, #2
 180              	.LVL8:
 290:../../Drivers/STM32L5xx_HAL_Driver/Src/stm32l5xx_hal_gtzc.c ****     {
 181              		.loc 1 290 5 is_stmt 1 view .LVU46
 290:../../Drivers/STM32L5xx_HAL_Driver/Src/stm32l5xx_hal_gtzc.c ****     {
 182              		.loc 1 290 8 is_stmt 0 view .LVU47
 183 00ce 40F20223 		movw	r3, #514
 184 00d2 8B43     		bics	r3, r3, r1
 185 00d4 0BD0     		beq	.L23
 294:../../Drivers/STM32L5xx_HAL_Driver/Src/stm32l5xx_hal_gtzc.c ****     {
 186              		.loc 1 294 10 is_stmt 1 view .LVU48
 294:../../Drivers/STM32L5xx_HAL_Driver/Src/stm32l5xx_hal_gtzc.c ****     {
 187              		.loc 1 294 13 is_stmt 0 view .LVU49
ARM GAS  C:\Users\carlos\AppData\Local\Temp\ccENU8bg.s 			page 10


 188 00d6 11F4007F 		tst	r1, #512
 189 00da 1AD0     		beq	.L15
 296:../../Drivers/STM32L5xx_HAL_Driver/Src/stm32l5xx_hal_gtzc.c ****     }
 190              		.loc 1 296 7 is_stmt 1 view .LVU50
 191 00dc 0368     		ldr	r3, [r0]
 192 00de 0121     		movs	r1, #1
 193              	.LVL9:
 296:../../Drivers/STM32L5xx_HAL_Driver/Src/stm32l5xx_hal_gtzc.c ****     }
 194              		.loc 1 296 7 is_stmt 0 view .LVU51
 195 00e0 01FA02F2 		lsl	r2, r1, r2
 196 00e4 23EA0202 		bic	r2, r3, r2
 197 00e8 0260     		str	r2, [r0]
 198              		.loc 1 303 10 view .LVU52
 199 00ea 0020     		movs	r0, #0
 200              	.LVL10:
 201              		.loc 1 303 10 view .LVU53
 202 00ec 0AE0     		b	.L2
 203              	.LVL11:
 204              	.L23:
 292:../../Drivers/STM32L5xx_HAL_Driver/Src/stm32l5xx_hal_gtzc.c ****     }
 205              		.loc 1 292 7 is_stmt 1 view .LVU54
 206 00ee 0368     		ldr	r3, [r0]
 207 00f0 0121     		movs	r1, #1
 208              	.LVL12:
 292:../../Drivers/STM32L5xx_HAL_Driver/Src/stm32l5xx_hal_gtzc.c ****     }
 209              		.loc 1 292 7 is_stmt 0 view .LVU55
 210 00f2 01FA02F2 		lsl	r2, r1, r2
 211 00f6 1A43     		orrs	r2, r2, r3
 212 00f8 0260     		str	r2, [r0]
 213              		.loc 1 303 10 view .LVU56
 214 00fa 0020     		movs	r0, #0
 215              	.LVL13:
 216              		.loc 1 303 10 view .LVU57
 217 00fc 02E0     		b	.L2
 218              	.LVL14:
 219              	.L11:
 220              	.LCFI1:
 221              		.cfi_def_cfa_offset 0
 222              		.cfi_restore 4
 226:../../Drivers/STM32L5xx_HAL_Driver/Src/stm32l5xx_hal_gtzc.c ****   }
 223              		.loc 1 226 12 view .LVU58
 224 00fe 0120     		movs	r0, #1
 225              	.LVL15:
 304:../../Drivers/STM32L5xx_HAL_Driver/Src/stm32l5xx_hal_gtzc.c **** }
 226              		.loc 1 304 1 view .LVU59
 227 0100 7047     		bx	lr
 228              	.LVL16:
 229              	.L12:
 230              	.LCFI2:
 231              		.cfi_def_cfa_offset 4
 232              		.cfi_offset 4, -4
 226:../../Drivers/STM32L5xx_HAL_Driver/Src/stm32l5xx_hal_gtzc.c ****   }
 233              		.loc 1 226 12 view .LVU60
 234 0102 0120     		movs	r0, #1
 235              	.LVL17:
 236              	.L2:
 237              		.loc 1 304 1 view .LVU61
ARM GAS  C:\Users\carlos\AppData\Local\Temp\ccENU8bg.s 			page 11


 238 0104 5DF8044B 		ldr	r4, [sp], #4
 239              	.LCFI3:
 240              		.cfi_remember_state
 241              		.cfi_restore 4
 242              		.cfi_def_cfa_offset 0
 243 0108 7047     		bx	lr
 244              	.LVL18:
 245              	.L13:
 246              	.LCFI4:
 247              		.cfi_restore_state
 226:../../Drivers/STM32L5xx_HAL_Driver/Src/stm32l5xx_hal_gtzc.c ****   }
 248              		.loc 1 226 12 view .LVU62
 249 010a 0120     		movs	r0, #1
 250 010c FAE7     		b	.L2
 251              	.L14:
 303:../../Drivers/STM32L5xx_HAL_Driver/Src/stm32l5xx_hal_gtzc.c **** }
 252              		.loc 1 303 10 view .LVU63
 253 010e 0020     		movs	r0, #0
 254 0110 F8E7     		b	.L2
 255              	.LVL19:
 256              	.L15:
 303:../../Drivers/STM32L5xx_HAL_Driver/Src/stm32l5xx_hal_gtzc.c **** }
 257              		.loc 1 303 10 view .LVU64
 258 0112 0020     		movs	r0, #0
 259              	.LVL20:
 303:../../Drivers/STM32L5xx_HAL_Driver/Src/stm32l5xx_hal_gtzc.c **** }
 260              		.loc 1 303 10 view .LVU65
 261 0114 F6E7     		b	.L2
 262              	.L25:
 263 0116 00BF     		.align	2
 264              	.L24:
 265 0118 00240350 		.word	1342383104
 266 011c 0090F8FF 		.word	-487424
 267 0120 04C90014 		.word	335595780
 268 0124 08C90014 		.word	335595784
 269              		.cfi_endproc
 270              	.LFE202:
 272              		.section	.text.HAL_GTZC_TZSC_GetConfigPeriphAttributes,"ax",%progbits
 273              		.align	1
 274              		.global	HAL_GTZC_TZSC_GetConfigPeriphAttributes
 275              		.syntax unified
 276              		.thumb
 277              		.thumb_func
 278              		.fpu fpv4-sp-d16
 280              	HAL_GTZC_TZSC_GetConfigPeriphAttributes:
 281              	.LVL21:
 282              	.LFB203:
 305:../../Drivers/STM32L5xx_HAL_Driver/Src/stm32l5xx_hal_gtzc.c **** 
 306:../../Drivers/STM32L5xx_HAL_Driver/Src/stm32l5xx_hal_gtzc.c **** /**
 307:../../Drivers/STM32L5xx_HAL_Driver/Src/stm32l5xx_hal_gtzc.c ****   * @brief  Get TZSC configuration on a single peripheral or on all peripherals.
 308:../../Drivers/STM32L5xx_HAL_Driver/Src/stm32l5xx_hal_gtzc.c ****   * @param  PeriphId Peripheral identifier.
 309:../../Drivers/STM32L5xx_HAL_Driver/Src/stm32l5xx_hal_gtzc.c ****   *         This parameter can be a value of @ref GTZC_TZSC_TZIC_PeriphId.
 310:../../Drivers/STM32L5xx_HAL_Driver/Src/stm32l5xx_hal_gtzc.c ****   *         Use GTZC_PERIPH_ALL to select all peripherals.
 311:../../Drivers/STM32L5xx_HAL_Driver/Src/stm32l5xx_hal_gtzc.c ****   * @param  PeriphAttributes Peripheral attribute pointer.
 312:../../Drivers/STM32L5xx_HAL_Driver/Src/stm32l5xx_hal_gtzc.c ****   *         This parameter can be a value of @ref GTZC_TZSC_PeriphAttributes.
 313:../../Drivers/STM32L5xx_HAL_Driver/Src/stm32l5xx_hal_gtzc.c ****   *         If PeriphId target a single peripheral, pointer on a single element.
 314:../../Drivers/STM32L5xx_HAL_Driver/Src/stm32l5xx_hal_gtzc.c ****   *         If all peripherals selected (GTZC_PERIPH_ALL), pointer to an array of
ARM GAS  C:\Users\carlos\AppData\Local\Temp\ccENU8bg.s 			page 12


 315:../../Drivers/STM32L5xx_HAL_Driver/Src/stm32l5xx_hal_gtzc.c ****   *         GTZC_TZSC_PERIPH_NUMBER elements is to be provided.
 316:../../Drivers/STM32L5xx_HAL_Driver/Src/stm32l5xx_hal_gtzc.c ****   * @retval HAL status.
 317:../../Drivers/STM32L5xx_HAL_Driver/Src/stm32l5xx_hal_gtzc.c ****   */
 318:../../Drivers/STM32L5xx_HAL_Driver/Src/stm32l5xx_hal_gtzc.c **** HAL_StatusTypeDef HAL_GTZC_TZSC_GetConfigPeriphAttributes(uint32_t PeriphId,
 319:../../Drivers/STM32L5xx_HAL_Driver/Src/stm32l5xx_hal_gtzc.c ****                                                           uint32_t *PeriphAttributes)
 320:../../Drivers/STM32L5xx_HAL_Driver/Src/stm32l5xx_hal_gtzc.c **** {
 283              		.loc 1 320 1 is_stmt 1 view -0
 284              		.cfi_startproc
 285              		@ args = 0, pretend = 0, frame = 0
 286              		@ frame_needed = 0, uses_anonymous_args = 0
 287              		@ link register save eliminated.
 321:../../Drivers/STM32L5xx_HAL_Driver/Src/stm32l5xx_hal_gtzc.c ****   uint32_t i;
 288              		.loc 1 321 3 view .LVU67
 322:../../Drivers/STM32L5xx_HAL_Driver/Src/stm32l5xx_hal_gtzc.c ****   uint32_t reg_value;
 289              		.loc 1 322 3 view .LVU68
 323:../../Drivers/STM32L5xx_HAL_Driver/Src/stm32l5xx_hal_gtzc.c ****   uint32_t register_address;
 290              		.loc 1 323 3 view .LVU69
 324:../../Drivers/STM32L5xx_HAL_Driver/Src/stm32l5xx_hal_gtzc.c **** 
 325:../../Drivers/STM32L5xx_HAL_Driver/Src/stm32l5xx_hal_gtzc.c ****   /* check entry parameters */
 326:../../Drivers/STM32L5xx_HAL_Driver/Src/stm32l5xx_hal_gtzc.c ****   if ((PeriphAttributes == NULL)
 291              		.loc 1 326 3 view .LVU70
 292              		.loc 1 326 6 is_stmt 0 view .LVU71
 293 0000 8C46     		mov	ip, r1
 294 0002 0029     		cmp	r1, #0
 295 0004 00F0A080 		beq	.L49
 327:../../Drivers/STM32L5xx_HAL_Driver/Src/stm32l5xx_hal_gtzc.c ****       || (HAL_GTZC_GET_ARRAY_INDEX(PeriphId) >= GTZC_TZSC_PERIPH_NUMBER)
 296              		.loc 1 327 11 view .LVU72
 297 0008 020F     		lsrs	r2, r0, #28
 298 000a 00F01F03 		and	r3, r0, #31
 299 000e 03EB4211 		add	r1, r3, r2, lsl #5
 300              	.LVL22:
 301              		.loc 1 327 7 view .LVU73
 302 0012 3229     		cmp	r1, #50
 303 0014 00F29A80 		bhi	.L50
 328:../../Drivers/STM32L5xx_HAL_Driver/Src/stm32l5xx_hal_gtzc.c ****       || (((PeriphId & GTZC_PERIPH_ALL) != 0U) && (HAL_GTZC_GET_ARRAY_INDEX(PeriphId) != 0U)))
 304              		.loc 1 328 7 view .LVU74
 305 0018 10F02000 		ands	r0, r0, #32
 306              	.LVL23:
 307              		.loc 1 328 7 view .LVU75
 308 001c 02D0     		beq	.L28
 309              		.loc 1 328 48 discriminator 1 view .LVU76
 310 001e 0029     		cmp	r1, #0
 311 0020 40F09680 		bne	.L51
 312              	.L28:
 329:../../Drivers/STM32L5xx_HAL_Driver/Src/stm32l5xx_hal_gtzc.c ****   {
 330:../../Drivers/STM32L5xx_HAL_Driver/Src/stm32l5xx_hal_gtzc.c ****     return HAL_ERROR;
 331:../../Drivers/STM32L5xx_HAL_Driver/Src/stm32l5xx_hal_gtzc.c ****   }
 332:../../Drivers/STM32L5xx_HAL_Driver/Src/stm32l5xx_hal_gtzc.c **** 
 333:../../Drivers/STM32L5xx_HAL_Driver/Src/stm32l5xx_hal_gtzc.c ****   if ((PeriphId & GTZC_PERIPH_ALL) != 0U)
 313              		.loc 1 333 3 is_stmt 1 view .LVU77
 314              		.loc 1 333 6 is_stmt 0 view .LVU78
 315 0024 0028     		cmp	r0, #0
 316 0026 63D0     		beq	.L29
 334:../../Drivers/STM32L5xx_HAL_Driver/Src/stm32l5xx_hal_gtzc.c ****   {
 335:../../Drivers/STM32L5xx_HAL_Driver/Src/stm32l5xx_hal_gtzc.c ****     /* get secure configuration: read each register and deploy each bit value
 336:../../Drivers/STM32L5xx_HAL_Driver/Src/stm32l5xx_hal_gtzc.c ****      * of corresponding index in the destination array
 337:../../Drivers/STM32L5xx_HAL_Driver/Src/stm32l5xx_hal_gtzc.c ****      */
ARM GAS  C:\Users\carlos\AppData\Local\Temp\ccENU8bg.s 			page 13


 338:../../Drivers/STM32L5xx_HAL_Driver/Src/stm32l5xx_hal_gtzc.c ****     reg_value = READ_REG(GTZC_TZSC->SECCFGR1);
 317              		.loc 1 338 5 is_stmt 1 view .LVU79
 318              		.loc 1 338 15 is_stmt 0 view .LVU80
 319 0028 4A4B     		ldr	r3, .L56
 320 002a 1969     		ldr	r1, [r3, #16]
 321              	.LVL24:
 339:../../Drivers/STM32L5xx_HAL_Driver/Src/stm32l5xx_hal_gtzc.c ****     for (i = 0U; i < 32U; i++)
 322              		.loc 1 339 5 is_stmt 1 view .LVU81
 323              		.loc 1 339 12 is_stmt 0 view .LVU82
 324 002c 0023     		movs	r3, #0
 325              		.loc 1 339 5 view .LVU83
 326 002e 04E0     		b	.L30
 327              	.LVL25:
 328              	.L31:
 340:../../Drivers/STM32L5xx_HAL_Driver/Src/stm32l5xx_hal_gtzc.c ****     {
 341:../../Drivers/STM32L5xx_HAL_Driver/Src/stm32l5xx_hal_gtzc.c ****       if (((reg_value & (1UL << i)) >> i) != 0U)
 342:../../Drivers/STM32L5xx_HAL_Driver/Src/stm32l5xx_hal_gtzc.c ****       {
 343:../../Drivers/STM32L5xx_HAL_Driver/Src/stm32l5xx_hal_gtzc.c ****         PeriphAttributes[i] = GTZC_TZSC_PERIPH_SEC;
 344:../../Drivers/STM32L5xx_HAL_Driver/Src/stm32l5xx_hal_gtzc.c ****       }
 345:../../Drivers/STM32L5xx_HAL_Driver/Src/stm32l5xx_hal_gtzc.c ****       else
 346:../../Drivers/STM32L5xx_HAL_Driver/Src/stm32l5xx_hal_gtzc.c ****       {
 347:../../Drivers/STM32L5xx_HAL_Driver/Src/stm32l5xx_hal_gtzc.c ****         PeriphAttributes[i] = GTZC_TZSC_PERIPH_NSEC;
 329              		.loc 1 347 9 is_stmt 1 view .LVU84
 330              		.loc 1 347 29 is_stmt 0 view .LVU85
 331 0030 4FF48072 		mov	r2, #256
 332 0034 4CF82320 		str	r2, [ip, r3, lsl #2]
 333              	.L32:
 339:../../Drivers/STM32L5xx_HAL_Driver/Src/stm32l5xx_hal_gtzc.c ****     for (i = 0U; i < 32U; i++)
 334              		.loc 1 339 27 is_stmt 1 discriminator 2 view .LVU86
 339:../../Drivers/STM32L5xx_HAL_Driver/Src/stm32l5xx_hal_gtzc.c ****     for (i = 0U; i < 32U; i++)
 335              		.loc 1 339 28 is_stmt 0 discriminator 2 view .LVU87
 336 0038 0133     		adds	r3, r3, #1
 337              	.LVL26:
 338              	.L30:
 339:../../Drivers/STM32L5xx_HAL_Driver/Src/stm32l5xx_hal_gtzc.c ****     for (i = 0U; i < 32U; i++)
 339              		.loc 1 339 18 is_stmt 1 discriminator 1 view .LVU88
 339:../../Drivers/STM32L5xx_HAL_Driver/Src/stm32l5xx_hal_gtzc.c ****     for (i = 0U; i < 32U; i++)
 340              		.loc 1 339 5 is_stmt 0 discriminator 1 view .LVU89
 341 003a 1F2B     		cmp	r3, #31
 342 003c 09D8     		bhi	.L52
 341:../../Drivers/STM32L5xx_HAL_Driver/Src/stm32l5xx_hal_gtzc.c ****       {
 343              		.loc 1 341 7 is_stmt 1 view .LVU90
 341:../../Drivers/STM32L5xx_HAL_Driver/Src/stm32l5xx_hal_gtzc.c ****       {
 344              		.loc 1 341 30 is_stmt 0 view .LVU91
 345 003e 0122     		movs	r2, #1
 346 0040 9A40     		lsls	r2, r2, r3
 341:../../Drivers/STM32L5xx_HAL_Driver/Src/stm32l5xx_hal_gtzc.c ****       {
 347              		.loc 1 341 23 view .LVU92
 348 0042 0A40     		ands	r2, r2, r1
 341:../../Drivers/STM32L5xx_HAL_Driver/Src/stm32l5xx_hal_gtzc.c ****       {
 349              		.loc 1 341 10 view .LVU93
 350 0044 DA40     		lsrs	r2, r2, r3
 351 0046 F3D0     		beq	.L31
 343:../../Drivers/STM32L5xx_HAL_Driver/Src/stm32l5xx_hal_gtzc.c ****       }
 352              		.loc 1 343 9 is_stmt 1 view .LVU94
 343:../../Drivers/STM32L5xx_HAL_Driver/Src/stm32l5xx_hal_gtzc.c ****       }
 353              		.loc 1 343 29 is_stmt 0 view .LVU95
ARM GAS  C:\Users\carlos\AppData\Local\Temp\ccENU8bg.s 			page 14


 354 0048 40F20112 		movw	r2, #257
 355 004c 4CF82320 		str	r2, [ip, r3, lsl #2]
 356 0050 F2E7     		b	.L32
 357              	.L52:
 348:../../Drivers/STM32L5xx_HAL_Driver/Src/stm32l5xx_hal_gtzc.c ****       }
 349:../../Drivers/STM32L5xx_HAL_Driver/Src/stm32l5xx_hal_gtzc.c ****     }
 350:../../Drivers/STM32L5xx_HAL_Driver/Src/stm32l5xx_hal_gtzc.c **** 
 351:../../Drivers/STM32L5xx_HAL_Driver/Src/stm32l5xx_hal_gtzc.c ****     reg_value = READ_REG(GTZC_TZSC->SECCFGR2);
 358              		.loc 1 351 5 is_stmt 1 view .LVU96
 359              		.loc 1 351 15 is_stmt 0 view .LVU97
 360 0052 404A     		ldr	r2, .L56
 361 0054 5069     		ldr	r0, [r2, #20]
 362              	.LVL27:
 352:../../Drivers/STM32L5xx_HAL_Driver/Src/stm32l5xx_hal_gtzc.c ****     for (/*i = 32U*/; i < GTZC_TZSC_PERIPH_NUMBER; i++)
 363              		.loc 1 352 5 is_stmt 1 view .LVU98
 364 0056 04E0     		b	.L34
 365              	.L35:
 353:../../Drivers/STM32L5xx_HAL_Driver/Src/stm32l5xx_hal_gtzc.c ****     {
 354:../../Drivers/STM32L5xx_HAL_Driver/Src/stm32l5xx_hal_gtzc.c ****       if (((reg_value & (1UL << (i - 32U))) >> (i - 32U)) != 0U)
 355:../../Drivers/STM32L5xx_HAL_Driver/Src/stm32l5xx_hal_gtzc.c ****       {
 356:../../Drivers/STM32L5xx_HAL_Driver/Src/stm32l5xx_hal_gtzc.c ****         PeriphAttributes[i] = GTZC_TZSC_PERIPH_SEC;
 357:../../Drivers/STM32L5xx_HAL_Driver/Src/stm32l5xx_hal_gtzc.c ****       }
 358:../../Drivers/STM32L5xx_HAL_Driver/Src/stm32l5xx_hal_gtzc.c ****       else
 359:../../Drivers/STM32L5xx_HAL_Driver/Src/stm32l5xx_hal_gtzc.c ****       {
 360:../../Drivers/STM32L5xx_HAL_Driver/Src/stm32l5xx_hal_gtzc.c ****         PeriphAttributes[i] = GTZC_TZSC_PERIPH_NSEC;
 366              		.loc 1 360 9 view .LVU99
 367              		.loc 1 360 29 is_stmt 0 view .LVU100
 368 0058 4FF48072 		mov	r2, #256
 369 005c 4CF82320 		str	r2, [ip, r3, lsl #2]
 370              	.L36:
 352:../../Drivers/STM32L5xx_HAL_Driver/Src/stm32l5xx_hal_gtzc.c ****     for (/*i = 32U*/; i < GTZC_TZSC_PERIPH_NUMBER; i++)
 371              		.loc 1 352 52 is_stmt 1 view .LVU101
 352:../../Drivers/STM32L5xx_HAL_Driver/Src/stm32l5xx_hal_gtzc.c ****     for (/*i = 32U*/; i < GTZC_TZSC_PERIPH_NUMBER; i++)
 372              		.loc 1 352 53 is_stmt 0 view .LVU102
 373 0060 0133     		adds	r3, r3, #1
 374              	.LVL28:
 375              	.L34:
 352:../../Drivers/STM32L5xx_HAL_Driver/Src/stm32l5xx_hal_gtzc.c ****     for (/*i = 32U*/; i < GTZC_TZSC_PERIPH_NUMBER; i++)
 376              		.loc 1 352 23 is_stmt 1 discriminator 1 view .LVU103
 352:../../Drivers/STM32L5xx_HAL_Driver/Src/stm32l5xx_hal_gtzc.c ****     for (/*i = 32U*/; i < GTZC_TZSC_PERIPH_NUMBER; i++)
 377              		.loc 1 352 5 is_stmt 0 discriminator 1 view .LVU104
 378 0062 322B     		cmp	r3, #50
 379 0064 0BD8     		bhi	.L53
 354:../../Drivers/STM32L5xx_HAL_Driver/Src/stm32l5xx_hal_gtzc.c ****       {
 380              		.loc 1 354 7 is_stmt 1 view .LVU105
 354:../../Drivers/STM32L5xx_HAL_Driver/Src/stm32l5xx_hal_gtzc.c ****       {
 381              		.loc 1 354 36 is_stmt 0 view .LVU106
 382 0066 A3F12001 		sub	r1, r3, #32
 354:../../Drivers/STM32L5xx_HAL_Driver/Src/stm32l5xx_hal_gtzc.c ****       {
 383              		.loc 1 354 30 view .LVU107
 384 006a 0122     		movs	r2, #1
 385 006c 8A40     		lsls	r2, r2, r1
 354:../../Drivers/STM32L5xx_HAL_Driver/Src/stm32l5xx_hal_gtzc.c ****       {
 386              		.loc 1 354 23 view .LVU108
 387 006e 0240     		ands	r2, r2, r0
 354:../../Drivers/STM32L5xx_HAL_Driver/Src/stm32l5xx_hal_gtzc.c ****       {
 388              		.loc 1 354 10 view .LVU109
ARM GAS  C:\Users\carlos\AppData\Local\Temp\ccENU8bg.s 			page 15


 389 0070 CA40     		lsrs	r2, r2, r1
 390 0072 F1D0     		beq	.L35
 356:../../Drivers/STM32L5xx_HAL_Driver/Src/stm32l5xx_hal_gtzc.c ****       }
 391              		.loc 1 356 9 is_stmt 1 view .LVU110
 356:../../Drivers/STM32L5xx_HAL_Driver/Src/stm32l5xx_hal_gtzc.c ****       }
 392              		.loc 1 356 29 is_stmt 0 view .LVU111
 393 0074 40F20112 		movw	r2, #257
 394 0078 4CF82320 		str	r2, [ip, r3, lsl #2]
 395 007c F0E7     		b	.L36
 396              	.L53:
 361:../../Drivers/STM32L5xx_HAL_Driver/Src/stm32l5xx_hal_gtzc.c ****       }
 362:../../Drivers/STM32L5xx_HAL_Driver/Src/stm32l5xx_hal_gtzc.c ****     }
 363:../../Drivers/STM32L5xx_HAL_Driver/Src/stm32l5xx_hal_gtzc.c **** 
 364:../../Drivers/STM32L5xx_HAL_Driver/Src/stm32l5xx_hal_gtzc.c ****     /* get privilege configuration: read each register and deploy each bit value
 365:../../Drivers/STM32L5xx_HAL_Driver/Src/stm32l5xx_hal_gtzc.c ****      * of corresponding index in the destination array
 366:../../Drivers/STM32L5xx_HAL_Driver/Src/stm32l5xx_hal_gtzc.c ****      */
 367:../../Drivers/STM32L5xx_HAL_Driver/Src/stm32l5xx_hal_gtzc.c ****     reg_value = READ_REG(GTZC_TZSC->PRIVCFGR1);
 397              		.loc 1 367 5 is_stmt 1 view .LVU112
 398              		.loc 1 367 15 is_stmt 0 view .LVU113
 399 007e 354B     		ldr	r3, .L56
 400              	.LVL29:
 401              		.loc 1 367 15 view .LVU114
 402 0080 196A     		ldr	r1, [r3, #32]
 403              	.LVL30:
 368:../../Drivers/STM32L5xx_HAL_Driver/Src/stm32l5xx_hal_gtzc.c ****     for (i = 0U; i < 32U; i++)
 404              		.loc 1 368 5 is_stmt 1 view .LVU115
 405              		.loc 1 368 12 is_stmt 0 view .LVU116
 406 0082 0023     		movs	r3, #0
 407              		.loc 1 368 5 view .LVU117
 408 0084 06E0     		b	.L38
 409              	.LVL31:
 410              	.L39:
 369:../../Drivers/STM32L5xx_HAL_Driver/Src/stm32l5xx_hal_gtzc.c ****     {
 370:../../Drivers/STM32L5xx_HAL_Driver/Src/stm32l5xx_hal_gtzc.c ****       if (((reg_value & (1UL << i)) >> i) != 0U)
 371:../../Drivers/STM32L5xx_HAL_Driver/Src/stm32l5xx_hal_gtzc.c ****       {
 372:../../Drivers/STM32L5xx_HAL_Driver/Src/stm32l5xx_hal_gtzc.c ****         PeriphAttributes[i] |= GTZC_TZSC_PERIPH_PRIV;
 373:../../Drivers/STM32L5xx_HAL_Driver/Src/stm32l5xx_hal_gtzc.c ****       }
 374:../../Drivers/STM32L5xx_HAL_Driver/Src/stm32l5xx_hal_gtzc.c ****       else
 375:../../Drivers/STM32L5xx_HAL_Driver/Src/stm32l5xx_hal_gtzc.c ****       {
 376:../../Drivers/STM32L5xx_HAL_Driver/Src/stm32l5xx_hal_gtzc.c ****         PeriphAttributes[i] |= GTZC_TZSC_PERIPH_NPRIV;
 411              		.loc 1 376 9 is_stmt 1 view .LVU118
 412              		.loc 1 376 29 is_stmt 0 view .LVU119
 413 0086 5CF82320 		ldr	r2, [ip, r3, lsl #2]
 414 008a 42F40072 		orr	r2, r2, #512
 415 008e 4CF82320 		str	r2, [ip, r3, lsl #2]
 416              	.L40:
 368:../../Drivers/STM32L5xx_HAL_Driver/Src/stm32l5xx_hal_gtzc.c ****     for (i = 0U; i < 32U; i++)
 417              		.loc 1 368 27 is_stmt 1 discriminator 2 view .LVU120
 368:../../Drivers/STM32L5xx_HAL_Driver/Src/stm32l5xx_hal_gtzc.c ****     for (i = 0U; i < 32U; i++)
 418              		.loc 1 368 28 is_stmt 0 discriminator 2 view .LVU121
 419 0092 0133     		adds	r3, r3, #1
 420              	.LVL32:
 421              	.L38:
 368:../../Drivers/STM32L5xx_HAL_Driver/Src/stm32l5xx_hal_gtzc.c ****     for (i = 0U; i < 32U; i++)
 422              		.loc 1 368 18 is_stmt 1 discriminator 1 view .LVU122
 368:../../Drivers/STM32L5xx_HAL_Driver/Src/stm32l5xx_hal_gtzc.c ****     for (i = 0U; i < 32U; i++)
 423              		.loc 1 368 5 is_stmt 0 discriminator 1 view .LVU123
ARM GAS  C:\Users\carlos\AppData\Local\Temp\ccENU8bg.s 			page 16


 424 0094 1F2B     		cmp	r3, #31
 425 0096 0DD8     		bhi	.L54
 370:../../Drivers/STM32L5xx_HAL_Driver/Src/stm32l5xx_hal_gtzc.c ****       {
 426              		.loc 1 370 7 is_stmt 1 view .LVU124
 370:../../Drivers/STM32L5xx_HAL_Driver/Src/stm32l5xx_hal_gtzc.c ****       {
 427              		.loc 1 370 30 is_stmt 0 view .LVU125
 428 0098 0122     		movs	r2, #1
 429 009a 9A40     		lsls	r2, r2, r3
 370:../../Drivers/STM32L5xx_HAL_Driver/Src/stm32l5xx_hal_gtzc.c ****       {
 430              		.loc 1 370 23 view .LVU126
 431 009c 0A40     		ands	r2, r2, r1
 370:../../Drivers/STM32L5xx_HAL_Driver/Src/stm32l5xx_hal_gtzc.c ****       {
 432              		.loc 1 370 10 view .LVU127
 433 009e DA40     		lsrs	r2, r2, r3
 434 00a0 F1D0     		beq	.L39
 372:../../Drivers/STM32L5xx_HAL_Driver/Src/stm32l5xx_hal_gtzc.c ****       }
 435              		.loc 1 372 9 is_stmt 1 view .LVU128
 372:../../Drivers/STM32L5xx_HAL_Driver/Src/stm32l5xx_hal_gtzc.c ****       }
 436              		.loc 1 372 29 is_stmt 0 view .LVU129
 437 00a2 5CF82320 		ldr	r2, [ip, r3, lsl #2]
 438 00a6 42F40072 		orr	r2, r2, #512
 439 00aa 42F00202 		orr	r2, r2, #2
 440 00ae 4CF82320 		str	r2, [ip, r3, lsl #2]
 441 00b2 EEE7     		b	.L40
 442              	.L54:
 377:../../Drivers/STM32L5xx_HAL_Driver/Src/stm32l5xx_hal_gtzc.c ****       }
 378:../../Drivers/STM32L5xx_HAL_Driver/Src/stm32l5xx_hal_gtzc.c ****     }
 379:../../Drivers/STM32L5xx_HAL_Driver/Src/stm32l5xx_hal_gtzc.c **** 
 380:../../Drivers/STM32L5xx_HAL_Driver/Src/stm32l5xx_hal_gtzc.c ****     reg_value = READ_REG(GTZC_TZSC->PRIVCFGR2);
 443              		.loc 1 380 5 is_stmt 1 view .LVU130
 444              		.loc 1 380 15 is_stmt 0 view .LVU131
 445 00b4 274A     		ldr	r2, .L56
 446 00b6 506A     		ldr	r0, [r2, #36]
 447              	.LVL33:
 381:../../Drivers/STM32L5xx_HAL_Driver/Src/stm32l5xx_hal_gtzc.c ****     for (/*i = 32U*/; i < GTZC_TZSC_PERIPH_NUMBER; i++)
 448              		.loc 1 381 5 is_stmt 1 view .LVU132
 449 00b8 06E0     		b	.L42
 450              	.L43:
 382:../../Drivers/STM32L5xx_HAL_Driver/Src/stm32l5xx_hal_gtzc.c ****     {
 383:../../Drivers/STM32L5xx_HAL_Driver/Src/stm32l5xx_hal_gtzc.c ****       if (((reg_value & (1UL << (i - 32U))) >> (i - 32U)) != 0U)
 384:../../Drivers/STM32L5xx_HAL_Driver/Src/stm32l5xx_hal_gtzc.c ****       {
 385:../../Drivers/STM32L5xx_HAL_Driver/Src/stm32l5xx_hal_gtzc.c ****         PeriphAttributes[i] |= GTZC_TZSC_PERIPH_PRIV;
 386:../../Drivers/STM32L5xx_HAL_Driver/Src/stm32l5xx_hal_gtzc.c ****       }
 387:../../Drivers/STM32L5xx_HAL_Driver/Src/stm32l5xx_hal_gtzc.c ****       else
 388:../../Drivers/STM32L5xx_HAL_Driver/Src/stm32l5xx_hal_gtzc.c ****       {
 389:../../Drivers/STM32L5xx_HAL_Driver/Src/stm32l5xx_hal_gtzc.c ****         PeriphAttributes[i] |= GTZC_TZSC_PERIPH_NPRIV;
 451              		.loc 1 389 9 view .LVU133
 452              		.loc 1 389 29 is_stmt 0 view .LVU134
 453 00ba 5CF82320 		ldr	r2, [ip, r3, lsl #2]
 454 00be 42F40072 		orr	r2, r2, #512
 455 00c2 4CF82320 		str	r2, [ip, r3, lsl #2]
 456              	.L44:
 381:../../Drivers/STM32L5xx_HAL_Driver/Src/stm32l5xx_hal_gtzc.c ****     for (/*i = 32U*/; i < GTZC_TZSC_PERIPH_NUMBER; i++)
 457              		.loc 1 381 52 is_stmt 1 view .LVU135
 381:../../Drivers/STM32L5xx_HAL_Driver/Src/stm32l5xx_hal_gtzc.c ****     for (/*i = 32U*/; i < GTZC_TZSC_PERIPH_NUMBER; i++)
 458              		.loc 1 381 53 is_stmt 0 view .LVU136
 459 00c6 0133     		adds	r3, r3, #1
ARM GAS  C:\Users\carlos\AppData\Local\Temp\ccENU8bg.s 			page 17


 460              	.LVL34:
 461              	.L42:
 381:../../Drivers/STM32L5xx_HAL_Driver/Src/stm32l5xx_hal_gtzc.c ****     for (/*i = 32U*/; i < GTZC_TZSC_PERIPH_NUMBER; i++)
 462              		.loc 1 381 23 is_stmt 1 discriminator 1 view .LVU137
 381:../../Drivers/STM32L5xx_HAL_Driver/Src/stm32l5xx_hal_gtzc.c ****     for (/*i = 32U*/; i < GTZC_TZSC_PERIPH_NUMBER; i++)
 463              		.loc 1 381 5 is_stmt 0 discriminator 1 view .LVU138
 464 00c8 322B     		cmp	r3, #50
 465 00ca 0FD8     		bhi	.L55
 383:../../Drivers/STM32L5xx_HAL_Driver/Src/stm32l5xx_hal_gtzc.c ****       {
 466              		.loc 1 383 7 is_stmt 1 view .LVU139
 383:../../Drivers/STM32L5xx_HAL_Driver/Src/stm32l5xx_hal_gtzc.c ****       {
 467              		.loc 1 383 36 is_stmt 0 view .LVU140
 468 00cc A3F12001 		sub	r1, r3, #32
 383:../../Drivers/STM32L5xx_HAL_Driver/Src/stm32l5xx_hal_gtzc.c ****       {
 469              		.loc 1 383 30 view .LVU141
 470 00d0 0122     		movs	r2, #1
 471 00d2 8A40     		lsls	r2, r2, r1
 383:../../Drivers/STM32L5xx_HAL_Driver/Src/stm32l5xx_hal_gtzc.c ****       {
 472              		.loc 1 383 23 view .LVU142
 473 00d4 0240     		ands	r2, r2, r0
 383:../../Drivers/STM32L5xx_HAL_Driver/Src/stm32l5xx_hal_gtzc.c ****       {
 474              		.loc 1 383 10 view .LVU143
 475 00d6 CA40     		lsrs	r2, r2, r1
 476 00d8 EFD0     		beq	.L43
 385:../../Drivers/STM32L5xx_HAL_Driver/Src/stm32l5xx_hal_gtzc.c ****       }
 477              		.loc 1 385 9 is_stmt 1 view .LVU144
 385:../../Drivers/STM32L5xx_HAL_Driver/Src/stm32l5xx_hal_gtzc.c ****       }
 478              		.loc 1 385 29 is_stmt 0 view .LVU145
 479 00da 5CF82320 		ldr	r2, [ip, r3, lsl #2]
 480 00de 42F40072 		orr	r2, r2, #512
 481 00e2 42F00202 		orr	r2, r2, #2
 482 00e6 4CF82320 		str	r2, [ip, r3, lsl #2]
 483 00ea ECE7     		b	.L44
 484              	.L55:
 390:../../Drivers/STM32L5xx_HAL_Driver/Src/stm32l5xx_hal_gtzc.c ****       }
 391:../../Drivers/STM32L5xx_HAL_Driver/Src/stm32l5xx_hal_gtzc.c ****     }
 392:../../Drivers/STM32L5xx_HAL_Driver/Src/stm32l5xx_hal_gtzc.c **** 
 393:../../Drivers/STM32L5xx_HAL_Driver/Src/stm32l5xx_hal_gtzc.c ****   }
 394:../../Drivers/STM32L5xx_HAL_Driver/Src/stm32l5xx_hal_gtzc.c ****   else
 395:../../Drivers/STM32L5xx_HAL_Driver/Src/stm32l5xx_hal_gtzc.c ****   {
 396:../../Drivers/STM32L5xx_HAL_Driver/Src/stm32l5xx_hal_gtzc.c ****     /* common case where only one peripheral is configured */
 397:../../Drivers/STM32L5xx_HAL_Driver/Src/stm32l5xx_hal_gtzc.c **** 
 398:../../Drivers/STM32L5xx_HAL_Driver/Src/stm32l5xx_hal_gtzc.c ****     /* secure configuration */
 399:../../Drivers/STM32L5xx_HAL_Driver/Src/stm32l5xx_hal_gtzc.c ****     register_address = (uint32_t) &(GTZC_TZSC->SECCFGR1) + (4U * GTZC_GET_REG_INDEX(PeriphId));
 400:../../Drivers/STM32L5xx_HAL_Driver/Src/stm32l5xx_hal_gtzc.c **** 
 401:../../Drivers/STM32L5xx_HAL_Driver/Src/stm32l5xx_hal_gtzc.c ****     if (((READ_BIT(*(__IO uint32_t *)register_address,
 402:../../Drivers/STM32L5xx_HAL_Driver/Src/stm32l5xx_hal_gtzc.c ****                    1UL << GTZC_GET_PERIPH_POS(PeriphId))) >> GTZC_GET_PERIPH_POS(PeriphId))
 403:../../Drivers/STM32L5xx_HAL_Driver/Src/stm32l5xx_hal_gtzc.c ****         != 0U)
 404:../../Drivers/STM32L5xx_HAL_Driver/Src/stm32l5xx_hal_gtzc.c ****     {
 405:../../Drivers/STM32L5xx_HAL_Driver/Src/stm32l5xx_hal_gtzc.c ****       *PeriphAttributes = GTZC_TZSC_PERIPH_SEC;
 406:../../Drivers/STM32L5xx_HAL_Driver/Src/stm32l5xx_hal_gtzc.c ****     }
 407:../../Drivers/STM32L5xx_HAL_Driver/Src/stm32l5xx_hal_gtzc.c ****     else
 408:../../Drivers/STM32L5xx_HAL_Driver/Src/stm32l5xx_hal_gtzc.c ****     {
 409:../../Drivers/STM32L5xx_HAL_Driver/Src/stm32l5xx_hal_gtzc.c ****       *PeriphAttributes = GTZC_TZSC_PERIPH_NSEC;
 410:../../Drivers/STM32L5xx_HAL_Driver/Src/stm32l5xx_hal_gtzc.c ****     }
 411:../../Drivers/STM32L5xx_HAL_Driver/Src/stm32l5xx_hal_gtzc.c **** 
 412:../../Drivers/STM32L5xx_HAL_Driver/Src/stm32l5xx_hal_gtzc.c ****     /* privilege configuration */
ARM GAS  C:\Users\carlos\AppData\Local\Temp\ccENU8bg.s 			page 18


 413:../../Drivers/STM32L5xx_HAL_Driver/Src/stm32l5xx_hal_gtzc.c ****     register_address = (uint32_t) &(GTZC_TZSC->PRIVCFGR1) + (4U * GTZC_GET_REG_INDEX(PeriphId));
 414:../../Drivers/STM32L5xx_HAL_Driver/Src/stm32l5xx_hal_gtzc.c **** 
 415:../../Drivers/STM32L5xx_HAL_Driver/Src/stm32l5xx_hal_gtzc.c ****     if (((READ_BIT(*(__IO uint32_t *)register_address,
 416:../../Drivers/STM32L5xx_HAL_Driver/Src/stm32l5xx_hal_gtzc.c ****                    1UL << GTZC_GET_PERIPH_POS(PeriphId))) >> GTZC_GET_PERIPH_POS(PeriphId))
 417:../../Drivers/STM32L5xx_HAL_Driver/Src/stm32l5xx_hal_gtzc.c ****         != 0U)
 418:../../Drivers/STM32L5xx_HAL_Driver/Src/stm32l5xx_hal_gtzc.c ****     {
 419:../../Drivers/STM32L5xx_HAL_Driver/Src/stm32l5xx_hal_gtzc.c ****       *PeriphAttributes |= GTZC_TZSC_PERIPH_PRIV;
 420:../../Drivers/STM32L5xx_HAL_Driver/Src/stm32l5xx_hal_gtzc.c ****     }
 421:../../Drivers/STM32L5xx_HAL_Driver/Src/stm32l5xx_hal_gtzc.c ****     else
 422:../../Drivers/STM32L5xx_HAL_Driver/Src/stm32l5xx_hal_gtzc.c ****     {
 423:../../Drivers/STM32L5xx_HAL_Driver/Src/stm32l5xx_hal_gtzc.c ****       *PeriphAttributes |= GTZC_TZSC_PERIPH_NPRIV;
 424:../../Drivers/STM32L5xx_HAL_Driver/Src/stm32l5xx_hal_gtzc.c ****     }
 425:../../Drivers/STM32L5xx_HAL_Driver/Src/stm32l5xx_hal_gtzc.c ****   }
 426:../../Drivers/STM32L5xx_HAL_Driver/Src/stm32l5xx_hal_gtzc.c ****   return HAL_OK;
 485              		.loc 1 426 10 view .LVU146
 486 00ec 0020     		movs	r0, #0
 487              	.LVL35:
 488              		.loc 1 426 10 view .LVU147
 489 00ee 7047     		bx	lr
 490              	.LVL36:
 491              	.L29:
 399:../../Drivers/STM32L5xx_HAL_Driver/Src/stm32l5xx_hal_gtzc.c **** 
 492              		.loc 1 399 5 is_stmt 1 view .LVU148
 399:../../Drivers/STM32L5xx_HAL_Driver/Src/stm32l5xx_hal_gtzc.c **** 
 493              		.loc 1 399 58 is_stmt 0 view .LVU149
 494 00f0 1949     		ldr	r1, .L56+4
 495 00f2 1144     		add	r1, r1, r2
 399:../../Drivers/STM32L5xx_HAL_Driver/Src/stm32l5xx_hal_gtzc.c **** 
 496              		.loc 1 399 22 view .LVU150
 497 00f4 8900     		lsls	r1, r1, #2
 498              	.LVL37:
 401:../../Drivers/STM32L5xx_HAL_Driver/Src/stm32l5xx_hal_gtzc.c ****                    1UL << GTZC_GET_PERIPH_POS(PeriphId))) >> GTZC_GET_PERIPH_POS(PeriphId))
 499              		.loc 1 401 5 is_stmt 1 view .LVU151
 401:../../Drivers/STM32L5xx_HAL_Driver/Src/stm32l5xx_hal_gtzc.c ****                    1UL << GTZC_GET_PERIPH_POS(PeriphId))) >> GTZC_GET_PERIPH_POS(PeriphId))
 500              		.loc 1 401 11 is_stmt 0 view .LVU152
 501 00f6 0868     		ldr	r0, [r1]
 502 00f8 0121     		movs	r1, #1
 503              	.LVL38:
 401:../../Drivers/STM32L5xx_HAL_Driver/Src/stm32l5xx_hal_gtzc.c ****                    1UL << GTZC_GET_PERIPH_POS(PeriphId))) >> GTZC_GET_PERIPH_POS(PeriphId))
 504              		.loc 1 401 11 view .LVU153
 505 00fa 9940     		lsls	r1, r1, r3
 506 00fc 0840     		ands	r0, r0, r1
 401:../../Drivers/STM32L5xx_HAL_Driver/Src/stm32l5xx_hal_gtzc.c ****                    1UL << GTZC_GET_PERIPH_POS(PeriphId))) >> GTZC_GET_PERIPH_POS(PeriphId))
 507              		.loc 1 401 8 view .LVU154
 508 00fe D840     		lsrs	r0, r0, r3
 509 0100 15D0     		beq	.L46
 405:../../Drivers/STM32L5xx_HAL_Driver/Src/stm32l5xx_hal_gtzc.c ****     }
 510              		.loc 1 405 7 is_stmt 1 view .LVU155
 405:../../Drivers/STM32L5xx_HAL_Driver/Src/stm32l5xx_hal_gtzc.c ****     }
 511              		.loc 1 405 25 is_stmt 0 view .LVU156
 512 0102 40F20110 		movw	r0, #257
 513 0106 CCF80000 		str	r0, [ip]
 514              	.L47:
 413:../../Drivers/STM32L5xx_HAL_Driver/Src/stm32l5xx_hal_gtzc.c **** 
 515              		.loc 1 413 5 is_stmt 1 view .LVU157
 413:../../Drivers/STM32L5xx_HAL_Driver/Src/stm32l5xx_hal_gtzc.c **** 
 516              		.loc 1 413 59 is_stmt 0 view .LVU158
ARM GAS  C:\Users\carlos\AppData\Local\Temp\ccENU8bg.s 			page 19


 517 010a 1448     		ldr	r0, .L56+8
 518 010c 1044     		add	r0, r0, r2
 413:../../Drivers/STM32L5xx_HAL_Driver/Src/stm32l5xx_hal_gtzc.c **** 
 519              		.loc 1 413 22 view .LVU159
 520 010e 8000     		lsls	r0, r0, #2
 521              	.LVL39:
 415:../../Drivers/STM32L5xx_HAL_Driver/Src/stm32l5xx_hal_gtzc.c ****                    1UL << GTZC_GET_PERIPH_POS(PeriphId))) >> GTZC_GET_PERIPH_POS(PeriphId))
 522              		.loc 1 415 5 is_stmt 1 view .LVU160
 415:../../Drivers/STM32L5xx_HAL_Driver/Src/stm32l5xx_hal_gtzc.c ****                    1UL << GTZC_GET_PERIPH_POS(PeriphId))) >> GTZC_GET_PERIPH_POS(PeriphId))
 523              		.loc 1 415 11 is_stmt 0 view .LVU161
 524 0110 0268     		ldr	r2, [r0]
 525 0112 1140     		ands	r1, r1, r2
 415:../../Drivers/STM32L5xx_HAL_Driver/Src/stm32l5xx_hal_gtzc.c ****                    1UL << GTZC_GET_PERIPH_POS(PeriphId))) >> GTZC_GET_PERIPH_POS(PeriphId))
 526              		.loc 1 415 8 view .LVU162
 527 0114 31FA03F3 		lsrs	r3, r1, r3
 528 0118 0ED0     		beq	.L48
 419:../../Drivers/STM32L5xx_HAL_Driver/Src/stm32l5xx_hal_gtzc.c ****     }
 529              		.loc 1 419 7 is_stmt 1 view .LVU163
 419:../../Drivers/STM32L5xx_HAL_Driver/Src/stm32l5xx_hal_gtzc.c ****     }
 530              		.loc 1 419 25 is_stmt 0 view .LVU164
 531 011a DCF80030 		ldr	r3, [ip]
 532 011e 43F40073 		orr	r3, r3, #512
 533 0122 43F00203 		orr	r3, r3, #2
 534 0126 CCF80030 		str	r3, [ip]
 535              		.loc 1 426 10 view .LVU165
 536 012a 0020     		movs	r0, #0
 537              	.LVL40:
 538              		.loc 1 426 10 view .LVU166
 539 012c 7047     		bx	lr
 540              	.LVL41:
 541              	.L46:
 409:../../Drivers/STM32L5xx_HAL_Driver/Src/stm32l5xx_hal_gtzc.c ****     }
 542              		.loc 1 409 7 is_stmt 1 view .LVU167
 409:../../Drivers/STM32L5xx_HAL_Driver/Src/stm32l5xx_hal_gtzc.c ****     }
 543              		.loc 1 409 25 is_stmt 0 view .LVU168
 544 012e 4FF48070 		mov	r0, #256
 545 0132 CCF80000 		str	r0, [ip]
 546 0136 E8E7     		b	.L47
 547              	.LVL42:
 548              	.L48:
 423:../../Drivers/STM32L5xx_HAL_Driver/Src/stm32l5xx_hal_gtzc.c ****     }
 549              		.loc 1 423 7 is_stmt 1 view .LVU169
 423:../../Drivers/STM32L5xx_HAL_Driver/Src/stm32l5xx_hal_gtzc.c ****     }
 550              		.loc 1 423 25 is_stmt 0 view .LVU170
 551 0138 DCF80030 		ldr	r3, [ip]
 552 013c 43F40073 		orr	r3, r3, #512
 553 0140 CCF80030 		str	r3, [ip]
 554              		.loc 1 426 10 view .LVU171
 555 0144 0020     		movs	r0, #0
 556              	.LVL43:
 557              		.loc 1 426 10 view .LVU172
 558 0146 7047     		bx	lr
 559              	.LVL44:
 560              	.L49:
 330:../../Drivers/STM32L5xx_HAL_Driver/Src/stm32l5xx_hal_gtzc.c ****   }
 561              		.loc 1 330 12 view .LVU173
 562 0148 0120     		movs	r0, #1
ARM GAS  C:\Users\carlos\AppData\Local\Temp\ccENU8bg.s 			page 20


 563              	.LVL45:
 330:../../Drivers/STM32L5xx_HAL_Driver/Src/stm32l5xx_hal_gtzc.c ****   }
 564              		.loc 1 330 12 view .LVU174
 565 014a 7047     		bx	lr
 566              	.LVL46:
 567              	.L50:
 330:../../Drivers/STM32L5xx_HAL_Driver/Src/stm32l5xx_hal_gtzc.c ****   }
 568              		.loc 1 330 12 view .LVU175
 569 014c 0120     		movs	r0, #1
 570              	.LVL47:
 330:../../Drivers/STM32L5xx_HAL_Driver/Src/stm32l5xx_hal_gtzc.c ****   }
 571              		.loc 1 330 12 view .LVU176
 572 014e 7047     		bx	lr
 573              	.L51:
 574 0150 0120     		movs	r0, #1
 427:../../Drivers/STM32L5xx_HAL_Driver/Src/stm32l5xx_hal_gtzc.c **** }
 575              		.loc 1 427 1 view .LVU177
 576 0152 7047     		bx	lr
 577              	.L57:
 578              		.align	2
 579              	.L56:
 580 0154 00240350 		.word	1342383104
 581 0158 04C90014 		.word	335595780
 582 015c 08C90014 		.word	335595784
 583              		.cfi_endproc
 584              	.LFE203:
 586              		.section	.text.HAL_GTZC_TZSC_MPCWM_ConfigMemAttributes,"ax",%progbits
 587              		.align	1
 588              		.global	HAL_GTZC_TZSC_MPCWM_ConfigMemAttributes
 589              		.syntax unified
 590              		.thumb
 591              		.thumb_func
 592              		.fpu fpv4-sp-d16
 594              	HAL_GTZC_TZSC_MPCWM_ConfigMemAttributes:
 595              	.LVL48:
 596              	.LFB204:
 428:../../Drivers/STM32L5xx_HAL_Driver/Src/stm32l5xx_hal_gtzc.c **** 
 429:../../Drivers/STM32L5xx_HAL_Driver/Src/stm32l5xx_hal_gtzc.c **** /**
 430:../../Drivers/STM32L5xx_HAL_Driver/Src/stm32l5xx_hal_gtzc.c ****   * @}
 431:../../Drivers/STM32L5xx_HAL_Driver/Src/stm32l5xx_hal_gtzc.c ****   */
 432:../../Drivers/STM32L5xx_HAL_Driver/Src/stm32l5xx_hal_gtzc.c **** 
 433:../../Drivers/STM32L5xx_HAL_Driver/Src/stm32l5xx_hal_gtzc.c **** #if defined(__ARM_FEATURE_CMSE) && (__ARM_FEATURE_CMSE == 3U)
 434:../../Drivers/STM32L5xx_HAL_Driver/Src/stm32l5xx_hal_gtzc.c **** 
 435:../../Drivers/STM32L5xx_HAL_Driver/Src/stm32l5xx_hal_gtzc.c **** /** @defgroup GTZC_Exported_Functions_Group2 MPCWM Configuration functions
 436:../../Drivers/STM32L5xx_HAL_Driver/Src/stm32l5xx_hal_gtzc.c ****   * @brief    MPCWM Configuration functions
 437:../../Drivers/STM32L5xx_HAL_Driver/Src/stm32l5xx_hal_gtzc.c ****   *
 438:../../Drivers/STM32L5xx_HAL_Driver/Src/stm32l5xx_hal_gtzc.c ****   @verbatim
 439:../../Drivers/STM32L5xx_HAL_Driver/Src/stm32l5xx_hal_gtzc.c ****   ==============================================================================
 440:../../Drivers/STM32L5xx_HAL_Driver/Src/stm32l5xx_hal_gtzc.c ****             ##### MPCWM Configuration functions #####
 441:../../Drivers/STM32L5xx_HAL_Driver/Src/stm32l5xx_hal_gtzc.c ****   ==============================================================================
 442:../../Drivers/STM32L5xx_HAL_Driver/Src/stm32l5xx_hal_gtzc.c ****   [..]
 443:../../Drivers/STM32L5xx_HAL_Driver/Src/stm32l5xx_hal_gtzc.c ****     This section provides functions allowing to configure MPCWM
 444:../../Drivers/STM32L5xx_HAL_Driver/Src/stm32l5xx_hal_gtzc.c ****     MPCWM is Memory Protection Controller WaterMark
 445:../../Drivers/STM32L5xx_HAL_Driver/Src/stm32l5xx_hal_gtzc.c **** @endverbatim
 446:../../Drivers/STM32L5xx_HAL_Driver/Src/stm32l5xx_hal_gtzc.c ****   * @{
 447:../../Drivers/STM32L5xx_HAL_Driver/Src/stm32l5xx_hal_gtzc.c ****   */
 448:../../Drivers/STM32L5xx_HAL_Driver/Src/stm32l5xx_hal_gtzc.c **** 
ARM GAS  C:\Users\carlos\AppData\Local\Temp\ccENU8bg.s 			page 21


 449:../../Drivers/STM32L5xx_HAL_Driver/Src/stm32l5xx_hal_gtzc.c **** /**
 450:../../Drivers/STM32L5xx_HAL_Driver/Src/stm32l5xx_hal_gtzc.c ****   * @brief  Configure a TZSC-MPCWM area.
 451:../../Drivers/STM32L5xx_HAL_Driver/Src/stm32l5xx_hal_gtzc.c ****   * @param  MemBaseAddress WM identifier.
 452:../../Drivers/STM32L5xx_HAL_Driver/Src/stm32l5xx_hal_gtzc.c ****   * @param  pMPCWM_Desc TZSC-MPCWM descriptor pointer.
 453:../../Drivers/STM32L5xx_HAL_Driver/Src/stm32l5xx_hal_gtzc.c ****   *         The structure description is available in @ref GTZC_Exported_Types.
 454:../../Drivers/STM32L5xx_HAL_Driver/Src/stm32l5xx_hal_gtzc.c ****   * @retval HAL status.
 455:../../Drivers/STM32L5xx_HAL_Driver/Src/stm32l5xx_hal_gtzc.c ****   */
 456:../../Drivers/STM32L5xx_HAL_Driver/Src/stm32l5xx_hal_gtzc.c **** HAL_StatusTypeDef HAL_GTZC_TZSC_MPCWM_ConfigMemAttributes(uint32_t MemBaseAddress,
 457:../../Drivers/STM32L5xx_HAL_Driver/Src/stm32l5xx_hal_gtzc.c ****                                                           const MPCWM_ConfigTypeDef *pMPCWM_Desc)
 458:../../Drivers/STM32L5xx_HAL_Driver/Src/stm32l5xx_hal_gtzc.c **** {
 597              		.loc 1 458 1 is_stmt 1 view -0
 598              		.cfi_startproc
 599              		@ args = 0, pretend = 0, frame = 0
 600              		@ frame_needed = 0, uses_anonymous_args = 0
 601              		@ link register save eliminated.
 459:../../Drivers/STM32L5xx_HAL_Driver/Src/stm32l5xx_hal_gtzc.c ****   uint32_t register_address;
 602              		.loc 1 459 3 view .LVU179
 460:../../Drivers/STM32L5xx_HAL_Driver/Src/stm32l5xx_hal_gtzc.c ****   uint32_t reg_value;
 603              		.loc 1 460 3 view .LVU180
 461:../../Drivers/STM32L5xx_HAL_Driver/Src/stm32l5xx_hal_gtzc.c ****   uint32_t size;
 604              		.loc 1 461 3 view .LVU181
 462:../../Drivers/STM32L5xx_HAL_Driver/Src/stm32l5xx_hal_gtzc.c ****   uint32_t start_pos, start_msk;
 605              		.loc 1 462 3 view .LVU182
 463:../../Drivers/STM32L5xx_HAL_Driver/Src/stm32l5xx_hal_gtzc.c ****   uint32_t length_pos, length_msk;
 606              		.loc 1 463 3 view .LVU183
 464:../../Drivers/STM32L5xx_HAL_Driver/Src/stm32l5xx_hal_gtzc.c **** 
 465:../../Drivers/STM32L5xx_HAL_Driver/Src/stm32l5xx_hal_gtzc.c ****   /* check entry parameters */
 466:../../Drivers/STM32L5xx_HAL_Driver/Src/stm32l5xx_hal_gtzc.c ****   if ((pMPCWM_Desc->AreaId > GTZC_TZSC_MPCWM_ID2)
 607              		.loc 1 466 3 view .LVU184
 608              		.loc 1 466 19 is_stmt 0 view .LVU185
 609 0000 0B68     		ldr	r3, [r1]
 610              		.loc 1 466 6 view .LVU186
 611 0002 012B     		cmp	r3, #1
 612 0004 41D8     		bhi	.L64
 467:../../Drivers/STM32L5xx_HAL_Driver/Src/stm32l5xx_hal_gtzc.c ****       || ((MemBaseAddress == FMC_BANK3) && (pMPCWM_Desc->AreaId == GTZC_TZSC_MPCWM_ID2))
 613              		.loc 1 467 7 view .LVU187
 614 0006 B0F1004F 		cmp	r0, #-2147483648
 615 000a 15D0     		beq	.L76
 616              	.L60:
 458:../../Drivers/STM32L5xx_HAL_Driver/Src/stm32l5xx_hal_gtzc.c ****   uint32_t register_address;
 617              		.loc 1 458 1 view .LVU188
 618 000c 10B4     		push	{r4}
 619              	.LCFI5:
 620              		.cfi_def_cfa_offset 4
 621              		.cfi_offset 4, -4
 468:../../Drivers/STM32L5xx_HAL_Driver/Src/stm32l5xx_hal_gtzc.c ****       || ((pMPCWM_Desc->Offset % GTZC_TZSC_MPCWM_GRANULARITY) != 0U)
 622              		.loc 1 468 23 view .LVU189
 623 000e 4A68     		ldr	r2, [r1, #4]
 624              		.loc 1 468 32 view .LVU190
 625 0010 C2F31004 		ubfx	r4, r2, #0, #17
 626              		.loc 1 468 7 view .LVU191
 627 0014 002C     		cmp	r4, #0
 628 0016 3AD1     		bne	.L66
 469:../../Drivers/STM32L5xx_HAL_Driver/Src/stm32l5xx_hal_gtzc.c ****       || ((pMPCWM_Desc->Length % GTZC_TZSC_MPCWM_GRANULARITY) != 0U))
 629              		.loc 1 469 23 view .LVU192
 630 0018 8968     		ldr	r1, [r1, #8]
 631              	.LVL49:
ARM GAS  C:\Users\carlos\AppData\Local\Temp\ccENU8bg.s 			page 22


 632              		.loc 1 469 32 view .LVU193
 633 001a C1F31004 		ubfx	r4, r1, #0, #17
 634              		.loc 1 469 7 view .LVU194
 635 001e 002C     		cmp	r4, #0
 636 0020 39D1     		bne	.L67
 470:../../Drivers/STM32L5xx_HAL_Driver/Src/stm32l5xx_hal_gtzc.c ****   {
 471:../../Drivers/STM32L5xx_HAL_Driver/Src/stm32l5xx_hal_gtzc.c ****     return HAL_ERROR;
 472:../../Drivers/STM32L5xx_HAL_Driver/Src/stm32l5xx_hal_gtzc.c ****   }
 473:../../Drivers/STM32L5xx_HAL_Driver/Src/stm32l5xx_hal_gtzc.c **** 
 474:../../Drivers/STM32L5xx_HAL_Driver/Src/stm32l5xx_hal_gtzc.c ****   /* check descriptor content vs. memory capacity */
 475:../../Drivers/STM32L5xx_HAL_Driver/Src/stm32l5xx_hal_gtzc.c ****   switch (MemBaseAddress)
 637              		.loc 1 475 3 is_stmt 1 view .LVU195
 638 0022 B0F1004F 		cmp	r0, #-2147483648
 639 0026 11D0     		beq	.L68
 640 0028 B0F1104F 		cmp	r0, #-1879048192
 641 002c 08D0     		beq	.L62
 642 002e B0F1C04F 		cmp	r0, #1610612736
 643 0032 08D0     		beq	.L63
 644 0034 0120     		movs	r0, #1
 645              	.LVL50:
 646              		.loc 1 475 3 is_stmt 0 view .LVU196
 647 0036 2BE0     		b	.L59
 648              	.LVL51:
 649              	.L76:
 650              	.LCFI6:
 651              		.cfi_def_cfa_offset 0
 652              		.cfi_restore 4
 467:../../Drivers/STM32L5xx_HAL_Driver/Src/stm32l5xx_hal_gtzc.c ****       || ((pMPCWM_Desc->Offset % GTZC_TZSC_MPCWM_GRANULARITY) != 0U)
 653              		.loc 1 467 41 discriminator 1 view .LVU197
 654 0038 012B     		cmp	r3, #1
 655 003a E7D1     		bne	.L60
 471:../../Drivers/STM32L5xx_HAL_Driver/Src/stm32l5xx_hal_gtzc.c ****   }
 656              		.loc 1 471 12 view .LVU198
 657 003c 0120     		movs	r0, #1
 658              	.LVL52:
 476:../../Drivers/STM32L5xx_HAL_Driver/Src/stm32l5xx_hal_gtzc.c ****   {
 477:../../Drivers/STM32L5xx_HAL_Driver/Src/stm32l5xx_hal_gtzc.c ****     case OCTOSPI1_BASE:
 478:../../Drivers/STM32L5xx_HAL_Driver/Src/stm32l5xx_hal_gtzc.c ****       size = GTZC_TZSC_MPCWM1_MEM_SIZE;
 479:../../Drivers/STM32L5xx_HAL_Driver/Src/stm32l5xx_hal_gtzc.c ****       if (pMPCWM_Desc->AreaId == GTZC_TZSC_MPCWM_ID1)
 480:../../Drivers/STM32L5xx_HAL_Driver/Src/stm32l5xx_hal_gtzc.c ****       {
 481:../../Drivers/STM32L5xx_HAL_Driver/Src/stm32l5xx_hal_gtzc.c ****         register_address = (uint32_t) &(GTZC_TZSC_S->MPCWM1_NSWMR1);
 482:../../Drivers/STM32L5xx_HAL_Driver/Src/stm32l5xx_hal_gtzc.c ****         start_pos = GTZC_TZSC_MPCWM1_NSWMR1_NSWM1STRT_Pos;
 483:../../Drivers/STM32L5xx_HAL_Driver/Src/stm32l5xx_hal_gtzc.c ****         start_msk = GTZC_TZSC_MPCWM1_NSWMR1_NSWM1STRT_Msk;
 484:../../Drivers/STM32L5xx_HAL_Driver/Src/stm32l5xx_hal_gtzc.c ****         length_pos = GTZC_TZSC_MPCWM1_NSWMR1_NSWM1LGTH_Pos;
 485:../../Drivers/STM32L5xx_HAL_Driver/Src/stm32l5xx_hal_gtzc.c ****         length_msk = GTZC_TZSC_MPCWM1_NSWMR1_NSWM1LGTH_Msk;
 486:../../Drivers/STM32L5xx_HAL_Driver/Src/stm32l5xx_hal_gtzc.c ****       }
 487:../../Drivers/STM32L5xx_HAL_Driver/Src/stm32l5xx_hal_gtzc.c ****       else
 488:../../Drivers/STM32L5xx_HAL_Driver/Src/stm32l5xx_hal_gtzc.c ****       {
 489:../../Drivers/STM32L5xx_HAL_Driver/Src/stm32l5xx_hal_gtzc.c ****         /* Here pMPCWM_Desc->AreaId == GTZC_TZSC_MPCWM_ID2
 490:../../Drivers/STM32L5xx_HAL_Driver/Src/stm32l5xx_hal_gtzc.c ****          * (Parameter already checked)
 491:../../Drivers/STM32L5xx_HAL_Driver/Src/stm32l5xx_hal_gtzc.c ****          */
 492:../../Drivers/STM32L5xx_HAL_Driver/Src/stm32l5xx_hal_gtzc.c ****         register_address = (uint32_t) &(GTZC_TZSC_S->MPCWM1_NSWMR2);
 493:../../Drivers/STM32L5xx_HAL_Driver/Src/stm32l5xx_hal_gtzc.c ****         start_pos = GTZC_TZSC_MPCWM1_NSWMR2_NSWM2STRT_Pos;
 494:../../Drivers/STM32L5xx_HAL_Driver/Src/stm32l5xx_hal_gtzc.c ****         start_msk = GTZC_TZSC_MPCWM1_NSWMR2_NSWM2STRT_Msk;
 495:../../Drivers/STM32L5xx_HAL_Driver/Src/stm32l5xx_hal_gtzc.c ****         length_pos = GTZC_TZSC_MPCWM1_NSWMR2_NSWM2LGTH_Pos;
 496:../../Drivers/STM32L5xx_HAL_Driver/Src/stm32l5xx_hal_gtzc.c ****         length_msk = GTZC_TZSC_MPCWM1_NSWMR2_NSWM2LGTH_Msk;
 497:../../Drivers/STM32L5xx_HAL_Driver/Src/stm32l5xx_hal_gtzc.c ****       }
ARM GAS  C:\Users\carlos\AppData\Local\Temp\ccENU8bg.s 			page 23


 498:../../Drivers/STM32L5xx_HAL_Driver/Src/stm32l5xx_hal_gtzc.c ****       break;
 499:../../Drivers/STM32L5xx_HAL_Driver/Src/stm32l5xx_hal_gtzc.c ****     case FMC_BANK1:
 500:../../Drivers/STM32L5xx_HAL_Driver/Src/stm32l5xx_hal_gtzc.c ****       size = GTZC_TZSC_MPCWM1_MEM_SIZE;
 501:../../Drivers/STM32L5xx_HAL_Driver/Src/stm32l5xx_hal_gtzc.c ****       if (pMPCWM_Desc->AreaId == GTZC_TZSC_MPCWM_ID1)
 502:../../Drivers/STM32L5xx_HAL_Driver/Src/stm32l5xx_hal_gtzc.c ****       {
 503:../../Drivers/STM32L5xx_HAL_Driver/Src/stm32l5xx_hal_gtzc.c ****         register_address = (uint32_t) &(GTZC_TZSC_S->MPCWM2_NSWMR1);
 504:../../Drivers/STM32L5xx_HAL_Driver/Src/stm32l5xx_hal_gtzc.c ****         start_pos = GTZC_TZSC_MPCWM2_NSWMR1_NSWM1STRT_Pos;
 505:../../Drivers/STM32L5xx_HAL_Driver/Src/stm32l5xx_hal_gtzc.c ****         start_msk = GTZC_TZSC_MPCWM2_NSWMR1_NSWM1STRT_Msk;
 506:../../Drivers/STM32L5xx_HAL_Driver/Src/stm32l5xx_hal_gtzc.c ****         length_pos = GTZC_TZSC_MPCWM2_NSWMR1_NSWM1LGTH_Pos;
 507:../../Drivers/STM32L5xx_HAL_Driver/Src/stm32l5xx_hal_gtzc.c ****         length_msk = GTZC_TZSC_MPCWM2_NSWMR1_NSWM1LGTH_Msk;
 508:../../Drivers/STM32L5xx_HAL_Driver/Src/stm32l5xx_hal_gtzc.c ****       }
 509:../../Drivers/STM32L5xx_HAL_Driver/Src/stm32l5xx_hal_gtzc.c ****       else
 510:../../Drivers/STM32L5xx_HAL_Driver/Src/stm32l5xx_hal_gtzc.c ****       {
 511:../../Drivers/STM32L5xx_HAL_Driver/Src/stm32l5xx_hal_gtzc.c ****         /* Here pMPCWM_Desc->AreaId == GTZC_TZSC_MPCWM_ID2
 512:../../Drivers/STM32L5xx_HAL_Driver/Src/stm32l5xx_hal_gtzc.c ****          * (Parameter already checked)
 513:../../Drivers/STM32L5xx_HAL_Driver/Src/stm32l5xx_hal_gtzc.c ****          */
 514:../../Drivers/STM32L5xx_HAL_Driver/Src/stm32l5xx_hal_gtzc.c ****         register_address = (uint32_t) &(GTZC_TZSC_S->MPCWM2_NSWMR2);
 515:../../Drivers/STM32L5xx_HAL_Driver/Src/stm32l5xx_hal_gtzc.c ****         start_pos = GTZC_TZSC_MPCWM2_NSWMR2_NSWM2STRT_Pos;
 516:../../Drivers/STM32L5xx_HAL_Driver/Src/stm32l5xx_hal_gtzc.c ****         start_msk = GTZC_TZSC_MPCWM2_NSWMR2_NSWM2STRT_Msk;
 517:../../Drivers/STM32L5xx_HAL_Driver/Src/stm32l5xx_hal_gtzc.c ****         length_pos = GTZC_TZSC_MPCWM2_NSWMR2_NSWM2LGTH_Pos;
 518:../../Drivers/STM32L5xx_HAL_Driver/Src/stm32l5xx_hal_gtzc.c ****         length_msk = GTZC_TZSC_MPCWM2_NSWMR2_NSWM2LGTH_Msk;
 519:../../Drivers/STM32L5xx_HAL_Driver/Src/stm32l5xx_hal_gtzc.c ****       }
 520:../../Drivers/STM32L5xx_HAL_Driver/Src/stm32l5xx_hal_gtzc.c ****       break;
 521:../../Drivers/STM32L5xx_HAL_Driver/Src/stm32l5xx_hal_gtzc.c ****     case FMC_BANK3:
 522:../../Drivers/STM32L5xx_HAL_Driver/Src/stm32l5xx_hal_gtzc.c ****       /* Here pMPCWM_Desc->AreaId == GTZC_TZSC_MPCWM_ID1
 523:../../Drivers/STM32L5xx_HAL_Driver/Src/stm32l5xx_hal_gtzc.c ****        * (Parameter already checked)
 524:../../Drivers/STM32L5xx_HAL_Driver/Src/stm32l5xx_hal_gtzc.c ****        */
 525:../../Drivers/STM32L5xx_HAL_Driver/Src/stm32l5xx_hal_gtzc.c ****       size = GTZC_TZSC_MPCWM3_MEM_SIZE;
 526:../../Drivers/STM32L5xx_HAL_Driver/Src/stm32l5xx_hal_gtzc.c ****       register_address = (uint32_t) &(GTZC_TZSC_S->MPCWM3_NSWMR1);
 527:../../Drivers/STM32L5xx_HAL_Driver/Src/stm32l5xx_hal_gtzc.c ****       start_pos = GTZC_TZSC_MPCWM3_NSWMR1_NSWM1STRT_Pos;
 528:../../Drivers/STM32L5xx_HAL_Driver/Src/stm32l5xx_hal_gtzc.c ****       start_msk = GTZC_TZSC_MPCWM3_NSWMR1_NSWM1STRT_Msk;
 529:../../Drivers/STM32L5xx_HAL_Driver/Src/stm32l5xx_hal_gtzc.c ****       length_pos = GTZC_TZSC_MPCWM3_NSWMR1_NSWM1LGTH_Pos;
 530:../../Drivers/STM32L5xx_HAL_Driver/Src/stm32l5xx_hal_gtzc.c ****       length_msk = GTZC_TZSC_MPCWM3_NSWMR1_NSWM1LGTH_Msk;
 531:../../Drivers/STM32L5xx_HAL_Driver/Src/stm32l5xx_hal_gtzc.c ****       break;
 532:../../Drivers/STM32L5xx_HAL_Driver/Src/stm32l5xx_hal_gtzc.c ****     default:
 533:../../Drivers/STM32L5xx_HAL_Driver/Src/stm32l5xx_hal_gtzc.c ****       return HAL_ERROR;
 534:../../Drivers/STM32L5xx_HAL_Driver/Src/stm32l5xx_hal_gtzc.c ****       break;
 535:../../Drivers/STM32L5xx_HAL_Driver/Src/stm32l5xx_hal_gtzc.c ****   }
 536:../../Drivers/STM32L5xx_HAL_Driver/Src/stm32l5xx_hal_gtzc.c **** 
 537:../../Drivers/STM32L5xx_HAL_Driver/Src/stm32l5xx_hal_gtzc.c ****   if ((pMPCWM_Desc->Offset > size)
 538:../../Drivers/STM32L5xx_HAL_Driver/Src/stm32l5xx_hal_gtzc.c ****       || ((pMPCWM_Desc->Offset + pMPCWM_Desc->Length) > size))
 539:../../Drivers/STM32L5xx_HAL_Driver/Src/stm32l5xx_hal_gtzc.c ****   {
 540:../../Drivers/STM32L5xx_HAL_Driver/Src/stm32l5xx_hal_gtzc.c ****     return HAL_ERROR;
 541:../../Drivers/STM32L5xx_HAL_Driver/Src/stm32l5xx_hal_gtzc.c ****   }
 542:../../Drivers/STM32L5xx_HAL_Driver/Src/stm32l5xx_hal_gtzc.c **** 
 543:../../Drivers/STM32L5xx_HAL_Driver/Src/stm32l5xx_hal_gtzc.c ****   /* write descriptor value */
 544:../../Drivers/STM32L5xx_HAL_Driver/Src/stm32l5xx_hal_gtzc.c ****   reg_value = ((pMPCWM_Desc->Offset / GTZC_TZSC_MPCWM_GRANULARITY) << start_pos) & start_msk;
 545:../../Drivers/STM32L5xx_HAL_Driver/Src/stm32l5xx_hal_gtzc.c ****   reg_value |= ((pMPCWM_Desc->Length / GTZC_TZSC_MPCWM_GRANULARITY) << length_pos) & length_msk;
 546:../../Drivers/STM32L5xx_HAL_Driver/Src/stm32l5xx_hal_gtzc.c ****   MODIFY_REG(*(__IO uint32_t *)register_address, start_msk | length_msk, reg_value);
 547:../../Drivers/STM32L5xx_HAL_Driver/Src/stm32l5xx_hal_gtzc.c **** 
 548:../../Drivers/STM32L5xx_HAL_Driver/Src/stm32l5xx_hal_gtzc.c ****   return HAL_OK;
 549:../../Drivers/STM32L5xx_HAL_Driver/Src/stm32l5xx_hal_gtzc.c **** }
 659              		.loc 1 549 1 view .LVU199
 660 003e 7047     		bx	lr
 661              	.LVL53:
 662              	.L62:
 663              	.LCFI7:
ARM GAS  C:\Users\carlos\AppData\Local\Temp\ccENU8bg.s 			page 24


 664              		.cfi_def_cfa_offset 4
 665              		.cfi_offset 4, -4
 478:../../Drivers/STM32L5xx_HAL_Driver/Src/stm32l5xx_hal_gtzc.c ****       if (pMPCWM_Desc->AreaId == GTZC_TZSC_MPCWM_ID1)
 666              		.loc 1 478 7 is_stmt 1 view .LVU200
 479:../../Drivers/STM32L5xx_HAL_Driver/Src/stm32l5xx_hal_gtzc.c ****       {
 667              		.loc 1 479 7 view .LVU201
 479:../../Drivers/STM32L5xx_HAL_Driver/Src/stm32l5xx_hal_gtzc.c ****       {
 668              		.loc 1 479 10 is_stmt 0 view .LVU202
 669 0040 FBB9     		cbnz	r3, .L69
 481:../../Drivers/STM32L5xx_HAL_Driver/Src/stm32l5xx_hal_gtzc.c ****         start_pos = GTZC_TZSC_MPCWM1_NSWMR1_NSWM1STRT_Pos;
 670              		.loc 1 481 26 view .LVU203
 671 0042 1848     		ldr	r0, .L77
 672              	.LVL54:
 481:../../Drivers/STM32L5xx_HAL_Driver/Src/stm32l5xx_hal_gtzc.c ****         start_pos = GTZC_TZSC_MPCWM1_NSWMR1_NSWM1STRT_Pos;
 673              		.loc 1 481 26 view .LVU204
 674 0044 03E0     		b	.L61
 675              	.LVL55:
 676              	.L63:
 500:../../Drivers/STM32L5xx_HAL_Driver/Src/stm32l5xx_hal_gtzc.c ****       if (pMPCWM_Desc->AreaId == GTZC_TZSC_MPCWM_ID1)
 677              		.loc 1 500 7 is_stmt 1 view .LVU205
 501:../../Drivers/STM32L5xx_HAL_Driver/Src/stm32l5xx_hal_gtzc.c ****       {
 678              		.loc 1 501 7 view .LVU206
 501:../../Drivers/STM32L5xx_HAL_Driver/Src/stm32l5xx_hal_gtzc.c ****       {
 679              		.loc 1 501 10 is_stmt 0 view .LVU207
 680 0046 F3B9     		cbnz	r3, .L70
 503:../../Drivers/STM32L5xx_HAL_Driver/Src/stm32l5xx_hal_gtzc.c ****         start_pos = GTZC_TZSC_MPCWM2_NSWMR1_NSWM1STRT_Pos;
 681              		.loc 1 503 26 view .LVU208
 682 0048 1748     		ldr	r0, .L77+4
 683              	.LVL56:
 503:../../Drivers/STM32L5xx_HAL_Driver/Src/stm32l5xx_hal_gtzc.c ****         start_pos = GTZC_TZSC_MPCWM2_NSWMR1_NSWM1STRT_Pos;
 684              		.loc 1 503 26 view .LVU209
 685 004a 00E0     		b	.L61
 686              	.LVL57:
 687              	.L68:
 475:../../Drivers/STM32L5xx_HAL_Driver/Src/stm32l5xx_hal_gtzc.c ****   {
 688              		.loc 1 475 3 view .LVU210
 689 004c 1748     		ldr	r0, .L77+8
 690              	.LVL58:
 691              	.L61:
 534:../../Drivers/STM32L5xx_HAL_Driver/Src/stm32l5xx_hal_gtzc.c ****   }
 692              		.loc 1 534 7 is_stmt 1 view .LVU211
 537:../../Drivers/STM32L5xx_HAL_Driver/Src/stm32l5xx_hal_gtzc.c ****       || ((pMPCWM_Desc->Offset + pMPCWM_Desc->Length) > size))
 693              		.loc 1 537 3 view .LVU212
 537:../../Drivers/STM32L5xx_HAL_Driver/Src/stm32l5xx_hal_gtzc.c ****       || ((pMPCWM_Desc->Offset + pMPCWM_Desc->Length) > size))
 694              		.loc 1 537 6 is_stmt 0 view .LVU213
 695 004e B2F1805F 		cmp	r2, #268435456
 696 0052 22D8     		bhi	.L71
 538:../../Drivers/STM32L5xx_HAL_Driver/Src/stm32l5xx_hal_gtzc.c ****   {
 697              		.loc 1 538 32 view .LVU214
 698 0054 5318     		adds	r3, r2, r1
 538:../../Drivers/STM32L5xx_HAL_Driver/Src/stm32l5xx_hal_gtzc.c ****   {
 699              		.loc 1 538 7 view .LVU215
 700 0056 B3F1805F 		cmp	r3, #268435456
 701 005a 20D8     		bhi	.L72
 544:../../Drivers/STM32L5xx_HAL_Driver/Src/stm32l5xx_hal_gtzc.c ****   reg_value |= ((pMPCWM_Desc->Length / GTZC_TZSC_MPCWM_GRANULARITY) << length_pos) & length_msk;
 702              		.loc 1 544 3 is_stmt 1 view .LVU216
 544:../../Drivers/STM32L5xx_HAL_Driver/Src/stm32l5xx_hal_gtzc.c ****   reg_value |= ((pMPCWM_Desc->Length / GTZC_TZSC_MPCWM_GRANULARITY) << length_pos) & length_msk;
ARM GAS  C:\Users\carlos\AppData\Local\Temp\ccENU8bg.s 			page 25


 703              		.loc 1 544 13 is_stmt 0 view .LVU217
 704 005c C2F34A42 		ubfx	r2, r2, #17, #11
 705              	.LVL59:
 545:../../Drivers/STM32L5xx_HAL_Driver/Src/stm32l5xx_hal_gtzc.c ****   MODIFY_REG(*(__IO uint32_t *)register_address, start_msk | length_msk, reg_value);
 706              		.loc 1 545 3 is_stmt 1 view .LVU218
 545:../../Drivers/STM32L5xx_HAL_Driver/Src/stm32l5xx_hal_gtzc.c ****   MODIFY_REG(*(__IO uint32_t *)register_address, start_msk | length_msk, reg_value);
 707              		.loc 1 545 84 is_stmt 0 view .LVU219
 708 0060 134B     		ldr	r3, .L77+12
 709 0062 03EA5101 		and	r1, r3, r1, lsr #1
 545:../../Drivers/STM32L5xx_HAL_Driver/Src/stm32l5xx_hal_gtzc.c ****   MODIFY_REG(*(__IO uint32_t *)register_address, start_msk | length_msk, reg_value);
 710              		.loc 1 545 13 view .LVU220
 711 0066 1143     		orrs	r1, r1, r2
 712              	.LVL60:
 546:../../Drivers/STM32L5xx_HAL_Driver/Src/stm32l5xx_hal_gtzc.c **** 
 713              		.loc 1 546 3 is_stmt 1 view .LVU221
 714 0068 0268     		ldr	r2, [r0]
 715 006a 22F07F62 		bic	r2, r2, #267386880
 716 006e 22F47022 		bic	r2, r2, #983040
 717 0072 22F4FF62 		bic	r2, r2, #2040
 718 0076 22F00702 		bic	r2, r2, #7
 719 007a 0A43     		orrs	r2, r2, r1
 720 007c 0260     		str	r2, [r0]
 548:../../Drivers/STM32L5xx_HAL_Driver/Src/stm32l5xx_hal_gtzc.c **** }
 721              		.loc 1 548 3 view .LVU222
 548:../../Drivers/STM32L5xx_HAL_Driver/Src/stm32l5xx_hal_gtzc.c **** }
 722              		.loc 1 548 10 is_stmt 0 view .LVU223
 723 007e 0020     		movs	r0, #0
 724              	.LVL61:
 548:../../Drivers/STM32L5xx_HAL_Driver/Src/stm32l5xx_hal_gtzc.c **** }
 725              		.loc 1 548 10 view .LVU224
 726 0080 06E0     		b	.L59
 727              	.LVL62:
 728              	.L69:
 492:../../Drivers/STM32L5xx_HAL_Driver/Src/stm32l5xx_hal_gtzc.c ****         start_pos = GTZC_TZSC_MPCWM1_NSWMR2_NSWM2STRT_Pos;
 729              		.loc 1 492 26 view .LVU225
 730 0082 0C48     		ldr	r0, .L77+16
 731              	.LVL63:
 492:../../Drivers/STM32L5xx_HAL_Driver/Src/stm32l5xx_hal_gtzc.c ****         start_pos = GTZC_TZSC_MPCWM1_NSWMR2_NSWM2STRT_Pos;
 732              		.loc 1 492 26 view .LVU226
 733 0084 E3E7     		b	.L61
 734              	.LVL64:
 735              	.L70:
 514:../../Drivers/STM32L5xx_HAL_Driver/Src/stm32l5xx_hal_gtzc.c ****         start_pos = GTZC_TZSC_MPCWM2_NSWMR2_NSWM2STRT_Pos;
 736              		.loc 1 514 26 view .LVU227
 737 0086 0C48     		ldr	r0, .L77+20
 738              	.LVL65:
 514:../../Drivers/STM32L5xx_HAL_Driver/Src/stm32l5xx_hal_gtzc.c ****         start_pos = GTZC_TZSC_MPCWM2_NSWMR2_NSWM2STRT_Pos;
 739              		.loc 1 514 26 view .LVU228
 740 0088 E1E7     		b	.L61
 741              	.LVL66:
 742              	.L64:
 743              	.LCFI8:
 744              		.cfi_def_cfa_offset 0
 745              		.cfi_restore 4
 471:../../Drivers/STM32L5xx_HAL_Driver/Src/stm32l5xx_hal_gtzc.c ****   }
 746              		.loc 1 471 12 view .LVU229
 747 008a 0120     		movs	r0, #1
ARM GAS  C:\Users\carlos\AppData\Local\Temp\ccENU8bg.s 			page 26


 748              	.LVL67:
 471:../../Drivers/STM32L5xx_HAL_Driver/Src/stm32l5xx_hal_gtzc.c ****   }
 749              		.loc 1 471 12 view .LVU230
 750 008c 7047     		bx	lr
 751              	.LVL68:
 752              	.L66:
 753              	.LCFI9:
 754              		.cfi_def_cfa_offset 4
 755              		.cfi_offset 4, -4
 471:../../Drivers/STM32L5xx_HAL_Driver/Src/stm32l5xx_hal_gtzc.c ****   }
 756              		.loc 1 471 12 view .LVU231
 757 008e 0120     		movs	r0, #1
 758              	.LVL69:
 759              	.L59:
 760              		.loc 1 549 1 view .LVU232
 761 0090 5DF8044B 		ldr	r4, [sp], #4
 762              	.LCFI10:
 763              		.cfi_remember_state
 764              		.cfi_restore 4
 765              		.cfi_def_cfa_offset 0
 766 0094 7047     		bx	lr
 767              	.LVL70:
 768              	.L67:
 769              	.LCFI11:
 770              		.cfi_restore_state
 471:../../Drivers/STM32L5xx_HAL_Driver/Src/stm32l5xx_hal_gtzc.c ****   }
 771              		.loc 1 471 12 view .LVU233
 772 0096 0120     		movs	r0, #1
 773              	.LVL71:
 471:../../Drivers/STM32L5xx_HAL_Driver/Src/stm32l5xx_hal_gtzc.c ****   }
 774              		.loc 1 471 12 view .LVU234
 775 0098 FAE7     		b	.L59
 776              	.LVL72:
 777              	.L71:
 540:../../Drivers/STM32L5xx_HAL_Driver/Src/stm32l5xx_hal_gtzc.c ****   }
 778              		.loc 1 540 12 view .LVU235
 779 009a 0120     		movs	r0, #1
 780              	.LVL73:
 540:../../Drivers/STM32L5xx_HAL_Driver/Src/stm32l5xx_hal_gtzc.c ****   }
 781              		.loc 1 540 12 view .LVU236
 782 009c F8E7     		b	.L59
 783              	.LVL74:
 784              	.L72:
 540:../../Drivers/STM32L5xx_HAL_Driver/Src/stm32l5xx_hal_gtzc.c ****   }
 785              		.loc 1 540 12 view .LVU237
 786 009e 0120     		movs	r0, #1
 787              	.LVL75:
 540:../../Drivers/STM32L5xx_HAL_Driver/Src/stm32l5xx_hal_gtzc.c ****   }
 788              		.loc 1 540 12 view .LVU238
 789 00a0 F6E7     		b	.L59
 790              	.L78:
 791 00a2 00BF     		.align	2
 792              	.L77:
 793 00a4 30240350 		.word	1342383152
 794 00a8 38240350 		.word	1342383160
 795 00ac 40240350 		.word	1342383168
 796 00b0 0000FF0F 		.word	268369920
ARM GAS  C:\Users\carlos\AppData\Local\Temp\ccENU8bg.s 			page 27


 797 00b4 34240350 		.word	1342383156
 798 00b8 3C240350 		.word	1342383164
 799              		.cfi_endproc
 800              	.LFE204:
 802              		.section	.text.HAL_GTZC_TZSC_MPCWM_GetConfigMemAttributes,"ax",%progbits
 803              		.align	1
 804              		.global	HAL_GTZC_TZSC_MPCWM_GetConfigMemAttributes
 805              		.syntax unified
 806              		.thumb
 807              		.thumb_func
 808              		.fpu fpv4-sp-d16
 810              	HAL_GTZC_TZSC_MPCWM_GetConfigMemAttributes:
 811              	.LVL76:
 812              	.LFB205:
 550:../../Drivers/STM32L5xx_HAL_Driver/Src/stm32l5xx_hal_gtzc.c **** 
 551:../../Drivers/STM32L5xx_HAL_Driver/Src/stm32l5xx_hal_gtzc.c **** /**
 552:../../Drivers/STM32L5xx_HAL_Driver/Src/stm32l5xx_hal_gtzc.c ****   * @brief  Get a TZSC-MPCWM area configuration.
 553:../../Drivers/STM32L5xx_HAL_Driver/Src/stm32l5xx_hal_gtzc.c ****   * @param  MemBaseAddress WM identifier.
 554:../../Drivers/STM32L5xx_HAL_Driver/Src/stm32l5xx_hal_gtzc.c ****   * @param  pMPCWM_Desc pointer to a TZSC-MPCWM descriptor.
 555:../../Drivers/STM32L5xx_HAL_Driver/Src/stm32l5xx_hal_gtzc.c ****   *         The structure description is available in @ref GTZC_Exported_Types.
 556:../../Drivers/STM32L5xx_HAL_Driver/Src/stm32l5xx_hal_gtzc.c ****   * @retval HAL status.
 557:../../Drivers/STM32L5xx_HAL_Driver/Src/stm32l5xx_hal_gtzc.c ****   */
 558:../../Drivers/STM32L5xx_HAL_Driver/Src/stm32l5xx_hal_gtzc.c **** HAL_StatusTypeDef HAL_GTZC_TZSC_MPCWM_GetConfigMemAttributes(uint32_t MemBaseAddress,
 559:../../Drivers/STM32L5xx_HAL_Driver/Src/stm32l5xx_hal_gtzc.c ****                                                              MPCWM_ConfigTypeDef *pMPCWM_Desc)
 560:../../Drivers/STM32L5xx_HAL_Driver/Src/stm32l5xx_hal_gtzc.c **** {
 813              		.loc 1 560 1 is_stmt 1 view -0
 814              		.cfi_startproc
 815              		@ args = 0, pretend = 0, frame = 0
 816              		@ frame_needed = 0, uses_anonymous_args = 0
 817              		@ link register save eliminated.
 561:../../Drivers/STM32L5xx_HAL_Driver/Src/stm32l5xx_hal_gtzc.c ****   uint32_t register_address;
 818              		.loc 1 561 3 view .LVU240
 562:../../Drivers/STM32L5xx_HAL_Driver/Src/stm32l5xx_hal_gtzc.c ****   uint32_t reg_value;
 819              		.loc 1 562 3 view .LVU241
 563:../../Drivers/STM32L5xx_HAL_Driver/Src/stm32l5xx_hal_gtzc.c ****   uint32_t start_pos, start_msk;
 820              		.loc 1 563 3 view .LVU242
 564:../../Drivers/STM32L5xx_HAL_Driver/Src/stm32l5xx_hal_gtzc.c ****   uint32_t length_pos, length_msk;
 821              		.loc 1 564 3 view .LVU243
 565:../../Drivers/STM32L5xx_HAL_Driver/Src/stm32l5xx_hal_gtzc.c **** 
 566:../../Drivers/STM32L5xx_HAL_Driver/Src/stm32l5xx_hal_gtzc.c ****   /* firstly take care of the first area, present on all MPCWM sub-blocks */
 567:../../Drivers/STM32L5xx_HAL_Driver/Src/stm32l5xx_hal_gtzc.c ****   switch (MemBaseAddress)
 822              		.loc 1 567 3 view .LVU244
 823 0000 B0F1004F 		cmp	r0, #-2147483648
 824 0004 2AD0     		beq	.L83
 825 0006 B0F1104F 		cmp	r0, #-1879048192
 826 000a 29D0     		beq	.L84
 827 000c B0F1C04F 		cmp	r0, #1610612736
 828 0010 01D0     		beq	.L89
 829 0012 0120     		movs	r0, #1
 830              	.LVL77:
 831              		.loc 1 567 3 is_stmt 0 view .LVU245
 832 0014 7047     		bx	lr
 833              	.LVL78:
 834              	.L89:
 568:../../Drivers/STM32L5xx_HAL_Driver/Src/stm32l5xx_hal_gtzc.c ****   {
 569:../../Drivers/STM32L5xx_HAL_Driver/Src/stm32l5xx_hal_gtzc.c ****     case OCTOSPI1_BASE:
 570:../../Drivers/STM32L5xx_HAL_Driver/Src/stm32l5xx_hal_gtzc.c ****       register_address = (uint32_t) &(GTZC_TZSC_S->MPCWM1_NSWMR1);
ARM GAS  C:\Users\carlos\AppData\Local\Temp\ccENU8bg.s 			page 28


 571:../../Drivers/STM32L5xx_HAL_Driver/Src/stm32l5xx_hal_gtzc.c ****       start_pos = GTZC_TZSC_MPCWM1_NSWMR1_NSWM1STRT_Pos;
 572:../../Drivers/STM32L5xx_HAL_Driver/Src/stm32l5xx_hal_gtzc.c ****       start_msk = GTZC_TZSC_MPCWM1_NSWMR1_NSWM1STRT_Msk;
 573:../../Drivers/STM32L5xx_HAL_Driver/Src/stm32l5xx_hal_gtzc.c ****       length_pos = GTZC_TZSC_MPCWM1_NSWMR1_NSWM1LGTH_Pos;
 574:../../Drivers/STM32L5xx_HAL_Driver/Src/stm32l5xx_hal_gtzc.c ****       length_msk = GTZC_TZSC_MPCWM1_NSWMR1_NSWM1LGTH_Msk;
 575:../../Drivers/STM32L5xx_HAL_Driver/Src/stm32l5xx_hal_gtzc.c ****       break;
 576:../../Drivers/STM32L5xx_HAL_Driver/Src/stm32l5xx_hal_gtzc.c ****     case FMC_BANK1:
 577:../../Drivers/STM32L5xx_HAL_Driver/Src/stm32l5xx_hal_gtzc.c ****       register_address = (uint32_t) &(GTZC_TZSC_S->MPCWM2_NSWMR1);
 835              		.loc 1 577 24 view .LVU246
 836 0016 164B     		ldr	r3, .L90
 837              	.L80:
 838              	.LVL79:
 578:../../Drivers/STM32L5xx_HAL_Driver/Src/stm32l5xx_hal_gtzc.c ****       start_pos = GTZC_TZSC_MPCWM2_NSWMR1_NSWM1STRT_Pos;
 579:../../Drivers/STM32L5xx_HAL_Driver/Src/stm32l5xx_hal_gtzc.c ****       start_msk = GTZC_TZSC_MPCWM2_NSWMR1_NSWM1STRT_Msk;
 580:../../Drivers/STM32L5xx_HAL_Driver/Src/stm32l5xx_hal_gtzc.c ****       length_pos = GTZC_TZSC_MPCWM2_NSWMR1_NSWM1LGTH_Pos;
 581:../../Drivers/STM32L5xx_HAL_Driver/Src/stm32l5xx_hal_gtzc.c ****       length_msk = GTZC_TZSC_MPCWM2_NSWMR1_NSWM1LGTH_Msk;
 582:../../Drivers/STM32L5xx_HAL_Driver/Src/stm32l5xx_hal_gtzc.c ****       break;
 583:../../Drivers/STM32L5xx_HAL_Driver/Src/stm32l5xx_hal_gtzc.c ****     case FMC_BANK3:
 584:../../Drivers/STM32L5xx_HAL_Driver/Src/stm32l5xx_hal_gtzc.c ****       register_address = (uint32_t) &(GTZC_TZSC_S->MPCWM3_NSWMR1);
 585:../../Drivers/STM32L5xx_HAL_Driver/Src/stm32l5xx_hal_gtzc.c ****       start_pos = GTZC_TZSC_MPCWM3_NSWMR1_NSWM1STRT_Pos;
 586:../../Drivers/STM32L5xx_HAL_Driver/Src/stm32l5xx_hal_gtzc.c ****       start_msk = GTZC_TZSC_MPCWM3_NSWMR1_NSWM1STRT_Msk;
 587:../../Drivers/STM32L5xx_HAL_Driver/Src/stm32l5xx_hal_gtzc.c ****       length_pos = GTZC_TZSC_MPCWM3_NSWMR1_NSWM1LGTH_Pos;
 588:../../Drivers/STM32L5xx_HAL_Driver/Src/stm32l5xx_hal_gtzc.c ****       length_msk = GTZC_TZSC_MPCWM3_NSWMR1_NSWM1LGTH_Msk;
 589:../../Drivers/STM32L5xx_HAL_Driver/Src/stm32l5xx_hal_gtzc.c ****       break;
 590:../../Drivers/STM32L5xx_HAL_Driver/Src/stm32l5xx_hal_gtzc.c ****     default:
 591:../../Drivers/STM32L5xx_HAL_Driver/Src/stm32l5xx_hal_gtzc.c ****       return HAL_ERROR;
 592:../../Drivers/STM32L5xx_HAL_Driver/Src/stm32l5xx_hal_gtzc.c ****       break;
 839              		.loc 1 592 7 is_stmt 1 view .LVU247
 593:../../Drivers/STM32L5xx_HAL_Driver/Src/stm32l5xx_hal_gtzc.c ****   }
 594:../../Drivers/STM32L5xx_HAL_Driver/Src/stm32l5xx_hal_gtzc.c **** 
 595:../../Drivers/STM32L5xx_HAL_Driver/Src/stm32l5xx_hal_gtzc.c ****   /* read register and update the descriptor for first area*/
 596:../../Drivers/STM32L5xx_HAL_Driver/Src/stm32l5xx_hal_gtzc.c ****   reg_value = READ_REG(*(__IO uint32_t *)register_address);
 840              		.loc 1 596 3 view .LVU248
 841              		.loc 1 596 13 is_stmt 0 view .LVU249
 842 0018 1B68     		ldr	r3, [r3]
 843              	.LVL80:
 597:../../Drivers/STM32L5xx_HAL_Driver/Src/stm32l5xx_hal_gtzc.c ****   pMPCWM_Desc[0].AreaId = GTZC_TZSC_MPCWM_ID1;
 844              		.loc 1 597 3 is_stmt 1 view .LVU250
 845              		.loc 1 597 25 is_stmt 0 view .LVU251
 846 001a 0022     		movs	r2, #0
 847 001c 0A60     		str	r2, [r1]
 598:../../Drivers/STM32L5xx_HAL_Driver/Src/stm32l5xx_hal_gtzc.c ****   pMPCWM_Desc[0].Offset = ((reg_value & start_msk) >> start_pos) * GTZC_TZSC_MPCWM_GRANULARITY;
 848              		.loc 1 598 3 is_stmt 1 view .LVU252
 849              		.loc 1 598 39 is_stmt 0 view .LVU253
 850 001e C3F30A02 		ubfx	r2, r3, #0, #11
 851              		.loc 1 598 66 view .LVU254
 852 0022 5204     		lsls	r2, r2, #17
 853              		.loc 1 598 25 view .LVU255
 854 0024 4A60     		str	r2, [r1, #4]
 599:../../Drivers/STM32L5xx_HAL_Driver/Src/stm32l5xx_hal_gtzc.c ****   pMPCWM_Desc[0].Length = ((reg_value & length_msk) >> length_pos) * GTZC_TZSC_MPCWM_GRANULARITY;
 855              		.loc 1 599 3 is_stmt 1 view .LVU256
 856              		.loc 1 599 53 is_stmt 0 view .LVU257
 857 0026 C3F30B43 		ubfx	r3, r3, #16, #12
 858              	.LVL81:
 859              		.loc 1 599 68 view .LVU258
 860 002a 5B04     		lsls	r3, r3, #17
 861              		.loc 1 599 25 view .LVU259
 862 002c 8B60     		str	r3, [r1, #8]
ARM GAS  C:\Users\carlos\AppData\Local\Temp\ccENU8bg.s 			page 29


 600:../../Drivers/STM32L5xx_HAL_Driver/Src/stm32l5xx_hal_gtzc.c **** 
 601:../../Drivers/STM32L5xx_HAL_Driver/Src/stm32l5xx_hal_gtzc.c ****   if (MemBaseAddress != FMC_BANK3)
 863              		.loc 1 601 3 is_stmt 1 view .LVU260
 864              		.loc 1 601 6 is_stmt 0 view .LVU261
 865 002e B0F1004F 		cmp	r0, #-2147483648
 866 0032 19D0     		beq	.L86
 602:../../Drivers/STM32L5xx_HAL_Driver/Src/stm32l5xx_hal_gtzc.c ****   {
 603:../../Drivers/STM32L5xx_HAL_Driver/Src/stm32l5xx_hal_gtzc.c ****     /* Here MemBaseAddress = OCTOSPI1_BASE
 604:../../Drivers/STM32L5xx_HAL_Driver/Src/stm32l5xx_hal_gtzc.c ****      * or FMC_BANK1 (already tested)
 605:../../Drivers/STM32L5xx_HAL_Driver/Src/stm32l5xx_hal_gtzc.c ****      * Now take care of the second area, present on these sub-blocks
 606:../../Drivers/STM32L5xx_HAL_Driver/Src/stm32l5xx_hal_gtzc.c ****      */
 607:../../Drivers/STM32L5xx_HAL_Driver/Src/stm32l5xx_hal_gtzc.c ****     switch (MemBaseAddress)
 867              		.loc 1 607 5 is_stmt 1 view .LVU262
 868 0034 B0F1C04F 		cmp	r0, #1610612736
 869 0038 14D0     		beq	.L87
 870 003a B0F1104F 		cmp	r0, #-1879048192
 871 003e 15D1     		bne	.L88
 872 0040 0C4B     		ldr	r3, .L90+4
 873              	.L82:
 874              	.LVL82:
 608:../../Drivers/STM32L5xx_HAL_Driver/Src/stm32l5xx_hal_gtzc.c ****     {
 609:../../Drivers/STM32L5xx_HAL_Driver/Src/stm32l5xx_hal_gtzc.c ****       case OCTOSPI1_BASE:
 610:../../Drivers/STM32L5xx_HAL_Driver/Src/stm32l5xx_hal_gtzc.c ****         register_address = (uint32_t) &(GTZC_TZSC_S->MPCWM1_NSWMR2);
 611:../../Drivers/STM32L5xx_HAL_Driver/Src/stm32l5xx_hal_gtzc.c ****         start_pos = GTZC_TZSC_MPCWM1_NSWMR2_NSWM2STRT_Pos;
 612:../../Drivers/STM32L5xx_HAL_Driver/Src/stm32l5xx_hal_gtzc.c ****         start_msk = GTZC_TZSC_MPCWM1_NSWMR2_NSWM2STRT_Msk;
 613:../../Drivers/STM32L5xx_HAL_Driver/Src/stm32l5xx_hal_gtzc.c ****         length_pos = GTZC_TZSC_MPCWM1_NSWMR2_NSWM2LGTH_Pos;
 614:../../Drivers/STM32L5xx_HAL_Driver/Src/stm32l5xx_hal_gtzc.c ****         length_msk = GTZC_TZSC_MPCWM1_NSWMR2_NSWM2LGTH_Msk;
 615:../../Drivers/STM32L5xx_HAL_Driver/Src/stm32l5xx_hal_gtzc.c ****         break;
 616:../../Drivers/STM32L5xx_HAL_Driver/Src/stm32l5xx_hal_gtzc.c ****       case FMC_BANK1:
 617:../../Drivers/STM32L5xx_HAL_Driver/Src/stm32l5xx_hal_gtzc.c ****         register_address = (uint32_t) &(GTZC_TZSC_S->MPCWM2_NSWMR2);
 618:../../Drivers/STM32L5xx_HAL_Driver/Src/stm32l5xx_hal_gtzc.c ****         start_pos = GTZC_TZSC_MPCWM2_NSWMR2_NSWM2STRT_Pos;
 619:../../Drivers/STM32L5xx_HAL_Driver/Src/stm32l5xx_hal_gtzc.c ****         start_msk = GTZC_TZSC_MPCWM2_NSWMR2_NSWM2STRT_Msk;
 620:../../Drivers/STM32L5xx_HAL_Driver/Src/stm32l5xx_hal_gtzc.c ****         length_pos = GTZC_TZSC_MPCWM2_NSWMR2_NSWM2LGTH_Pos;
 621:../../Drivers/STM32L5xx_HAL_Driver/Src/stm32l5xx_hal_gtzc.c ****         length_msk = GTZC_TZSC_MPCWM2_NSWMR2_NSWM2LGTH_Msk;
 622:../../Drivers/STM32L5xx_HAL_Driver/Src/stm32l5xx_hal_gtzc.c ****         break;
 623:../../Drivers/STM32L5xx_HAL_Driver/Src/stm32l5xx_hal_gtzc.c ****       default:
 624:../../Drivers/STM32L5xx_HAL_Driver/Src/stm32l5xx_hal_gtzc.c ****         return HAL_ERROR;
 625:../../Drivers/STM32L5xx_HAL_Driver/Src/stm32l5xx_hal_gtzc.c ****         break;
 875              		.loc 1 625 9 view .LVU263
 626:../../Drivers/STM32L5xx_HAL_Driver/Src/stm32l5xx_hal_gtzc.c ****     }
 627:../../Drivers/STM32L5xx_HAL_Driver/Src/stm32l5xx_hal_gtzc.c **** 
 628:../../Drivers/STM32L5xx_HAL_Driver/Src/stm32l5xx_hal_gtzc.c ****     /* read register and update the descriptor for second area*/
 629:../../Drivers/STM32L5xx_HAL_Driver/Src/stm32l5xx_hal_gtzc.c ****     reg_value = READ_REG(*(__IO uint32_t *)register_address);
 876              		.loc 1 629 5 view .LVU264
 877              		.loc 1 629 15 is_stmt 0 view .LVU265
 878 0042 1B68     		ldr	r3, [r3]
 879              	.LVL83:
 630:../../Drivers/STM32L5xx_HAL_Driver/Src/stm32l5xx_hal_gtzc.c ****     pMPCWM_Desc[1].AreaId = GTZC_TZSC_MPCWM_ID2;
 880              		.loc 1 630 5 is_stmt 1 view .LVU266
 881              		.loc 1 630 27 is_stmt 0 view .LVU267
 882 0044 0122     		movs	r2, #1
 883 0046 0A61     		str	r2, [r1, #16]
 631:../../Drivers/STM32L5xx_HAL_Driver/Src/stm32l5xx_hal_gtzc.c ****     pMPCWM_Desc[1].Offset = ((reg_value & start_msk) >> start_pos) * GTZC_TZSC_MPCWM_GRANULARITY;
 884              		.loc 1 631 5 is_stmt 1 view .LVU268
 885              		.loc 1 631 41 is_stmt 0 view .LVU269
 886 0048 C3F30A02 		ubfx	r2, r3, #0, #11
 887              		.loc 1 631 68 view .LVU270
ARM GAS  C:\Users\carlos\AppData\Local\Temp\ccENU8bg.s 			page 30


 888 004c 5204     		lsls	r2, r2, #17
 889              		.loc 1 631 27 view .LVU271
 890 004e 4A61     		str	r2, [r1, #20]
 632:../../Drivers/STM32L5xx_HAL_Driver/Src/stm32l5xx_hal_gtzc.c ****     pMPCWM_Desc[1].Length = ((reg_value & length_msk) >> length_pos) * GTZC_TZSC_MPCWM_GRANULARITY;
 891              		.loc 1 632 5 is_stmt 1 view .LVU272
 892              		.loc 1 632 55 is_stmt 0 view .LVU273
 893 0050 C3F30B43 		ubfx	r3, r3, #16, #12
 894              	.LVL84:
 895              		.loc 1 632 70 view .LVU274
 896 0054 5B04     		lsls	r3, r3, #17
 897              		.loc 1 632 27 view .LVU275
 898 0056 8B61     		str	r3, [r1, #24]
 633:../../Drivers/STM32L5xx_HAL_Driver/Src/stm32l5xx_hal_gtzc.c ****   }
 634:../../Drivers/STM32L5xx_HAL_Driver/Src/stm32l5xx_hal_gtzc.c **** 
 635:../../Drivers/STM32L5xx_HAL_Driver/Src/stm32l5xx_hal_gtzc.c ****   return HAL_OK;
 899              		.loc 1 635 10 view .LVU276
 900 0058 0020     		movs	r0, #0
 901              	.LVL85:
 902              		.loc 1 635 10 view .LVU277
 903 005a 7047     		bx	lr
 904              	.LVL86:
 905              	.L83:
 584:../../Drivers/STM32L5xx_HAL_Driver/Src/stm32l5xx_hal_gtzc.c ****       start_pos = GTZC_TZSC_MPCWM3_NSWMR1_NSWM1STRT_Pos;
 906              		.loc 1 584 24 view .LVU278
 907 005c 064B     		ldr	r3, .L90+8
 908 005e DBE7     		b	.L80
 909              	.L84:
 567:../../Drivers/STM32L5xx_HAL_Driver/Src/stm32l5xx_hal_gtzc.c ****   {
 910              		.loc 1 567 3 view .LVU279
 911 0060 064B     		ldr	r3, .L90+12
 912 0062 D9E7     		b	.L80
 913              	.LVL87:
 914              	.L87:
 617:../../Drivers/STM32L5xx_HAL_Driver/Src/stm32l5xx_hal_gtzc.c ****         start_pos = GTZC_TZSC_MPCWM2_NSWMR2_NSWM2STRT_Pos;
 915              		.loc 1 617 26 view .LVU280
 916 0064 064B     		ldr	r3, .L90+16
 917 0066 ECE7     		b	.L82
 918              	.L86:
 919              		.loc 1 635 10 view .LVU281
 920 0068 0020     		movs	r0, #0
 921              	.LVL88:
 922              		.loc 1 635 10 view .LVU282
 923 006a 7047     		bx	lr
 924              	.LVL89:
 925              	.L88:
 607:../../Drivers/STM32L5xx_HAL_Driver/Src/stm32l5xx_hal_gtzc.c ****     {
 926              		.loc 1 607 5 view .LVU283
 927 006c 0120     		movs	r0, #1
 928              	.LVL90:
 636:../../Drivers/STM32L5xx_HAL_Driver/Src/stm32l5xx_hal_gtzc.c **** }
 929              		.loc 1 636 1 view .LVU284
 930 006e 7047     		bx	lr
 931              	.L91:
 932              		.align	2
 933              	.L90:
 934 0070 38240350 		.word	1342383160
 935 0074 34240350 		.word	1342383156
ARM GAS  C:\Users\carlos\AppData\Local\Temp\ccENU8bg.s 			page 31


 936 0078 40240350 		.word	1342383168
 937 007c 30240350 		.word	1342383152
 938 0080 3C240350 		.word	1342383164
 939              		.cfi_endproc
 940              	.LFE205:
 942              		.section	.text.HAL_GTZC_TZSC_Lock,"ax",%progbits
 943              		.align	1
 944              		.global	HAL_GTZC_TZSC_Lock
 945              		.syntax unified
 946              		.thumb
 947              		.thumb_func
 948              		.fpu fpv4-sp-d16
 950              	HAL_GTZC_TZSC_Lock:
 951              	.LVL91:
 952              	.LFB206:
 637:../../Drivers/STM32L5xx_HAL_Driver/Src/stm32l5xx_hal_gtzc.c **** 
 638:../../Drivers/STM32L5xx_HAL_Driver/Src/stm32l5xx_hal_gtzc.c **** /**
 639:../../Drivers/STM32L5xx_HAL_Driver/Src/stm32l5xx_hal_gtzc.c ****   * @}
 640:../../Drivers/STM32L5xx_HAL_Driver/Src/stm32l5xx_hal_gtzc.c ****   */
 641:../../Drivers/STM32L5xx_HAL_Driver/Src/stm32l5xx_hal_gtzc.c **** 
 642:../../Drivers/STM32L5xx_HAL_Driver/Src/stm32l5xx_hal_gtzc.c **** #endif /* defined(__ARM_FEATURE_CMSE) && (__ARM_FEATURE_CMSE == 3U) */
 643:../../Drivers/STM32L5xx_HAL_Driver/Src/stm32l5xx_hal_gtzc.c **** 
 644:../../Drivers/STM32L5xx_HAL_Driver/Src/stm32l5xx_hal_gtzc.c **** /** @defgroup GTZC_Exported_Functions_Group3 TZSC and TZSC-MPCWM Lock functions
 645:../../Drivers/STM32L5xx_HAL_Driver/Src/stm32l5xx_hal_gtzc.c ****   * @brief    TZSC and TZSC-MPCWM Lock functions
 646:../../Drivers/STM32L5xx_HAL_Driver/Src/stm32l5xx_hal_gtzc.c ****   *
 647:../../Drivers/STM32L5xx_HAL_Driver/Src/stm32l5xx_hal_gtzc.c ****   @verbatim
 648:../../Drivers/STM32L5xx_HAL_Driver/Src/stm32l5xx_hal_gtzc.c ****   ==============================================================================
 649:../../Drivers/STM32L5xx_HAL_Driver/Src/stm32l5xx_hal_gtzc.c ****             ##### TZSC and TZSC-MPCWM Lock functions #####
 650:../../Drivers/STM32L5xx_HAL_Driver/Src/stm32l5xx_hal_gtzc.c ****   ==============================================================================
 651:../../Drivers/STM32L5xx_HAL_Driver/Src/stm32l5xx_hal_gtzc.c ****   [..]
 652:../../Drivers/STM32L5xx_HAL_Driver/Src/stm32l5xx_hal_gtzc.c ****     This section provides functions allowing to manage the common TZSC and
 653:../../Drivers/STM32L5xx_HAL_Driver/Src/stm32l5xx_hal_gtzc.c ****     TZSC-MPCWM lock. It includes lock enable, and current value read.
 654:../../Drivers/STM32L5xx_HAL_Driver/Src/stm32l5xx_hal_gtzc.c ****     TZSC is TrustZone Security Controller
 655:../../Drivers/STM32L5xx_HAL_Driver/Src/stm32l5xx_hal_gtzc.c ****     MPCWM is Memory Protection Controller WaterMark
 656:../../Drivers/STM32L5xx_HAL_Driver/Src/stm32l5xx_hal_gtzc.c **** @endverbatim
 657:../../Drivers/STM32L5xx_HAL_Driver/Src/stm32l5xx_hal_gtzc.c ****   * @{
 658:../../Drivers/STM32L5xx_HAL_Driver/Src/stm32l5xx_hal_gtzc.c ****   */
 659:../../Drivers/STM32L5xx_HAL_Driver/Src/stm32l5xx_hal_gtzc.c **** 
 660:../../Drivers/STM32L5xx_HAL_Driver/Src/stm32l5xx_hal_gtzc.c **** /**
 661:../../Drivers/STM32L5xx_HAL_Driver/Src/stm32l5xx_hal_gtzc.c ****   * @brief  Lock TZSC and TZSC-MPCWM configuration.
 662:../../Drivers/STM32L5xx_HAL_Driver/Src/stm32l5xx_hal_gtzc.c ****   * @param  TZSC_Instance TZSC sub-block instance.
 663:../../Drivers/STM32L5xx_HAL_Driver/Src/stm32l5xx_hal_gtzc.c ****   */
 664:../../Drivers/STM32L5xx_HAL_Driver/Src/stm32l5xx_hal_gtzc.c **** #if defined(__ARM_FEATURE_CMSE) && (__ARM_FEATURE_CMSE == 3U)
 665:../../Drivers/STM32L5xx_HAL_Driver/Src/stm32l5xx_hal_gtzc.c **** 
 666:../../Drivers/STM32L5xx_HAL_Driver/Src/stm32l5xx_hal_gtzc.c **** void HAL_GTZC_TZSC_Lock(GTZC_TZSC_TypeDef *TZSC_Instance)
 667:../../Drivers/STM32L5xx_HAL_Driver/Src/stm32l5xx_hal_gtzc.c **** {
 953              		.loc 1 667 1 is_stmt 1 view -0
 954              		.cfi_startproc
 955              		@ args = 0, pretend = 0, frame = 0
 956              		@ frame_needed = 0, uses_anonymous_args = 0
 957              		@ link register save eliminated.
 668:../../Drivers/STM32L5xx_HAL_Driver/Src/stm32l5xx_hal_gtzc.c ****   SET_BIT(TZSC_Instance->CR, GTZC_TZSC_CR_LCK_Msk);
 958              		.loc 1 668 3 view .LVU286
 959 0000 0368     		ldr	r3, [r0]
 960 0002 43F00103 		orr	r3, r3, #1
 961 0006 0360     		str	r3, [r0]
 669:../../Drivers/STM32L5xx_HAL_Driver/Src/stm32l5xx_hal_gtzc.c **** }
ARM GAS  C:\Users\carlos\AppData\Local\Temp\ccENU8bg.s 			page 32


 962              		.loc 1 669 1 is_stmt 0 view .LVU287
 963 0008 7047     		bx	lr
 964              		.cfi_endproc
 965              	.LFE206:
 967              		.section	.text.HAL_GTZC_TZSC_GetLock,"ax",%progbits
 968              		.align	1
 969              		.global	HAL_GTZC_TZSC_GetLock
 970              		.syntax unified
 971              		.thumb
 972              		.thumb_func
 973              		.fpu fpv4-sp-d16
 975              	HAL_GTZC_TZSC_GetLock:
 976              	.LVL92:
 977              	.LFB207:
 670:../../Drivers/STM32L5xx_HAL_Driver/Src/stm32l5xx_hal_gtzc.c **** 
 671:../../Drivers/STM32L5xx_HAL_Driver/Src/stm32l5xx_hal_gtzc.c **** #endif /* defined(__ARM_FEATURE_CMSE) && (__ARM_FEATURE_CMSE == 3U) */
 672:../../Drivers/STM32L5xx_HAL_Driver/Src/stm32l5xx_hal_gtzc.c **** 
 673:../../Drivers/STM32L5xx_HAL_Driver/Src/stm32l5xx_hal_gtzc.c **** /**
 674:../../Drivers/STM32L5xx_HAL_Driver/Src/stm32l5xx_hal_gtzc.c ****   * @brief  Get TZSC and TZSC-MPCWM configuration lock state.
 675:../../Drivers/STM32L5xx_HAL_Driver/Src/stm32l5xx_hal_gtzc.c ****   * @param  TZSC_Instance TZSC sub-block instance.
 676:../../Drivers/STM32L5xx_HAL_Driver/Src/stm32l5xx_hal_gtzc.c ****   * @retval Lock State (GTZC_TZSC_LOCK_OFF or GTZC_TZSC_LOCK_ON)
 677:../../Drivers/STM32L5xx_HAL_Driver/Src/stm32l5xx_hal_gtzc.c ****   */
 678:../../Drivers/STM32L5xx_HAL_Driver/Src/stm32l5xx_hal_gtzc.c **** uint32_t HAL_GTZC_TZSC_GetLock(const GTZC_TZSC_TypeDef *TZSC_Instance)
 679:../../Drivers/STM32L5xx_HAL_Driver/Src/stm32l5xx_hal_gtzc.c **** {
 978              		.loc 1 679 1 is_stmt 1 view -0
 979              		.cfi_startproc
 980              		@ args = 0, pretend = 0, frame = 0
 981              		@ frame_needed = 0, uses_anonymous_args = 0
 982              		@ link register save eliminated.
 680:../../Drivers/STM32L5xx_HAL_Driver/Src/stm32l5xx_hal_gtzc.c ****   return READ_BIT(TZSC_Instance->CR, GTZC_TZSC_CR_LCK_Msk);
 983              		.loc 1 680 3 view .LVU289
 984              		.loc 1 680 10 is_stmt 0 view .LVU290
 985 0000 0068     		ldr	r0, [r0]
 986              	.LVL93:
 681:../../Drivers/STM32L5xx_HAL_Driver/Src/stm32l5xx_hal_gtzc.c **** }
 987              		.loc 1 681 1 view .LVU291
 988 0002 00F00100 		and	r0, r0, #1
 989 0006 7047     		bx	lr
 990              		.cfi_endproc
 991              	.LFE207:
 993              		.section	.text.HAL_GTZC_MPCBB_ConfigMem,"ax",%progbits
 994              		.align	1
 995              		.global	HAL_GTZC_MPCBB_ConfigMem
 996              		.syntax unified
 997              		.thumb
 998              		.thumb_func
 999              		.fpu fpv4-sp-d16
 1001              	HAL_GTZC_MPCBB_ConfigMem:
 1002              	.LVL94:
 1003              	.LFB208:
 682:../../Drivers/STM32L5xx_HAL_Driver/Src/stm32l5xx_hal_gtzc.c **** 
 683:../../Drivers/STM32L5xx_HAL_Driver/Src/stm32l5xx_hal_gtzc.c **** /**
 684:../../Drivers/STM32L5xx_HAL_Driver/Src/stm32l5xx_hal_gtzc.c ****   * @}
 685:../../Drivers/STM32L5xx_HAL_Driver/Src/stm32l5xx_hal_gtzc.c ****   */
 686:../../Drivers/STM32L5xx_HAL_Driver/Src/stm32l5xx_hal_gtzc.c **** 
 687:../../Drivers/STM32L5xx_HAL_Driver/Src/stm32l5xx_hal_gtzc.c **** #if defined(__ARM_FEATURE_CMSE) && (__ARM_FEATURE_CMSE == 3U)
 688:../../Drivers/STM32L5xx_HAL_Driver/Src/stm32l5xx_hal_gtzc.c **** 
ARM GAS  C:\Users\carlos\AppData\Local\Temp\ccENU8bg.s 			page 33


 689:../../Drivers/STM32L5xx_HAL_Driver/Src/stm32l5xx_hal_gtzc.c **** /** @defgroup GTZC_Exported_Functions_Group4 MPCBB Configuration functions
 690:../../Drivers/STM32L5xx_HAL_Driver/Src/stm32l5xx_hal_gtzc.c ****   * @brief    MPCBB Configuration functions
 691:../../Drivers/STM32L5xx_HAL_Driver/Src/stm32l5xx_hal_gtzc.c ****   *
 692:../../Drivers/STM32L5xx_HAL_Driver/Src/stm32l5xx_hal_gtzc.c ****   @verbatim
 693:../../Drivers/STM32L5xx_HAL_Driver/Src/stm32l5xx_hal_gtzc.c ****   ==============================================================================
 694:../../Drivers/STM32L5xx_HAL_Driver/Src/stm32l5xx_hal_gtzc.c ****             ##### MPCBB Configuration functions #####
 695:../../Drivers/STM32L5xx_HAL_Driver/Src/stm32l5xx_hal_gtzc.c ****   ==============================================================================
 696:../../Drivers/STM32L5xx_HAL_Driver/Src/stm32l5xx_hal_gtzc.c ****   [..]
 697:../../Drivers/STM32L5xx_HAL_Driver/Src/stm32l5xx_hal_gtzc.c ****     This section provides functions allowing to configure MPCBB
 698:../../Drivers/STM32L5xx_HAL_Driver/Src/stm32l5xx_hal_gtzc.c ****     MPCBB is  Memory Protection Controller Block Base
 699:../../Drivers/STM32L5xx_HAL_Driver/Src/stm32l5xx_hal_gtzc.c **** @endverbatim
 700:../../Drivers/STM32L5xx_HAL_Driver/Src/stm32l5xx_hal_gtzc.c ****   * @{
 701:../../Drivers/STM32L5xx_HAL_Driver/Src/stm32l5xx_hal_gtzc.c ****   */
 702:../../Drivers/STM32L5xx_HAL_Driver/Src/stm32l5xx_hal_gtzc.c **** 
 703:../../Drivers/STM32L5xx_HAL_Driver/Src/stm32l5xx_hal_gtzc.c **** /**
 704:../../Drivers/STM32L5xx_HAL_Driver/Src/stm32l5xx_hal_gtzc.c ****   * @brief  Set a complete MPCBB configuration on the SRAM passed as parameter.
 705:../../Drivers/STM32L5xx_HAL_Driver/Src/stm32l5xx_hal_gtzc.c ****   * @param  MemBaseAddress MPCBB identifier.
 706:../../Drivers/STM32L5xx_HAL_Driver/Src/stm32l5xx_hal_gtzc.c ****   * @param  pMPCBB_desc pointer to MPCBB descriptor.
 707:../../Drivers/STM32L5xx_HAL_Driver/Src/stm32l5xx_hal_gtzc.c ****   *         The structure description is available in @ref GTZC_Exported_Types.
 708:../../Drivers/STM32L5xx_HAL_Driver/Src/stm32l5xx_hal_gtzc.c ****   * @retval HAL status.
 709:../../Drivers/STM32L5xx_HAL_Driver/Src/stm32l5xx_hal_gtzc.c ****   */
 710:../../Drivers/STM32L5xx_HAL_Driver/Src/stm32l5xx_hal_gtzc.c **** HAL_StatusTypeDef HAL_GTZC_MPCBB_ConfigMem(uint32_t MemBaseAddress,
 711:../../Drivers/STM32L5xx_HAL_Driver/Src/stm32l5xx_hal_gtzc.c ****                                            const MPCBB_ConfigTypeDef *pMPCBB_desc)
 712:../../Drivers/STM32L5xx_HAL_Driver/Src/stm32l5xx_hal_gtzc.c **** {
 1004              		.loc 1 712 1 is_stmt 1 view -0
 1005              		.cfi_startproc
 1006              		@ args = 0, pretend = 0, frame = 0
 1007              		@ frame_needed = 0, uses_anonymous_args = 0
 713:../../Drivers/STM32L5xx_HAL_Driver/Src/stm32l5xx_hal_gtzc.c ****   GTZC_MPCBB_TypeDef *mpcbb_ptr;
 1008              		.loc 1 713 3 view .LVU293
 714:../../Drivers/STM32L5xx_HAL_Driver/Src/stm32l5xx_hal_gtzc.c ****   uint32_t reg_value;
 1009              		.loc 1 714 3 view .LVU294
 715:../../Drivers/STM32L5xx_HAL_Driver/Src/stm32l5xx_hal_gtzc.c ****   uint32_t mem_size;
 1010              		.loc 1 715 3 view .LVU295
 716:../../Drivers/STM32L5xx_HAL_Driver/Src/stm32l5xx_hal_gtzc.c ****   uint32_t size_mask;
 1011              		.loc 1 716 3 view .LVU296
 717:../../Drivers/STM32L5xx_HAL_Driver/Src/stm32l5xx_hal_gtzc.c ****   uint32_t size_in_superblocks;
 1012              		.loc 1 717 3 view .LVU297
 718:../../Drivers/STM32L5xx_HAL_Driver/Src/stm32l5xx_hal_gtzc.c ****   uint32_t i;
 1013              		.loc 1 718 3 view .LVU298
 719:../../Drivers/STM32L5xx_HAL_Driver/Src/stm32l5xx_hal_gtzc.c **** 
 720:../../Drivers/STM32L5xx_HAL_Driver/Src/stm32l5xx_hal_gtzc.c ****   /* check entry parameters */
 721:../../Drivers/STM32L5xx_HAL_Driver/Src/stm32l5xx_hal_gtzc.c ****   if ((!(IS_GTZC_BASE_ADDRESS(SRAM1, MemBaseAddress))
 1014              		.loc 1 721 3 view .LVU299
 1015              		.loc 1 721 6 is_stmt 0 view .LVU300
 1016 0000 B0F1005F 		cmp	r0, #536870912
 1017 0004 09D0     		beq	.L95
 1018              		.loc 1 721 8 discriminator 1 view .LVU301
 1019 0006 B0F1405F 		cmp	r0, #805306368
 1020 000a 06D0     		beq	.L95
 722:../../Drivers/STM32L5xx_HAL_Driver/Src/stm32l5xx_hal_gtzc.c ****        &&  !(IS_GTZC_BASE_ADDRESS(SRAM2, MemBaseAddress)))
 1021              		.loc 1 722 8 view .LVU302
 1022 000c 244B     		ldr	r3, .L111
 1023 000e 9842     		cmp	r0, r3
 1024 0010 03D0     		beq	.L95
 1025              		.loc 1 722 12 discriminator 1 view .LVU303
 1026 0012 03F18053 		add	r3, r3, #268435456
ARM GAS  C:\Users\carlos\AppData\Local\Temp\ccENU8bg.s 			page 34


 1027 0016 9842     		cmp	r0, r3
 1028 0018 3CD1     		bne	.L102
 1029              	.L95:
 723:../../Drivers/STM32L5xx_HAL_Driver/Src/stm32l5xx_hal_gtzc.c ****       || ((pMPCBB_desc->SecureRWIllegalMode != GTZC_MPCBB_SRWILADIS_ENABLE)
 1030              		.loc 1 723 23 view .LVU304
 1031 001a 0B68     		ldr	r3, [r1]
 1032              		.loc 1 723 7 view .LVU305
 1033 001c 13B1     		cbz	r3, .L97
 724:../../Drivers/STM32L5xx_HAL_Driver/Src/stm32l5xx_hal_gtzc.c ****           && (pMPCBB_desc->SecureRWIllegalMode != GTZC_MPCBB_SRWILADIS_DISABLE))
 1034              		.loc 1 724 11 view .LVU306
 1035 001e B3F1004F 		cmp	r3, #-2147483648
 1036 0022 39D1     		bne	.L103
 1037              	.L97:
 725:../../Drivers/STM32L5xx_HAL_Driver/Src/stm32l5xx_hal_gtzc.c ****       || ((pMPCBB_desc->InvertSecureState != GTZC_MPCBB_INVSECSTATE_NOT_INVERTED)
 1038              		.loc 1 725 23 view .LVU307
 1039 0024 4A68     		ldr	r2, [r1, #4]
 1040              		.loc 1 725 7 view .LVU308
 1041 0026 12B1     		cbz	r2, .L98
 726:../../Drivers/STM32L5xx_HAL_Driver/Src/stm32l5xx_hal_gtzc.c ****           && (pMPCBB_desc->InvertSecureState != GTZC_MPCBB_INVSECSTATE_INVERTED)))
 1042              		.loc 1 726 11 view .LVU309
 1043 0028 B2F1804F 		cmp	r2, #1073741824
 1044 002c 36D1     		bne	.L104
 1045              	.L98:
 712:../../Drivers/STM32L5xx_HAL_Driver/Src/stm32l5xx_hal_gtzc.c ****   GTZC_MPCBB_TypeDef *mpcbb_ptr;
 1046              		.loc 1 712 1 view .LVU310
 1047 002e 10B5     		push	{r4, lr}
 1048              	.LCFI12:
 1049              		.cfi_def_cfa_offset 8
 1050              		.cfi_offset 4, -8
 1051              		.cfi_offset 14, -4
 727:../../Drivers/STM32L5xx_HAL_Driver/Src/stm32l5xx_hal_gtzc.c ****   {
 728:../../Drivers/STM32L5xx_HAL_Driver/Src/stm32l5xx_hal_gtzc.c ****     return HAL_ERROR;
 729:../../Drivers/STM32L5xx_HAL_Driver/Src/stm32l5xx_hal_gtzc.c ****   }
 730:../../Drivers/STM32L5xx_HAL_Driver/Src/stm32l5xx_hal_gtzc.c **** 
 731:../../Drivers/STM32L5xx_HAL_Driver/Src/stm32l5xx_hal_gtzc.c ****   /* write InvertSecureState and SecureRWIllegalMode properties */
 732:../../Drivers/STM32L5xx_HAL_Driver/Src/stm32l5xx_hal_gtzc.c ****   /* assume their Position/Mask is identical for all sub-blocks */
 733:../../Drivers/STM32L5xx_HAL_Driver/Src/stm32l5xx_hal_gtzc.c ****   reg_value = pMPCBB_desc->InvertSecureState;
 1052              		.loc 1 733 3 is_stmt 1 view .LVU311
 1053              	.LVL95:
 734:../../Drivers/STM32L5xx_HAL_Driver/Src/stm32l5xx_hal_gtzc.c ****   reg_value |= pMPCBB_desc->SecureRWIllegalMode;
 1054              		.loc 1 734 3 view .LVU312
 1055              		.loc 1 734 13 is_stmt 0 view .LVU313
 1056 0030 43EA020E 		orr	lr, r3, r2
 1057              	.LVL96:
 735:../../Drivers/STM32L5xx_HAL_Driver/Src/stm32l5xx_hal_gtzc.c ****   if (IS_GTZC_BASE_ADDRESS(SRAM1, MemBaseAddress))
 1058              		.loc 1 735 3 is_stmt 1 view .LVU314
 1059              		.loc 1 735 6 is_stmt 0 view .LVU315
 1060 0034 B0F1005F 		cmp	r0, #536870912
 1061 0038 0DD0     		beq	.L105
 1062              		.loc 1 735 7 discriminator 1 view .LVU316
 1063 003a B0F1405F 		cmp	r0, #805306368
 1064 003e 06D0     		beq	.L110
 736:../../Drivers/STM32L5xx_HAL_Driver/Src/stm32l5xx_hal_gtzc.c ****   {
 737:../../Drivers/STM32L5xx_HAL_Driver/Src/stm32l5xx_hal_gtzc.c ****     mpcbb_ptr = GTZC_MPCBB1_S;
 738:../../Drivers/STM32L5xx_HAL_Driver/Src/stm32l5xx_hal_gtzc.c ****     mem_size = GTZC_MEM_SIZE(SRAM1);
 739:../../Drivers/STM32L5xx_HAL_Driver/Src/stm32l5xx_hal_gtzc.c ****   }
 740:../../Drivers/STM32L5xx_HAL_Driver/Src/stm32l5xx_hal_gtzc.c ****   else
ARM GAS  C:\Users\carlos\AppData\Local\Temp\ccENU8bg.s 			page 35


 741:../../Drivers/STM32L5xx_HAL_Driver/Src/stm32l5xx_hal_gtzc.c ****   {
 742:../../Drivers/STM32L5xx_HAL_Driver/Src/stm32l5xx_hal_gtzc.c ****     /* Here MemBaseAddress is inside SRAM2 (already tested) */
 743:../../Drivers/STM32L5xx_HAL_Driver/Src/stm32l5xx_hal_gtzc.c ****     mpcbb_ptr = GTZC_MPCBB2_S;
 744:../../Drivers/STM32L5xx_HAL_Driver/Src/stm32l5xx_hal_gtzc.c ****     mem_size = GTZC_MEM_SIZE(SRAM2);
 1065              		.loc 1 744 14 view .LVU317
 1066 0040 4FF4803C 		mov	ip, #65536
 743:../../Drivers/STM32L5xx_HAL_Driver/Src/stm32l5xx_hal_gtzc.c ****     mem_size = GTZC_MEM_SIZE(SRAM2);
 1067              		.loc 1 743 15 view .LVU318
 1068 0044 174C     		ldr	r4, .L111+4
 1069              	.L99:
 1070              	.LVL97:
 745:../../Drivers/STM32L5xx_HAL_Driver/Src/stm32l5xx_hal_gtzc.c ****   }
 746:../../Drivers/STM32L5xx_HAL_Driver/Src/stm32l5xx_hal_gtzc.c **** 
 747:../../Drivers/STM32L5xx_HAL_Driver/Src/stm32l5xx_hal_gtzc.c ****   /* write vector register information */
 748:../../Drivers/STM32L5xx_HAL_Driver/Src/stm32l5xx_hal_gtzc.c ****   size_in_superblocks = (mem_size / GTZC_MPCBB_SUPERBLOCK_SIZE);
 1071              		.loc 1 748 3 is_stmt 1 view .LVU319
 1072              		.loc 1 748 23 is_stmt 0 view .LVU320
 1073 0046 4FEA5C3C 		lsr	ip, ip, #13
 1074              	.LVL98:
 749:../../Drivers/STM32L5xx_HAL_Driver/Src/stm32l5xx_hal_gtzc.c ****   for (i = 0U; i < size_in_superblocks; i++)
 1075              		.loc 1 749 3 is_stmt 1 view .LVU321
 1076              		.loc 1 749 10 is_stmt 0 view .LVU322
 1077 004a 0023     		movs	r3, #0
 1078              		.loc 1 749 3 view .LVU323
 1079 004c 0FE0     		b	.L100
 1080              	.LVL99:
 1081              	.L110:
 738:../../Drivers/STM32L5xx_HAL_Driver/Src/stm32l5xx_hal_gtzc.c ****   }
 1082              		.loc 1 738 14 view .LVU324
 1083 004e 4FF4403C 		mov	ip, #196608
 737:../../Drivers/STM32L5xx_HAL_Driver/Src/stm32l5xx_hal_gtzc.c ****     mem_size = GTZC_MEM_SIZE(SRAM1);
 1084              		.loc 1 737 15 view .LVU325
 1085 0052 154C     		ldr	r4, .L111+8
 1086 0054 F7E7     		b	.L99
 1087              	.L105:
 738:../../Drivers/STM32L5xx_HAL_Driver/Src/stm32l5xx_hal_gtzc.c ****   }
 1088              		.loc 1 738 14 view .LVU326
 1089 0056 4FF4403C 		mov	ip, #196608
 737:../../Drivers/STM32L5xx_HAL_Driver/Src/stm32l5xx_hal_gtzc.c ****     mem_size = GTZC_MEM_SIZE(SRAM1);
 1090              		.loc 1 737 15 view .LVU327
 1091 005a 134C     		ldr	r4, .L111+8
 1092 005c F3E7     		b	.L99
 1093              	.LVL100:
 1094              	.L101:
 750:../../Drivers/STM32L5xx_HAL_Driver/Src/stm32l5xx_hal_gtzc.c ****   {
 751:../../Drivers/STM32L5xx_HAL_Driver/Src/stm32l5xx_hal_gtzc.c ****     WRITE_REG(mpcbb_ptr->VCTR[i],
 1095              		.loc 1 751 5 is_stmt 1 discriminator 3 view .LVU328
 1096 005e 9A1C     		adds	r2, r3, #2
 1097 0060 51F82200 		ldr	r0, [r1, r2, lsl #2]
 1098 0064 03F14002 		add	r2, r3, #64
 1099 0068 44F82200 		str	r0, [r4, r2, lsl #2]
 749:../../Drivers/STM32L5xx_HAL_Driver/Src/stm32l5xx_hal_gtzc.c ****   {
 1100              		.loc 1 749 41 discriminator 3 view .LVU329
 749:../../Drivers/STM32L5xx_HAL_Driver/Src/stm32l5xx_hal_gtzc.c ****   {
 1101              		.loc 1 749 42 is_stmt 0 discriminator 3 view .LVU330
 1102 006c 0133     		adds	r3, r3, #1
 1103              	.LVL101:
ARM GAS  C:\Users\carlos\AppData\Local\Temp\ccENU8bg.s 			page 36


 1104              	.L100:
 749:../../Drivers/STM32L5xx_HAL_Driver/Src/stm32l5xx_hal_gtzc.c ****   {
 1105              		.loc 1 749 16 is_stmt 1 discriminator 1 view .LVU331
 749:../../Drivers/STM32L5xx_HAL_Driver/Src/stm32l5xx_hal_gtzc.c ****   {
 1106              		.loc 1 749 3 is_stmt 0 discriminator 1 view .LVU332
 1107 006e 6345     		cmp	r3, ip
 1108 0070 F5D3     		bcc	.L101
 752:../../Drivers/STM32L5xx_HAL_Driver/Src/stm32l5xx_hal_gtzc.c ****               pMPCBB_desc->AttributeConfig.MPCBB_SecConfig_array[i]);
 753:../../Drivers/STM32L5xx_HAL_Driver/Src/stm32l5xx_hal_gtzc.c ****   }
 754:../../Drivers/STM32L5xx_HAL_Driver/Src/stm32l5xx_hal_gtzc.c **** 
 755:../../Drivers/STM32L5xx_HAL_Driver/Src/stm32l5xx_hal_gtzc.c ****   /* write configuration and lock register information */
 756:../../Drivers/STM32L5xx_HAL_Driver/Src/stm32l5xx_hal_gtzc.c ****   MODIFY_REG(mpcbb_ptr->CR,
 1109              		.loc 1 756 3 is_stmt 1 view .LVU333
 1110 0072 2368     		ldr	r3, [r4]
 1111              	.LVL102:
 1112              		.loc 1 756 3 is_stmt 0 view .LVU334
 1113 0074 23F04043 		bic	r3, r3, #-1073741824
 1114 0078 43EA0E03 		orr	r3, r3, lr
 1115 007c 2360     		str	r3, [r4]
 757:../../Drivers/STM32L5xx_HAL_Driver/Src/stm32l5xx_hal_gtzc.c ****              GTZC_MPCBB_CR_INVSECSTATE_Msk | GTZC_MPCBB_CR_SRWILADIS_Msk, reg_value);
 758:../../Drivers/STM32L5xx_HAL_Driver/Src/stm32l5xx_hal_gtzc.c **** 
 759:../../Drivers/STM32L5xx_HAL_Driver/Src/stm32l5xx_hal_gtzc.c ****   size_mask = (1UL << (mem_size / GTZC_MPCBB_SUPERBLOCK_SIZE)) - 1U;
 1116              		.loc 1 759 3 is_stmt 1 view .LVU335
 1117              		.loc 1 759 20 is_stmt 0 view .LVU336
 1118 007e 0123     		movs	r3, #1
 1119 0080 03FA0CF3 		lsl	r3, r3, ip
 1120              	.LVL103:
 760:../../Drivers/STM32L5xx_HAL_Driver/Src/stm32l5xx_hal_gtzc.c ****   /* limitation: code not portable with memory > 256K */
 761:../../Drivers/STM32L5xx_HAL_Driver/Src/stm32l5xx_hal_gtzc.c ****   MODIFY_REG(mpcbb_ptr->LCKVTR1, size_mask, pMPCBB_desc->AttributeConfig.MPCBB_LockConfig_array[0])
 1121              		.loc 1 761 3 is_stmt 1 view .LVU337
 1122 0084 2269     		ldr	r2, [r4, #16]
 1123 0086 5B42     		rsbs	r3, r3, #0
 1124              	.LVL104:
 1125              		.loc 1 761 3 is_stmt 0 view .LVU338
 1126 0088 1340     		ands	r3, r3, r2
 1127              	.LVL105:
 1128              		.loc 1 761 3 view .LVU339
 1129 008a 8A6E     		ldr	r2, [r1, #104]
 1130 008c 1343     		orrs	r3, r3, r2
 1131 008e 2361     		str	r3, [r4, #16]
 762:../../Drivers/STM32L5xx_HAL_Driver/Src/stm32l5xx_hal_gtzc.c **** 
 763:../../Drivers/STM32L5xx_HAL_Driver/Src/stm32l5xx_hal_gtzc.c ****   return HAL_OK;
 1132              		.loc 1 763 3 is_stmt 1 view .LVU340
 1133              		.loc 1 763 10 is_stmt 0 view .LVU341
 1134 0090 0020     		movs	r0, #0
 764:../../Drivers/STM32L5xx_HAL_Driver/Src/stm32l5xx_hal_gtzc.c **** }
 1135              		.loc 1 764 1 view .LVU342
 1136 0092 10BD     		pop	{r4, pc}
 1137              	.LVL106:
 1138              	.L102:
 1139              	.LCFI13:
 1140              		.cfi_def_cfa_offset 0
 1141              		.cfi_restore 4
 1142              		.cfi_restore 14
 728:../../Drivers/STM32L5xx_HAL_Driver/Src/stm32l5xx_hal_gtzc.c ****   }
 1143              		.loc 1 728 12 view .LVU343
 1144 0094 0120     		movs	r0, #1
ARM GAS  C:\Users\carlos\AppData\Local\Temp\ccENU8bg.s 			page 37


 1145              	.LVL107:
 728:../../Drivers/STM32L5xx_HAL_Driver/Src/stm32l5xx_hal_gtzc.c ****   }
 1146              		.loc 1 728 12 view .LVU344
 1147 0096 7047     		bx	lr
 1148              	.LVL108:
 1149              	.L103:
 728:../../Drivers/STM32L5xx_HAL_Driver/Src/stm32l5xx_hal_gtzc.c ****   }
 1150              		.loc 1 728 12 view .LVU345
 1151 0098 0120     		movs	r0, #1
 1152              	.LVL109:
 728:../../Drivers/STM32L5xx_HAL_Driver/Src/stm32l5xx_hal_gtzc.c ****   }
 1153              		.loc 1 728 12 view .LVU346
 1154 009a 7047     		bx	lr
 1155              	.LVL110:
 1156              	.L104:
 728:../../Drivers/STM32L5xx_HAL_Driver/Src/stm32l5xx_hal_gtzc.c ****   }
 1157              		.loc 1 728 12 view .LVU347
 1158 009c 0120     		movs	r0, #1
 1159              	.LVL111:
 1160              		.loc 1 764 1 view .LVU348
 1161 009e 7047     		bx	lr
 1162              	.L112:
 1163              		.align	2
 1164              	.L111:
 1165 00a0 00000320 		.word	537067520
 1166 00a4 00300350 		.word	1342386176
 1167 00a8 002C0350 		.word	1342385152
 1168              		.cfi_endproc
 1169              	.LFE208:
 1171              		.section	.text.HAL_GTZC_MPCBB_GetConfigMem,"ax",%progbits
 1172              		.align	1
 1173              		.global	HAL_GTZC_MPCBB_GetConfigMem
 1174              		.syntax unified
 1175              		.thumb
 1176              		.thumb_func
 1177              		.fpu fpv4-sp-d16
 1179              	HAL_GTZC_MPCBB_GetConfigMem:
 1180              	.LVL112:
 1181              	.LFB209:
 765:../../Drivers/STM32L5xx_HAL_Driver/Src/stm32l5xx_hal_gtzc.c **** 
 766:../../Drivers/STM32L5xx_HAL_Driver/Src/stm32l5xx_hal_gtzc.c **** /**
 767:../../Drivers/STM32L5xx_HAL_Driver/Src/stm32l5xx_hal_gtzc.c ****   * @brief  Get a complete MPCBB configuration on the SRAM passed as parameter.
 768:../../Drivers/STM32L5xx_HAL_Driver/Src/stm32l5xx_hal_gtzc.c ****   * @param  MemBaseAddress MPCBB identifier.
 769:../../Drivers/STM32L5xx_HAL_Driver/Src/stm32l5xx_hal_gtzc.c ****   * @param  pMPCBB_desc pointer to a MPCBB descriptor.
 770:../../Drivers/STM32L5xx_HAL_Driver/Src/stm32l5xx_hal_gtzc.c ****   *         The structure description is available in @ref GTZC_Exported_Types.
 771:../../Drivers/STM32L5xx_HAL_Driver/Src/stm32l5xx_hal_gtzc.c ****   * @retval HAL status.
 772:../../Drivers/STM32L5xx_HAL_Driver/Src/stm32l5xx_hal_gtzc.c ****   */
 773:../../Drivers/STM32L5xx_HAL_Driver/Src/stm32l5xx_hal_gtzc.c **** HAL_StatusTypeDef HAL_GTZC_MPCBB_GetConfigMem(uint32_t MemBaseAddress,
 774:../../Drivers/STM32L5xx_HAL_Driver/Src/stm32l5xx_hal_gtzc.c ****                                               MPCBB_ConfigTypeDef *pMPCBB_desc)
 775:../../Drivers/STM32L5xx_HAL_Driver/Src/stm32l5xx_hal_gtzc.c **** {
 1182              		.loc 1 775 1 is_stmt 1 view -0
 1183              		.cfi_startproc
 1184              		@ args = 0, pretend = 0, frame = 0
 1185              		@ frame_needed = 0, uses_anonymous_args = 0
 1186              		@ link register save eliminated.
 776:../../Drivers/STM32L5xx_HAL_Driver/Src/stm32l5xx_hal_gtzc.c ****   GTZC_MPCBB_TypeDef *mpcbb_ptr;
 1187              		.loc 1 776 3 view .LVU350
ARM GAS  C:\Users\carlos\AppData\Local\Temp\ccENU8bg.s 			page 38


 777:../../Drivers/STM32L5xx_HAL_Driver/Src/stm32l5xx_hal_gtzc.c ****   uint32_t reg_value;
 1188              		.loc 1 777 3 view .LVU351
 778:../../Drivers/STM32L5xx_HAL_Driver/Src/stm32l5xx_hal_gtzc.c ****   uint32_t mem_size;
 1189              		.loc 1 778 3 view .LVU352
 779:../../Drivers/STM32L5xx_HAL_Driver/Src/stm32l5xx_hal_gtzc.c ****   uint32_t size_mask;
 1190              		.loc 1 779 3 view .LVU353
 780:../../Drivers/STM32L5xx_HAL_Driver/Src/stm32l5xx_hal_gtzc.c ****   uint32_t size_in_superblocks;
 1191              		.loc 1 780 3 view .LVU354
 781:../../Drivers/STM32L5xx_HAL_Driver/Src/stm32l5xx_hal_gtzc.c ****   uint32_t i;
 1192              		.loc 1 781 3 view .LVU355
 782:../../Drivers/STM32L5xx_HAL_Driver/Src/stm32l5xx_hal_gtzc.c **** 
 783:../../Drivers/STM32L5xx_HAL_Driver/Src/stm32l5xx_hal_gtzc.c ****   /* check entry parameters */
 784:../../Drivers/STM32L5xx_HAL_Driver/Src/stm32l5xx_hal_gtzc.c ****   if (!(IS_GTZC_BASE_ADDRESS(SRAM1, MemBaseAddress))
 1193              		.loc 1 784 3 view .LVU356
 1194              		.loc 1 784 6 is_stmt 0 view .LVU357
 1195 0000 B0F1005F 		cmp	r0, #536870912
 1196 0004 09D0     		beq	.L114
 1197              		.loc 1 784 7 discriminator 1 view .LVU358
 1198 0006 B0F1405F 		cmp	r0, #805306368
 1199 000a 06D0     		beq	.L114
 785:../../Drivers/STM32L5xx_HAL_Driver/Src/stm32l5xx_hal_gtzc.c ****       && !(IS_GTZC_BASE_ADDRESS(SRAM2, MemBaseAddress)))
 1200              		.loc 1 785 7 view .LVU359
 1201 000c 1D4B     		ldr	r3, .L126
 1202 000e 9842     		cmp	r0, r3
 1203 0010 03D0     		beq	.L114
 1204              		.loc 1 785 10 discriminator 1 view .LVU360
 1205 0012 03F18053 		add	r3, r3, #268435456
 1206 0016 9842     		cmp	r0, r3
 1207 0018 32D1     		bne	.L119
 1208              	.L114:
 775:../../Drivers/STM32L5xx_HAL_Driver/Src/stm32l5xx_hal_gtzc.c ****   GTZC_MPCBB_TypeDef *mpcbb_ptr;
 1209              		.loc 1 775 1 view .LVU361
 1210 001a 10B4     		push	{r4}
 1211              	.LCFI14:
 1212              		.cfi_def_cfa_offset 4
 1213              		.cfi_offset 4, -4
 786:../../Drivers/STM32L5xx_HAL_Driver/Src/stm32l5xx_hal_gtzc.c ****   {
 787:../../Drivers/STM32L5xx_HAL_Driver/Src/stm32l5xx_hal_gtzc.c ****     return HAL_ERROR;
 788:../../Drivers/STM32L5xx_HAL_Driver/Src/stm32l5xx_hal_gtzc.c ****   }
 789:../../Drivers/STM32L5xx_HAL_Driver/Src/stm32l5xx_hal_gtzc.c **** 
 790:../../Drivers/STM32L5xx_HAL_Driver/Src/stm32l5xx_hal_gtzc.c ****   /* read InvertSecureState and SecureRWIllegalMode properties */
 791:../../Drivers/STM32L5xx_HAL_Driver/Src/stm32l5xx_hal_gtzc.c ****   /* assume their Position/Mask is identical for all sub-blocks */
 792:../../Drivers/STM32L5xx_HAL_Driver/Src/stm32l5xx_hal_gtzc.c ****   if (IS_GTZC_BASE_ADDRESS(SRAM1, MemBaseAddress))
 1214              		.loc 1 792 3 is_stmt 1 view .LVU362
 1215              		.loc 1 792 6 is_stmt 0 view .LVU363
 1216 001c B0F1005F 		cmp	r0, #536870912
 1217 0020 1CD0     		beq	.L120
 1218              		.loc 1 792 7 discriminator 1 view .LVU364
 1219 0022 B0F1405F 		cmp	r0, #805306368
 1220 0026 15D0     		beq	.L125
 793:../../Drivers/STM32L5xx_HAL_Driver/Src/stm32l5xx_hal_gtzc.c ****   {
 794:../../Drivers/STM32L5xx_HAL_Driver/Src/stm32l5xx_hal_gtzc.c ****     mpcbb_ptr = GTZC_MPCBB1_S;
 795:../../Drivers/STM32L5xx_HAL_Driver/Src/stm32l5xx_hal_gtzc.c ****     mem_size = GTZC_MEM_SIZE(SRAM1);
 796:../../Drivers/STM32L5xx_HAL_Driver/Src/stm32l5xx_hal_gtzc.c ****   }
 797:../../Drivers/STM32L5xx_HAL_Driver/Src/stm32l5xx_hal_gtzc.c ****   else
 798:../../Drivers/STM32L5xx_HAL_Driver/Src/stm32l5xx_hal_gtzc.c ****   {
 799:../../Drivers/STM32L5xx_HAL_Driver/Src/stm32l5xx_hal_gtzc.c ****     mpcbb_ptr = GTZC_MPCBB2_S;
ARM GAS  C:\Users\carlos\AppData\Local\Temp\ccENU8bg.s 			page 39


 800:../../Drivers/STM32L5xx_HAL_Driver/Src/stm32l5xx_hal_gtzc.c ****     mem_size = GTZC_MEM_SIZE(SRAM2);
 1221              		.loc 1 800 14 view .LVU365
 1222 0028 4FF4803C 		mov	ip, #65536
 799:../../Drivers/STM32L5xx_HAL_Driver/Src/stm32l5xx_hal_gtzc.c ****     mem_size = GTZC_MEM_SIZE(SRAM2);
 1223              		.loc 1 799 15 view .LVU366
 1224 002c 164C     		ldr	r4, .L126+4
 1225              	.L116:
 1226              	.LVL113:
 801:../../Drivers/STM32L5xx_HAL_Driver/Src/stm32l5xx_hal_gtzc.c ****   }
 802:../../Drivers/STM32L5xx_HAL_Driver/Src/stm32l5xx_hal_gtzc.c **** 
 803:../../Drivers/STM32L5xx_HAL_Driver/Src/stm32l5xx_hal_gtzc.c ****   /* read configuration and lock register information */
 804:../../Drivers/STM32L5xx_HAL_Driver/Src/stm32l5xx_hal_gtzc.c ****   reg_value = READ_REG(mpcbb_ptr->CR);
 1227              		.loc 1 804 3 is_stmt 1 view .LVU367
 1228              		.loc 1 804 13 is_stmt 0 view .LVU368
 1229 002e 2368     		ldr	r3, [r4]
 1230              	.LVL114:
 805:../../Drivers/STM32L5xx_HAL_Driver/Src/stm32l5xx_hal_gtzc.c ****   pMPCBB_desc->InvertSecureState = (reg_value & GTZC_MPCBB_CR_INVSECSTATE_Msk);
 1231              		.loc 1 805 3 is_stmt 1 view .LVU369
 1232              		.loc 1 805 47 is_stmt 0 view .LVU370
 1233 0030 03F08042 		and	r2, r3, #1073741824
 1234              		.loc 1 805 34 view .LVU371
 1235 0034 4A60     		str	r2, [r1, #4]
 806:../../Drivers/STM32L5xx_HAL_Driver/Src/stm32l5xx_hal_gtzc.c ****   pMPCBB_desc->SecureRWIllegalMode = (reg_value & GTZC_MPCBB_CR_SRWILADIS_Msk);
 1236              		.loc 1 806 3 is_stmt 1 view .LVU372
 1237              		.loc 1 806 49 is_stmt 0 view .LVU373
 1238 0036 03F00043 		and	r3, r3, #-2147483648
 1239              	.LVL115:
 1240              		.loc 1 806 36 view .LVU374
 1241 003a 0B60     		str	r3, [r1]
 807:../../Drivers/STM32L5xx_HAL_Driver/Src/stm32l5xx_hal_gtzc.c ****   size_mask = (1UL << (mem_size / GTZC_MPCBB_SUPERBLOCK_SIZE)) - 1U;
 1242              		.loc 1 807 3 is_stmt 1 view .LVU375
 1243              		.loc 1 807 33 is_stmt 0 view .LVU376
 1244 003c 4FEA5C3C 		lsr	ip, ip, #13
 1245              	.LVL116:
 808:../../Drivers/STM32L5xx_HAL_Driver/Src/stm32l5xx_hal_gtzc.c ****   /* limitation: code not portable with memory > 256K */
 809:../../Drivers/STM32L5xx_HAL_Driver/Src/stm32l5xx_hal_gtzc.c ****   pMPCBB_desc->AttributeConfig.MPCBB_LockConfig_array[0] = READ_REG(mpcbb_ptr->LCKVTR1)& size_mask;
 1246              		.loc 1 809 3 is_stmt 1 view .LVU377
 1247              		.loc 1 809 60 is_stmt 0 view .LVU378
 1248 0040 2369     		ldr	r3, [r4, #16]
 1249              		.loc 1 809 88 view .LVU379
 1250 0042 4FF0FF32 		mov	r2, #-1
 1251 0046 02FA0CF2 		lsl	r2, r2, ip
 1252 004a 23EA0203 		bic	r3, r3, r2
 1253              		.loc 1 809 58 view .LVU380
 1254 004e 8B66     		str	r3, [r1, #104]
 810:../../Drivers/STM32L5xx_HAL_Driver/Src/stm32l5xx_hal_gtzc.c **** 
 811:../../Drivers/STM32L5xx_HAL_Driver/Src/stm32l5xx_hal_gtzc.c ****   /* read vector register information */
 812:../../Drivers/STM32L5xx_HAL_Driver/Src/stm32l5xx_hal_gtzc.c ****   size_in_superblocks = (mem_size / GTZC_MPCBB_SUPERBLOCK_SIZE);
 1255              		.loc 1 812 3 is_stmt 1 view .LVU381
 1256              	.LVL117:
 813:../../Drivers/STM32L5xx_HAL_Driver/Src/stm32l5xx_hal_gtzc.c ****   for (i = 0U; i < size_in_superblocks; i++)
 1257              		.loc 1 813 3 view .LVU382
 1258              		.loc 1 813 10 is_stmt 0 view .LVU383
 1259 0050 0023     		movs	r3, #0
 1260              		.loc 1 813 3 view .LVU384
 1261 0052 0FE0     		b	.L117
 1262              	.LVL118:
ARM GAS  C:\Users\carlos\AppData\Local\Temp\ccENU8bg.s 			page 40


 1263              	.L125:
 795:../../Drivers/STM32L5xx_HAL_Driver/Src/stm32l5xx_hal_gtzc.c ****   }
 1264              		.loc 1 795 14 view .LVU385
 1265 0054 4FF4403C 		mov	ip, #196608
 794:../../Drivers/STM32L5xx_HAL_Driver/Src/stm32l5xx_hal_gtzc.c ****     mem_size = GTZC_MEM_SIZE(SRAM1);
 1266              		.loc 1 794 15 view .LVU386
 1267 0058 0C4C     		ldr	r4, .L126+8
 1268 005a E8E7     		b	.L116
 1269              	.L120:
 795:../../Drivers/STM32L5xx_HAL_Driver/Src/stm32l5xx_hal_gtzc.c ****   }
 1270              		.loc 1 795 14 view .LVU387
 1271 005c 4FF4403C 		mov	ip, #196608
 794:../../Drivers/STM32L5xx_HAL_Driver/Src/stm32l5xx_hal_gtzc.c ****     mem_size = GTZC_MEM_SIZE(SRAM1);
 1272              		.loc 1 794 15 view .LVU388
 1273 0060 0A4C     		ldr	r4, .L126+8
 1274 0062 E4E7     		b	.L116
 1275              	.LVL119:
 1276              	.L118:
 814:../../Drivers/STM32L5xx_HAL_Driver/Src/stm32l5xx_hal_gtzc.c ****   {
 815:../../Drivers/STM32L5xx_HAL_Driver/Src/stm32l5xx_hal_gtzc.c ****     pMPCBB_desc->AttributeConfig.MPCBB_SecConfig_array[i] = mpcbb_ptr->VCTR[i];
 1277              		.loc 1 815 5 is_stmt 1 discriminator 3 view .LVU389
 1278              		.loc 1 815 76 is_stmt 0 discriminator 3 view .LVU390
 1279 0064 03F14002 		add	r2, r3, #64
 1280 0068 54F82200 		ldr	r0, [r4, r2, lsl #2]
 1281              		.loc 1 815 59 discriminator 3 view .LVU391
 1282 006c 9A1C     		adds	r2, r3, #2
 1283 006e 41F82200 		str	r0, [r1, r2, lsl #2]
 813:../../Drivers/STM32L5xx_HAL_Driver/Src/stm32l5xx_hal_gtzc.c ****   {
 1284              		.loc 1 813 41 is_stmt 1 discriminator 3 view .LVU392
 813:../../Drivers/STM32L5xx_HAL_Driver/Src/stm32l5xx_hal_gtzc.c ****   {
 1285              		.loc 1 813 42 is_stmt 0 discriminator 3 view .LVU393
 1286 0072 0133     		adds	r3, r3, #1
 1287              	.LVL120:
 1288              	.L117:
 813:../../Drivers/STM32L5xx_HAL_Driver/Src/stm32l5xx_hal_gtzc.c ****   {
 1289              		.loc 1 813 16 is_stmt 1 discriminator 1 view .LVU394
 813:../../Drivers/STM32L5xx_HAL_Driver/Src/stm32l5xx_hal_gtzc.c ****   {
 1290              		.loc 1 813 3 is_stmt 0 discriminator 1 view .LVU395
 1291 0074 9C45     		cmp	ip, r3
 1292 0076 F5D8     		bhi	.L118
 816:../../Drivers/STM32L5xx_HAL_Driver/Src/stm32l5xx_hal_gtzc.c ****   }
 817:../../Drivers/STM32L5xx_HAL_Driver/Src/stm32l5xx_hal_gtzc.c **** 
 818:../../Drivers/STM32L5xx_HAL_Driver/Src/stm32l5xx_hal_gtzc.c ****   return HAL_OK;
 1293              		.loc 1 818 10 view .LVU396
 1294 0078 0020     		movs	r0, #0
 819:../../Drivers/STM32L5xx_HAL_Driver/Src/stm32l5xx_hal_gtzc.c **** }
 1295              		.loc 1 819 1 view .LVU397
 1296 007a 5DF8044B 		ldr	r4, [sp], #4
 1297              	.LCFI15:
 1298              		.cfi_restore 4
 1299              		.cfi_def_cfa_offset 0
 1300              	.LVL121:
 1301              		.loc 1 819 1 view .LVU398
 1302 007e 7047     		bx	lr
 1303              	.LVL122:
 1304              	.L119:
 787:../../Drivers/STM32L5xx_HAL_Driver/Src/stm32l5xx_hal_gtzc.c ****   }
ARM GAS  C:\Users\carlos\AppData\Local\Temp\ccENU8bg.s 			page 41


 1305              		.loc 1 787 12 view .LVU399
 1306 0080 0120     		movs	r0, #1
 1307              	.LVL123:
 1308              		.loc 1 819 1 view .LVU400
 1309 0082 7047     		bx	lr
 1310              	.L127:
 1311              		.align	2
 1312              	.L126:
 1313 0084 00000320 		.word	537067520
 1314 0088 00300350 		.word	1342386176
 1315 008c 002C0350 		.word	1342385152
 1316              		.cfi_endproc
 1317              	.LFE209:
 1319              		.section	.text.HAL_GTZC_MPCBB_ConfigMemAttributes,"ax",%progbits
 1320              		.align	1
 1321              		.global	HAL_GTZC_MPCBB_ConfigMemAttributes
 1322              		.syntax unified
 1323              		.thumb
 1324              		.thumb_func
 1325              		.fpu fpv4-sp-d16
 1327              	HAL_GTZC_MPCBB_ConfigMemAttributes:
 1328              	.LVL124:
 1329              	.LFB210:
 820:../../Drivers/STM32L5xx_HAL_Driver/Src/stm32l5xx_hal_gtzc.c **** 
 821:../../Drivers/STM32L5xx_HAL_Driver/Src/stm32l5xx_hal_gtzc.c **** /**
 822:../../Drivers/STM32L5xx_HAL_Driver/Src/stm32l5xx_hal_gtzc.c ****   * @brief  Set a MPCBB attribute configuration on the SRAM passed as parameter
 823:../../Drivers/STM32L5xx_HAL_Driver/Src/stm32l5xx_hal_gtzc.c ****   *         for a number of blocks.
 824:../../Drivers/STM32L5xx_HAL_Driver/Src/stm32l5xx_hal_gtzc.c ****   * @param  MemAddress MPCBB identifier, and start block to configure
 825:../../Drivers/STM32L5xx_HAL_Driver/Src/stm32l5xx_hal_gtzc.c ****   *         (must be 256 Bytes aligned).
 826:../../Drivers/STM32L5xx_HAL_Driver/Src/stm32l5xx_hal_gtzc.c ****   * @param  NbBlocks Number of blocks to configure.
 827:../../Drivers/STM32L5xx_HAL_Driver/Src/stm32l5xx_hal_gtzc.c ****   * @param  pMemAttributes pointer to an array (containing "NbBlocks" elements),
 828:../../Drivers/STM32L5xx_HAL_Driver/Src/stm32l5xx_hal_gtzc.c ****   *         with each element must be GTZC_MCPBB_BLOCK_NSEC or GTZC_MCPBB_BLOCK_SEC.
 829:../../Drivers/STM32L5xx_HAL_Driver/Src/stm32l5xx_hal_gtzc.c ****   * @retval HAL status.
 830:../../Drivers/STM32L5xx_HAL_Driver/Src/stm32l5xx_hal_gtzc.c ****   */
 831:../../Drivers/STM32L5xx_HAL_Driver/Src/stm32l5xx_hal_gtzc.c **** HAL_StatusTypeDef HAL_GTZC_MPCBB_ConfigMemAttributes(uint32_t MemAddress,
 832:../../Drivers/STM32L5xx_HAL_Driver/Src/stm32l5xx_hal_gtzc.c ****                                                      uint32_t NbBlocks,
 833:../../Drivers/STM32L5xx_HAL_Driver/Src/stm32l5xx_hal_gtzc.c ****                                                      const uint32_t *pMemAttributes)
 834:../../Drivers/STM32L5xx_HAL_Driver/Src/stm32l5xx_hal_gtzc.c **** {
 1330              		.loc 1 834 1 is_stmt 1 view -0
 1331              		.cfi_startproc
 1332              		@ args = 0, pretend = 0, frame = 0
 1333              		@ frame_needed = 0, uses_anonymous_args = 0
 1334              		.loc 1 834 1 is_stmt 0 view .LVU402
 1335 0000 2DE9F041 		push	{r4, r5, r6, r7, r8, lr}
 1336              	.LCFI16:
 1337              		.cfi_def_cfa_offset 24
 1338              		.cfi_offset 4, -24
 1339              		.cfi_offset 5, -20
 1340              		.cfi_offset 6, -16
 1341              		.cfi_offset 7, -12
 1342              		.cfi_offset 8, -8
 1343              		.cfi_offset 14, -4
 835:../../Drivers/STM32L5xx_HAL_Driver/Src/stm32l5xx_hal_gtzc.c ****   GTZC_MPCBB_TypeDef *mpcbb_ptr;
 1344              		.loc 1 835 3 is_stmt 1 view .LVU403
 836:../../Drivers/STM32L5xx_HAL_Driver/Src/stm32l5xx_hal_gtzc.c ****   uint32_t base_address, end_address;
 1345              		.loc 1 836 3 view .LVU404
 837:../../Drivers/STM32L5xx_HAL_Driver/Src/stm32l5xx_hal_gtzc.c ****   uint32_t block_start, offset_reg_start, offset_bit_start;
ARM GAS  C:\Users\carlos\AppData\Local\Temp\ccENU8bg.s 			page 42


 1346              		.loc 1 837 3 view .LVU405
 838:../../Drivers/STM32L5xx_HAL_Driver/Src/stm32l5xx_hal_gtzc.c ****   uint32_t i;
 1347              		.loc 1 838 3 view .LVU406
 839:../../Drivers/STM32L5xx_HAL_Driver/Src/stm32l5xx_hal_gtzc.c **** 
 840:../../Drivers/STM32L5xx_HAL_Driver/Src/stm32l5xx_hal_gtzc.c ****   /* firstly check that MemAddress is well 256 Bytes aligned */
 841:../../Drivers/STM32L5xx_HAL_Driver/Src/stm32l5xx_hal_gtzc.c ****   if ((MemAddress % GTZC_MPCBB_BLOCK_SIZE) != 0U)
 1348              		.loc 1 841 3 view .LVU407
 1349              		.loc 1 841 6 is_stmt 0 view .LVU408
 1350 0004 10F0FF06 		ands	r6, r0, #255
 1351 0008 75D1     		bne	.L140
 842:../../Drivers/STM32L5xx_HAL_Driver/Src/stm32l5xx_hal_gtzc.c ****   {
 843:../../Drivers/STM32L5xx_HAL_Driver/Src/stm32l5xx_hal_gtzc.c ****     return HAL_ERROR;
 844:../../Drivers/STM32L5xx_HAL_Driver/Src/stm32l5xx_hal_gtzc.c ****   }
 845:../../Drivers/STM32L5xx_HAL_Driver/Src/stm32l5xx_hal_gtzc.c **** 
 846:../../Drivers/STM32L5xx_HAL_Driver/Src/stm32l5xx_hal_gtzc.c ****   /* check entry parameters and deduce physical base address */
 847:../../Drivers/STM32L5xx_HAL_Driver/Src/stm32l5xx_hal_gtzc.c ****   end_address = MemAddress + (NbBlocks * GTZC_MPCBB_BLOCK_SIZE) - 1U;
 1352              		.loc 1 847 3 is_stmt 1 view .LVU409
 1353              		.loc 1 847 28 is_stmt 0 view .LVU410
 1354 000a 00EB0123 		add	r3, r0, r1, lsl #8
 1355              	.LVL125:
 848:../../Drivers/STM32L5xx_HAL_Driver/Src/stm32l5xx_hal_gtzc.c ****   if (((IS_ADDRESS_IN_NS(SRAM1, MemAddress))
 1356              		.loc 1 848 3 is_stmt 1 view .LVU411
 1357              		.loc 1 848 9 is_stmt 0 view .LVU412
 1358 000e 00F16044 		add	r4, r0, #-536870912
 849:../../Drivers/STM32L5xx_HAL_Driver/Src/stm32l5xx_hal_gtzc.c ****        && (IS_ADDRESS_IN_NS(SRAM1, end_address))) != 0U)
 1359              		.loc 1 849 8 view .LVU413
 1360 0012 B4F5403F 		cmp	r4, #196608
 1361 0016 05D2     		bcs	.L130
 1362              		.loc 1 849 12 discriminator 1 view .LVU414
 1363 0018 03F16044 		add	r4, r3, #-536870912
 1364 001c 013C     		subs	r4, r4, #1
 1365              		.loc 1 849 8 discriminator 1 view .LVU415
 1366 001e B4F5403F 		cmp	r4, #196608
 1367 0022 25D3     		bcc	.L141
 1368              	.L130:
 850:../../Drivers/STM32L5xx_HAL_Driver/Src/stm32l5xx_hal_gtzc.c ****   {
 851:../../Drivers/STM32L5xx_HAL_Driver/Src/stm32l5xx_hal_gtzc.c ****     mpcbb_ptr = GTZC_MPCBB1_S;
 852:../../Drivers/STM32L5xx_HAL_Driver/Src/stm32l5xx_hal_gtzc.c ****     base_address = SRAM1_BASE_NS;
 853:../../Drivers/STM32L5xx_HAL_Driver/Src/stm32l5xx_hal_gtzc.c ****   }
 854:../../Drivers/STM32L5xx_HAL_Driver/Src/stm32l5xx_hal_gtzc.c ****   else if (((IS_ADDRESS_IN_S(SRAM1, MemAddress))
 1369              		.loc 1 854 8 is_stmt 1 view .LVU416
 1370              		.loc 1 854 14 is_stmt 0 view .LVU417
 1371 0024 00F15044 		add	r4, r0, #-805306368
 855:../../Drivers/STM32L5xx_HAL_Driver/Src/stm32l5xx_hal_gtzc.c ****             && (IS_ADDRESS_IN_S(SRAM1, end_address))) != 0U)
 1372              		.loc 1 855 13 view .LVU418
 1373 0028 B4F5403F 		cmp	r4, #196608
 1374 002c 05D2     		bcs	.L132
 1375              		.loc 1 855 17 discriminator 1 view .LVU419
 1376 002e 03F15044 		add	r4, r3, #-805306368
 1377 0032 013C     		subs	r4, r4, #1
 1378              		.loc 1 855 13 discriminator 1 view .LVU420
 1379 0034 B4F5403F 		cmp	r4, #196608
 1380 0038 23D3     		bcc	.L142
 1381              	.L132:
 856:../../Drivers/STM32L5xx_HAL_Driver/Src/stm32l5xx_hal_gtzc.c ****   {
 857:../../Drivers/STM32L5xx_HAL_Driver/Src/stm32l5xx_hal_gtzc.c ****     mpcbb_ptr = GTZC_MPCBB1_S;
 858:../../Drivers/STM32L5xx_HAL_Driver/Src/stm32l5xx_hal_gtzc.c ****     base_address = SRAM1_BASE_S;
ARM GAS  C:\Users\carlos\AppData\Local\Temp\ccENU8bg.s 			page 43


 859:../../Drivers/STM32L5xx_HAL_Driver/Src/stm32l5xx_hal_gtzc.c ****   }
 860:../../Drivers/STM32L5xx_HAL_Driver/Src/stm32l5xx_hal_gtzc.c ****   else if (((IS_ADDRESS_IN_NS(SRAM2, MemAddress))
 1382              		.loc 1 860 8 is_stmt 1 view .LVU421
 1383              		.loc 1 860 14 is_stmt 0 view .LVU422
 1384 003a 00F15F44 		add	r4, r0, #-553648128
 1385 003e 04F57D04 		add	r4, r4, #16580608
 861:../../Drivers/STM32L5xx_HAL_Driver/Src/stm32l5xx_hal_gtzc.c ****             && (IS_ADDRESS_IN_NS(SRAM2, end_address))) != 0U)
 1386              		.loc 1 861 13 view .LVU423
 1387 0042 B4F5803F 		cmp	r4, #65536
 1388 0046 04D2     		bcs	.L133
 1389              		.loc 1 861 17 discriminator 1 view .LVU424
 1390 0048 2F4C     		ldr	r4, .L150
 1391 004a 1C44     		add	r4, r4, r3
 1392              		.loc 1 861 13 discriminator 1 view .LVU425
 1393 004c B4F5803F 		cmp	r4, #65536
 1394 0050 1BD3     		bcc	.L143
 1395              	.L133:
 862:../../Drivers/STM32L5xx_HAL_Driver/Src/stm32l5xx_hal_gtzc.c ****   {
 863:../../Drivers/STM32L5xx_HAL_Driver/Src/stm32l5xx_hal_gtzc.c ****     mpcbb_ptr = GTZC_MPCBB2_S;
 864:../../Drivers/STM32L5xx_HAL_Driver/Src/stm32l5xx_hal_gtzc.c ****     base_address = SRAM2_BASE_NS;
 865:../../Drivers/STM32L5xx_HAL_Driver/Src/stm32l5xx_hal_gtzc.c ****   }
 866:../../Drivers/STM32L5xx_HAL_Driver/Src/stm32l5xx_hal_gtzc.c ****   else if (((IS_ADDRESS_IN_S(SRAM2, MemAddress))
 1396              		.loc 1 866 8 is_stmt 1 view .LVU426
 1397              		.loc 1 866 14 is_stmt 0 view .LVU427
 1398 0052 00F14F44 		add	r4, r0, #-822083584
 1399 0056 04F57D04 		add	r4, r4, #16580608
 867:../../Drivers/STM32L5xx_HAL_Driver/Src/stm32l5xx_hal_gtzc.c ****             && (IS_ADDRESS_IN_S(SRAM2, end_address))) != 0U)
 1400              		.loc 1 867 13 view .LVU428
 1401 005a B4F5803F 		cmp	r4, #65536
 1402 005e 4DD2     		bcs	.L144
 1403              		.loc 1 867 17 discriminator 1 view .LVU429
 1404 0060 2A4C     		ldr	r4, .L150+4
 1405 0062 1C44     		add	r4, r4, r3
 1406              		.loc 1 867 13 discriminator 1 view .LVU430
 1407 0064 B4F5803F 		cmp	r4, #65536
 1408 0068 4AD2     		bcs	.L145
 868:../../Drivers/STM32L5xx_HAL_Driver/Src/stm32l5xx_hal_gtzc.c ****   {
 869:../../Drivers/STM32L5xx_HAL_Driver/Src/stm32l5xx_hal_gtzc.c ****     mpcbb_ptr = GTZC_MPCBB2_S;
 870:../../Drivers/STM32L5xx_HAL_Driver/Src/stm32l5xx_hal_gtzc.c ****     base_address = SRAM2_BASE_S;
 1409              		.loc 1 870 18 view .LVU431
 1410 006a 294B     		ldr	r3, .L150+8
 1411              	.LVL126:
 869:../../Drivers/STM32L5xx_HAL_Driver/Src/stm32l5xx_hal_gtzc.c ****     base_address = SRAM2_BASE_S;
 1412              		.loc 1 869 15 view .LVU432
 1413 006c 294D     		ldr	r5, .L150+12
 1414 006e 02E0     		b	.L131
 1415              	.LVL127:
 1416              	.L141:
 852:../../Drivers/STM32L5xx_HAL_Driver/Src/stm32l5xx_hal_gtzc.c ****   }
 1417              		.loc 1 852 18 view .LVU433
 1418 0070 4FF00053 		mov	r3, #536870912
 1419              	.LVL128:
 851:../../Drivers/STM32L5xx_HAL_Driver/Src/stm32l5xx_hal_gtzc.c ****     base_address = SRAM1_BASE_NS;
 1420              		.loc 1 851 15 view .LVU434
 1421 0074 284D     		ldr	r5, .L150+16
 1422              	.LVL129:
 1423              	.L131:
ARM GAS  C:\Users\carlos\AppData\Local\Temp\ccENU8bg.s 			page 44


 871:../../Drivers/STM32L5xx_HAL_Driver/Src/stm32l5xx_hal_gtzc.c ****   }
 872:../../Drivers/STM32L5xx_HAL_Driver/Src/stm32l5xx_hal_gtzc.c ****   else
 873:../../Drivers/STM32L5xx_HAL_Driver/Src/stm32l5xx_hal_gtzc.c ****   {
 874:../../Drivers/STM32L5xx_HAL_Driver/Src/stm32l5xx_hal_gtzc.c ****     return HAL_ERROR;
 875:../../Drivers/STM32L5xx_HAL_Driver/Src/stm32l5xx_hal_gtzc.c ****   }
 876:../../Drivers/STM32L5xx_HAL_Driver/Src/stm32l5xx_hal_gtzc.c **** 
 877:../../Drivers/STM32L5xx_HAL_Driver/Src/stm32l5xx_hal_gtzc.c ****   /* get start coordinates of the configuration */
 878:../../Drivers/STM32L5xx_HAL_Driver/Src/stm32l5xx_hal_gtzc.c ****   block_start = (MemAddress - base_address) / GTZC_MPCBB_BLOCK_SIZE;
 1424              		.loc 1 878 3 is_stmt 1 view .LVU435
 1425              		.loc 1 878 29 is_stmt 0 view .LVU436
 1426 0076 C01A     		subs	r0, r0, r3
 1427              	.LVL130:
 879:../../Drivers/STM32L5xx_HAL_Driver/Src/stm32l5xx_hal_gtzc.c ****   offset_reg_start = block_start / 32U;
 1428              		.loc 1 879 3 is_stmt 1 view .LVU437
 1429              		.loc 1 879 20 is_stmt 0 view .LVU438
 1430 0078 470B     		lsrs	r7, r0, #13
 1431              	.LVL131:
 880:../../Drivers/STM32L5xx_HAL_Driver/Src/stm32l5xx_hal_gtzc.c ****   offset_bit_start = block_start % 32U;
 1432              		.loc 1 880 3 is_stmt 1 view .LVU439
 1433              		.loc 1 880 20 is_stmt 0 view .LVU440
 1434 007a C0F30423 		ubfx	r3, r0, #8, #5
 1435              	.LVL132:
 881:../../Drivers/STM32L5xx_HAL_Driver/Src/stm32l5xx_hal_gtzc.c **** 
 882:../../Drivers/STM32L5xx_HAL_Driver/Src/stm32l5xx_hal_gtzc.c ****   for (i = 0U; i < NbBlocks; i++)
 1436              		.loc 1 882 3 is_stmt 1 view .LVU441
 1437              		.loc 1 882 10 is_stmt 0 view .LVU442
 1438 007e 3046     		mov	r0, r6
 1439              	.LVL133:
 1440              		.loc 1 882 3 view .LVU443
 1441 0080 18E0     		b	.L134
 1442              	.LVL134:
 1443              	.L142:
 858:../../Drivers/STM32L5xx_HAL_Driver/Src/stm32l5xx_hal_gtzc.c ****   }
 1444              		.loc 1 858 18 view .LVU444
 1445 0082 4FF04053 		mov	r3, #805306368
 1446              	.LVL135:
 857:../../Drivers/STM32L5xx_HAL_Driver/Src/stm32l5xx_hal_gtzc.c ****     base_address = SRAM1_BASE_S;
 1447              		.loc 1 857 15 view .LVU445
 1448 0086 244D     		ldr	r5, .L150+16
 1449 0088 F5E7     		b	.L131
 1450              	.LVL136:
 1451              	.L143:
 864:../../Drivers/STM32L5xx_HAL_Driver/Src/stm32l5xx_hal_gtzc.c ****   }
 1452              		.loc 1 864 18 view .LVU446
 1453 008a 244B     		ldr	r3, .L150+20
 1454              	.LVL137:
 863:../../Drivers/STM32L5xx_HAL_Driver/Src/stm32l5xx_hal_gtzc.c ****     base_address = SRAM2_BASE_NS;
 1455              		.loc 1 863 15 view .LVU447
 1456 008c 214D     		ldr	r5, .L150+12
 1457 008e F2E7     		b	.L131
 1458              	.LVL138:
 1459              	.L149:
 883:../../Drivers/STM32L5xx_HAL_Driver/Src/stm32l5xx_hal_gtzc.c ****   {
 884:../../Drivers/STM32L5xx_HAL_Driver/Src/stm32l5xx_hal_gtzc.c ****     if (pMemAttributes[i] == GTZC_MCPBB_BLOCK_SEC)
 885:../../Drivers/STM32L5xx_HAL_Driver/Src/stm32l5xx_hal_gtzc.c ****     {
 886:../../Drivers/STM32L5xx_HAL_Driver/Src/stm32l5xx_hal_gtzc.c ****       SET_BIT(mpcbb_ptr->VCTR[offset_reg_start],
 1460              		.loc 1 886 7 is_stmt 1 view .LVU448
ARM GAS  C:\Users\carlos\AppData\Local\Temp\ccENU8bg.s 			page 45


 1461 0090 07F1400E 		add	lr, r7, #64
 1462 0094 55F82E40 		ldr	r4, [r5, lr, lsl #2]
 1463 0098 03F01F08 		and	r8, r3, #31
 1464 009c 4FF0010C 		mov	ip, #1
 1465 00a0 0CFA08FC 		lsl	ip, ip, r8
 1466 00a4 44EA0C04 		orr	r4, r4, ip
 1467 00a8 45F82E40 		str	r4, [r5, lr, lsl #2]
 1468              	.L136:
 887:../../Drivers/STM32L5xx_HAL_Driver/Src/stm32l5xx_hal_gtzc.c ****               1UL << (offset_bit_start % 32U));
 888:../../Drivers/STM32L5xx_HAL_Driver/Src/stm32l5xx_hal_gtzc.c ****     }
 889:../../Drivers/STM32L5xx_HAL_Driver/Src/stm32l5xx_hal_gtzc.c ****     else if (pMemAttributes[i] == GTZC_MCPBB_BLOCK_NSEC)
 890:../../Drivers/STM32L5xx_HAL_Driver/Src/stm32l5xx_hal_gtzc.c ****     {
 891:../../Drivers/STM32L5xx_HAL_Driver/Src/stm32l5xx_hal_gtzc.c ****       CLEAR_BIT(mpcbb_ptr->VCTR[offset_reg_start],
 892:../../Drivers/STM32L5xx_HAL_Driver/Src/stm32l5xx_hal_gtzc.c ****                 1UL << (offset_bit_start % 32U));
 893:../../Drivers/STM32L5xx_HAL_Driver/Src/stm32l5xx_hal_gtzc.c ****     }
 894:../../Drivers/STM32L5xx_HAL_Driver/Src/stm32l5xx_hal_gtzc.c ****     else
 895:../../Drivers/STM32L5xx_HAL_Driver/Src/stm32l5xx_hal_gtzc.c ****     {
 896:../../Drivers/STM32L5xx_HAL_Driver/Src/stm32l5xx_hal_gtzc.c ****       break;
 897:../../Drivers/STM32L5xx_HAL_Driver/Src/stm32l5xx_hal_gtzc.c ****     }
 898:../../Drivers/STM32L5xx_HAL_Driver/Src/stm32l5xx_hal_gtzc.c **** 
 899:../../Drivers/STM32L5xx_HAL_Driver/Src/stm32l5xx_hal_gtzc.c ****     offset_bit_start++;
 1469              		.loc 1 899 5 view .LVU449
 1470              		.loc 1 899 21 is_stmt 0 view .LVU450
 1471 00ac 0133     		adds	r3, r3, #1
 1472              	.LVL139:
 900:../../Drivers/STM32L5xx_HAL_Driver/Src/stm32l5xx_hal_gtzc.c ****     if (offset_bit_start == 32U)
 1473              		.loc 1 900 5 is_stmt 1 view .LVU451
 1474              		.loc 1 900 8 is_stmt 0 view .LVU452
 1475 00ae 202B     		cmp	r3, #32
 1476 00b0 1AD0     		beq	.L148
 1477              	.LVL140:
 1478              	.L138:
 882:../../Drivers/STM32L5xx_HAL_Driver/Src/stm32l5xx_hal_gtzc.c ****   {
 1479              		.loc 1 882 30 is_stmt 1 discriminator 2 view .LVU453
 882:../../Drivers/STM32L5xx_HAL_Driver/Src/stm32l5xx_hal_gtzc.c ****   {
 1480              		.loc 1 882 31 is_stmt 0 discriminator 2 view .LVU454
 1481 00b2 0130     		adds	r0, r0, #1
 1482              	.LVL141:
 1483              	.L134:
 882:../../Drivers/STM32L5xx_HAL_Driver/Src/stm32l5xx_hal_gtzc.c ****   {
 1484              		.loc 1 882 16 is_stmt 1 discriminator 1 view .LVU455
 882:../../Drivers/STM32L5xx_HAL_Driver/Src/stm32l5xx_hal_gtzc.c ****   {
 1485              		.loc 1 882 3 is_stmt 0 discriminator 1 view .LVU456
 1486 00b4 8842     		cmp	r0, r1
 1487 00b6 1AD2     		bcs	.L137
 884:../../Drivers/STM32L5xx_HAL_Driver/Src/stm32l5xx_hal_gtzc.c ****     {
 1488              		.loc 1 884 5 is_stmt 1 view .LVU457
 884:../../Drivers/STM32L5xx_HAL_Driver/Src/stm32l5xx_hal_gtzc.c ****     {
 1489              		.loc 1 884 23 is_stmt 0 view .LVU458
 1490 00b8 52F82040 		ldr	r4, [r2, r0, lsl #2]
 884:../../Drivers/STM32L5xx_HAL_Driver/Src/stm32l5xx_hal_gtzc.c ****     {
 1491              		.loc 1 884 8 view .LVU459
 1492 00bc 40F2011C 		movw	ip, #257
 1493 00c0 6445     		cmp	r4, ip
 1494 00c2 E5D0     		beq	.L149
 889:../../Drivers/STM32L5xx_HAL_Driver/Src/stm32l5xx_hal_gtzc.c ****     {
 1495              		.loc 1 889 10 is_stmt 1 view .LVU460
ARM GAS  C:\Users\carlos\AppData\Local\Temp\ccENU8bg.s 			page 46


 889:../../Drivers/STM32L5xx_HAL_Driver/Src/stm32l5xx_hal_gtzc.c ****     {
 1496              		.loc 1 889 13 is_stmt 0 view .LVU461
 1497 00c4 B4F5807F 		cmp	r4, #256
 1498 00c8 11D1     		bne	.L137
 891:../../Drivers/STM32L5xx_HAL_Driver/Src/stm32l5xx_hal_gtzc.c ****                 1UL << (offset_bit_start % 32U));
 1499              		.loc 1 891 7 is_stmt 1 view .LVU462
 1500 00ca 07F1400E 		add	lr, r7, #64
 1501 00ce 55F82E40 		ldr	r4, [r5, lr, lsl #2]
 1502 00d2 03F01F08 		and	r8, r3, #31
 1503 00d6 4FF0010C 		mov	ip, #1
 1504 00da 0CFA08FC 		lsl	ip, ip, r8
 1505 00de 24EA0C04 		bic	r4, r4, ip
 1506 00e2 45F82E40 		str	r4, [r5, lr, lsl #2]
 1507 00e6 E1E7     		b	.L136
 1508              	.L148:
 901:../../Drivers/STM32L5xx_HAL_Driver/Src/stm32l5xx_hal_gtzc.c ****     {
 902:../../Drivers/STM32L5xx_HAL_Driver/Src/stm32l5xx_hal_gtzc.c ****       offset_bit_start = 0U;
 1509              		.loc 1 902 7 view .LVU463
 1510              	.LVL142:
 903:../../Drivers/STM32L5xx_HAL_Driver/Src/stm32l5xx_hal_gtzc.c ****       offset_reg_start++;
 1511              		.loc 1 903 7 view .LVU464
 1512              		.loc 1 903 23 is_stmt 0 view .LVU465
 1513 00e8 0137     		adds	r7, r7, #1
 1514              	.LVL143:
 902:../../Drivers/STM32L5xx_HAL_Driver/Src/stm32l5xx_hal_gtzc.c ****       offset_reg_start++;
 1515              		.loc 1 902 24 view .LVU466
 1516 00ea 3346     		mov	r3, r6
 1517 00ec E1E7     		b	.L138
 1518              	.LVL144:
 1519              	.L137:
 904:../../Drivers/STM32L5xx_HAL_Driver/Src/stm32l5xx_hal_gtzc.c ****     }
 905:../../Drivers/STM32L5xx_HAL_Driver/Src/stm32l5xx_hal_gtzc.c ****   }
 906:../../Drivers/STM32L5xx_HAL_Driver/Src/stm32l5xx_hal_gtzc.c **** 
 907:../../Drivers/STM32L5xx_HAL_Driver/Src/stm32l5xx_hal_gtzc.c ****   /* an unexpected value in pMemAttributes array leads to error status */
 908:../../Drivers/STM32L5xx_HAL_Driver/Src/stm32l5xx_hal_gtzc.c ****   if (i != NbBlocks)
 1520              		.loc 1 908 3 is_stmt 1 view .LVU467
 1521              		.loc 1 908 6 is_stmt 0 view .LVU468
 1522 00ee 8842     		cmp	r0, r1
 1523 00f0 08D1     		bne	.L146
 909:../../Drivers/STM32L5xx_HAL_Driver/Src/stm32l5xx_hal_gtzc.c ****   {
 910:../../Drivers/STM32L5xx_HAL_Driver/Src/stm32l5xx_hal_gtzc.c ****     return HAL_ERROR;
 911:../../Drivers/STM32L5xx_HAL_Driver/Src/stm32l5xx_hal_gtzc.c ****   }
 912:../../Drivers/STM32L5xx_HAL_Driver/Src/stm32l5xx_hal_gtzc.c **** 
 913:../../Drivers/STM32L5xx_HAL_Driver/Src/stm32l5xx_hal_gtzc.c ****   return HAL_OK;
 1524              		.loc 1 913 10 view .LVU469
 1525 00f2 0020     		movs	r0, #0
 1526              	.LVL145:
 1527              		.loc 1 913 10 view .LVU470
 1528 00f4 00E0     		b	.L129
 1529              	.LVL146:
 1530              	.L140:
 843:../../Drivers/STM32L5xx_HAL_Driver/Src/stm32l5xx_hal_gtzc.c ****   }
 1531              		.loc 1 843 12 view .LVU471
 1532 00f6 0120     		movs	r0, #1
 1533              	.LVL147:
 1534              	.L129:
 914:../../Drivers/STM32L5xx_HAL_Driver/Src/stm32l5xx_hal_gtzc.c **** }
ARM GAS  C:\Users\carlos\AppData\Local\Temp\ccENU8bg.s 			page 47


 1535              		.loc 1 914 1 view .LVU472
 1536 00f8 BDE8F081 		pop	{r4, r5, r6, r7, r8, pc}
 1537              	.LVL148:
 1538              	.L144:
 874:../../Drivers/STM32L5xx_HAL_Driver/Src/stm32l5xx_hal_gtzc.c ****   }
 1539              		.loc 1 874 12 view .LVU473
 1540 00fc 0120     		movs	r0, #1
 1541              	.LVL149:
 874:../../Drivers/STM32L5xx_HAL_Driver/Src/stm32l5xx_hal_gtzc.c ****   }
 1542              		.loc 1 874 12 view .LVU474
 1543 00fe FBE7     		b	.L129
 1544              	.LVL150:
 1545              	.L145:
 874:../../Drivers/STM32L5xx_HAL_Driver/Src/stm32l5xx_hal_gtzc.c ****   }
 1546              		.loc 1 874 12 view .LVU475
 1547 0100 0120     		movs	r0, #1
 1548              	.LVL151:
 874:../../Drivers/STM32L5xx_HAL_Driver/Src/stm32l5xx_hal_gtzc.c ****   }
 1549              		.loc 1 874 12 view .LVU476
 1550 0102 F9E7     		b	.L129
 1551              	.LVL152:
 1552              	.L146:
 910:../../Drivers/STM32L5xx_HAL_Driver/Src/stm32l5xx_hal_gtzc.c ****   }
 1553              		.loc 1 910 12 view .LVU477
 1554 0104 0120     		movs	r0, #1
 1555              	.LVL153:
 910:../../Drivers/STM32L5xx_HAL_Driver/Src/stm32l5xx_hal_gtzc.c ****   }
 1556              		.loc 1 910 12 view .LVU478
 1557 0106 F7E7     		b	.L129
 1558              	.L151:
 1559              		.align	2
 1560              	.L150:
 1561 0108 FFFFFCDF 		.word	-537067521
 1562 010c FFFFFCCF 		.word	-805502977
 1563 0110 00000330 		.word	805502976
 1564 0114 00300350 		.word	1342386176
 1565 0118 002C0350 		.word	1342385152
 1566 011c 00000320 		.word	537067520
 1567              		.cfi_endproc
 1568              	.LFE210:
 1570              		.section	.text.HAL_GTZC_MPCBB_GetConfigMemAttributes,"ax",%progbits
 1571              		.align	1
 1572              		.global	HAL_GTZC_MPCBB_GetConfigMemAttributes
 1573              		.syntax unified
 1574              		.thumb
 1575              		.thumb_func
 1576              		.fpu fpv4-sp-d16
 1578              	HAL_GTZC_MPCBB_GetConfigMemAttributes:
 1579              	.LVL154:
 1580              	.LFB211:
 915:../../Drivers/STM32L5xx_HAL_Driver/Src/stm32l5xx_hal_gtzc.c **** 
 916:../../Drivers/STM32L5xx_HAL_Driver/Src/stm32l5xx_hal_gtzc.c **** /**
 917:../../Drivers/STM32L5xx_HAL_Driver/Src/stm32l5xx_hal_gtzc.c ****   * @brief  Get a MPCBB attribute configuration on the SRAM passed as parameter
 918:../../Drivers/STM32L5xx_HAL_Driver/Src/stm32l5xx_hal_gtzc.c ****   *         for a number of blocks.
 919:../../Drivers/STM32L5xx_HAL_Driver/Src/stm32l5xx_hal_gtzc.c ****   * @param  MemAddress MPCBB identifier, and start block to get configuration
 920:../../Drivers/STM32L5xx_HAL_Driver/Src/stm32l5xx_hal_gtzc.c ****   *         (must be 256 Bytes aligned).
 921:../../Drivers/STM32L5xx_HAL_Driver/Src/stm32l5xx_hal_gtzc.c ****   * @param  NbBlocks Number of blocks to get configuration.
ARM GAS  C:\Users\carlos\AppData\Local\Temp\ccENU8bg.s 			page 48


 922:../../Drivers/STM32L5xx_HAL_Driver/Src/stm32l5xx_hal_gtzc.c ****   * @param  pMemAttributes pointer to an array (containing "NbBlocks" elements),
 923:../../Drivers/STM32L5xx_HAL_Driver/Src/stm32l5xx_hal_gtzc.c ****   *         with each element will be GTZC_MCPBB_BLOCK_NSEC or GTZC_MCPBB_BLOCK_SEC.
 924:../../Drivers/STM32L5xx_HAL_Driver/Src/stm32l5xx_hal_gtzc.c ****   * @retval HAL status.
 925:../../Drivers/STM32L5xx_HAL_Driver/Src/stm32l5xx_hal_gtzc.c ****   */
 926:../../Drivers/STM32L5xx_HAL_Driver/Src/stm32l5xx_hal_gtzc.c **** HAL_StatusTypeDef HAL_GTZC_MPCBB_GetConfigMemAttributes(uint32_t MemAddress,
 927:../../Drivers/STM32L5xx_HAL_Driver/Src/stm32l5xx_hal_gtzc.c ****                                                         uint32_t NbBlocks,
 928:../../Drivers/STM32L5xx_HAL_Driver/Src/stm32l5xx_hal_gtzc.c ****                                                         uint32_t *pMemAttributes)
 929:../../Drivers/STM32L5xx_HAL_Driver/Src/stm32l5xx_hal_gtzc.c **** {
 1581              		.loc 1 929 1 is_stmt 1 view -0
 1582              		.cfi_startproc
 1583              		@ args = 0, pretend = 0, frame = 0
 1584              		@ frame_needed = 0, uses_anonymous_args = 0
 1585              		.loc 1 929 1 is_stmt 0 view .LVU480
 1586 0000 F0B5     		push	{r4, r5, r6, r7, lr}
 1587              	.LCFI17:
 1588              		.cfi_def_cfa_offset 20
 1589              		.cfi_offset 4, -20
 1590              		.cfi_offset 5, -16
 1591              		.cfi_offset 6, -12
 1592              		.cfi_offset 7, -8
 1593              		.cfi_offset 14, -4
 930:../../Drivers/STM32L5xx_HAL_Driver/Src/stm32l5xx_hal_gtzc.c ****   GTZC_MPCBB_TypeDef *mpcbb_ptr;
 1594              		.loc 1 930 3 is_stmt 1 view .LVU481
 931:../../Drivers/STM32L5xx_HAL_Driver/Src/stm32l5xx_hal_gtzc.c ****   uint32_t base_address, end_address;
 1595              		.loc 1 931 3 view .LVU482
 932:../../Drivers/STM32L5xx_HAL_Driver/Src/stm32l5xx_hal_gtzc.c ****   uint32_t block_start, offset_reg_start, offset_bit_start;
 1596              		.loc 1 932 3 view .LVU483
 933:../../Drivers/STM32L5xx_HAL_Driver/Src/stm32l5xx_hal_gtzc.c ****   uint32_t i;
 1597              		.loc 1 933 3 view .LVU484
 934:../../Drivers/STM32L5xx_HAL_Driver/Src/stm32l5xx_hal_gtzc.c **** 
 935:../../Drivers/STM32L5xx_HAL_Driver/Src/stm32l5xx_hal_gtzc.c ****   /* firstly check that MemAddress is well 256 Bytes aligned */
 936:../../Drivers/STM32L5xx_HAL_Driver/Src/stm32l5xx_hal_gtzc.c ****   if ((MemAddress % GTZC_MPCBB_BLOCK_SIZE) != 0U)
 1598              		.loc 1 936 3 view .LVU485
 1599              		.loc 1 936 6 is_stmt 0 view .LVU486
 1600 0002 10F0FF06 		ands	r6, r0, #255
 1601 0006 5DD1     		bne	.L161
 937:../../Drivers/STM32L5xx_HAL_Driver/Src/stm32l5xx_hal_gtzc.c ****   {
 938:../../Drivers/STM32L5xx_HAL_Driver/Src/stm32l5xx_hal_gtzc.c ****     return HAL_ERROR;
 939:../../Drivers/STM32L5xx_HAL_Driver/Src/stm32l5xx_hal_gtzc.c ****   }
 940:../../Drivers/STM32L5xx_HAL_Driver/Src/stm32l5xx_hal_gtzc.c **** 
 941:../../Drivers/STM32L5xx_HAL_Driver/Src/stm32l5xx_hal_gtzc.c ****   /* check entry parameters and deduce physical base address */
 942:../../Drivers/STM32L5xx_HAL_Driver/Src/stm32l5xx_hal_gtzc.c ****   end_address = MemAddress + (NbBlocks * GTZC_MPCBB_BLOCK_SIZE) - 1U;
 1602              		.loc 1 942 3 is_stmt 1 view .LVU487
 1603              		.loc 1 942 28 is_stmt 0 view .LVU488
 1604 0008 00EB0123 		add	r3, r0, r1, lsl #8
 1605              	.LVL155:
 943:../../Drivers/STM32L5xx_HAL_Driver/Src/stm32l5xx_hal_gtzc.c ****   if ((IS_ADDRESS_IN_NS(SRAM1, MemAddress))
 1606              		.loc 1 943 3 is_stmt 1 view .LVU489
 1607              		.loc 1 943 8 is_stmt 0 view .LVU490
 1608 000c 00F16044 		add	r4, r0, #-536870912
 1609              		.loc 1 943 6 view .LVU491
 1610 0010 B4F5403F 		cmp	r4, #196608
 1611 0014 05D2     		bcs	.L154
 944:../../Drivers/STM32L5xx_HAL_Driver/Src/stm32l5xx_hal_gtzc.c ****       && (IS_ADDRESS_IN_NS(SRAM1, end_address)))
 1612              		.loc 1 944 11 view .LVU492
 1613 0016 03F16044 		add	r4, r3, #-536870912
 1614 001a 013C     		subs	r4, r4, #1
ARM GAS  C:\Users\carlos\AppData\Local\Temp\ccENU8bg.s 			page 49


 1615              		.loc 1 944 7 view .LVU493
 1616 001c B4F5403F 		cmp	r4, #196608
 1617 0020 25D3     		bcc	.L162
 1618              	.L154:
 945:../../Drivers/STM32L5xx_HAL_Driver/Src/stm32l5xx_hal_gtzc.c ****   {
 946:../../Drivers/STM32L5xx_HAL_Driver/Src/stm32l5xx_hal_gtzc.c ****     mpcbb_ptr = GTZC_MPCBB1_S;
 947:../../Drivers/STM32L5xx_HAL_Driver/Src/stm32l5xx_hal_gtzc.c ****     base_address = SRAM1_BASE_NS;
 948:../../Drivers/STM32L5xx_HAL_Driver/Src/stm32l5xx_hal_gtzc.c ****   }
 949:../../Drivers/STM32L5xx_HAL_Driver/Src/stm32l5xx_hal_gtzc.c ****   else if ((IS_ADDRESS_IN_S(SRAM1, MemAddress))
 1619              		.loc 1 949 8 is_stmt 1 view .LVU494
 1620              		.loc 1 949 13 is_stmt 0 view .LVU495
 1621 0022 00F15044 		add	r4, r0, #-805306368
 1622              		.loc 1 949 11 view .LVU496
 1623 0026 B4F5403F 		cmp	r4, #196608
 1624 002a 05D2     		bcs	.L156
 950:../../Drivers/STM32L5xx_HAL_Driver/Src/stm32l5xx_hal_gtzc.c ****            && (IS_ADDRESS_IN_S(SRAM1, end_address)))
 1625              		.loc 1 950 16 view .LVU497
 1626 002c 03F15044 		add	r4, r3, #-805306368
 1627 0030 013C     		subs	r4, r4, #1
 1628              		.loc 1 950 12 view .LVU498
 1629 0032 B4F5403F 		cmp	r4, #196608
 1630 0036 23D3     		bcc	.L163
 1631              	.L156:
 951:../../Drivers/STM32L5xx_HAL_Driver/Src/stm32l5xx_hal_gtzc.c ****   {
 952:../../Drivers/STM32L5xx_HAL_Driver/Src/stm32l5xx_hal_gtzc.c ****     mpcbb_ptr = GTZC_MPCBB1_S;
 953:../../Drivers/STM32L5xx_HAL_Driver/Src/stm32l5xx_hal_gtzc.c ****     base_address = SRAM1_BASE_S;
 954:../../Drivers/STM32L5xx_HAL_Driver/Src/stm32l5xx_hal_gtzc.c ****   }
 955:../../Drivers/STM32L5xx_HAL_Driver/Src/stm32l5xx_hal_gtzc.c ****   else if ((IS_ADDRESS_IN_NS(SRAM2, MemAddress))
 1632              		.loc 1 955 8 is_stmt 1 view .LVU499
 1633              		.loc 1 955 13 is_stmt 0 view .LVU500
 1634 0038 00F15F44 		add	r4, r0, #-553648128
 1635 003c 04F57D04 		add	r4, r4, #16580608
 1636              		.loc 1 955 11 view .LVU501
 1637 0040 B4F5803F 		cmp	r4, #65536
 1638 0044 04D2     		bcs	.L157
 956:../../Drivers/STM32L5xx_HAL_Driver/Src/stm32l5xx_hal_gtzc.c ****            && (IS_ADDRESS_IN_NS(SRAM2, end_address)))
 1639              		.loc 1 956 16 view .LVU502
 1640 0046 224C     		ldr	r4, .L169
 1641 0048 1C44     		add	r4, r4, r3
 1642              		.loc 1 956 12 view .LVU503
 1643 004a B4F5803F 		cmp	r4, #65536
 1644 004e 1BD3     		bcc	.L164
 1645              	.L157:
 957:../../Drivers/STM32L5xx_HAL_Driver/Src/stm32l5xx_hal_gtzc.c ****   {
 958:../../Drivers/STM32L5xx_HAL_Driver/Src/stm32l5xx_hal_gtzc.c ****     mpcbb_ptr = GTZC_MPCBB2_S;
 959:../../Drivers/STM32L5xx_HAL_Driver/Src/stm32l5xx_hal_gtzc.c ****     base_address = SRAM2_BASE_NS;
 960:../../Drivers/STM32L5xx_HAL_Driver/Src/stm32l5xx_hal_gtzc.c ****   }
 961:../../Drivers/STM32L5xx_HAL_Driver/Src/stm32l5xx_hal_gtzc.c ****   else if ((IS_ADDRESS_IN_S(SRAM2, MemAddress))
 1646              		.loc 1 961 8 is_stmt 1 view .LVU504
 1647              		.loc 1 961 13 is_stmt 0 view .LVU505
 1648 0050 00F14F44 		add	r4, r0, #-822083584
 1649 0054 04F57D04 		add	r4, r4, #16580608
 1650              		.loc 1 961 11 view .LVU506
 1651 0058 B4F5803F 		cmp	r4, #65536
 1652 005c 34D2     		bcs	.L165
 962:../../Drivers/STM32L5xx_HAL_Driver/Src/stm32l5xx_hal_gtzc.c ****            && (IS_ADDRESS_IN_S(SRAM2, end_address)))
 1653              		.loc 1 962 16 view .LVU507
ARM GAS  C:\Users\carlos\AppData\Local\Temp\ccENU8bg.s 			page 50


 1654 005e 1D4C     		ldr	r4, .L169+4
 1655 0060 1C44     		add	r4, r4, r3
 1656              		.loc 1 962 12 view .LVU508
 1657 0062 B4F5803F 		cmp	r4, #65536
 1658 0066 31D2     		bcs	.L166
 963:../../Drivers/STM32L5xx_HAL_Driver/Src/stm32l5xx_hal_gtzc.c ****   {
 964:../../Drivers/STM32L5xx_HAL_Driver/Src/stm32l5xx_hal_gtzc.c ****     mpcbb_ptr = GTZC_MPCBB2_S;
 965:../../Drivers/STM32L5xx_HAL_Driver/Src/stm32l5xx_hal_gtzc.c ****     base_address = SRAM2_BASE_S;
 1659              		.loc 1 965 18 view .LVU509
 1660 0068 1B4B     		ldr	r3, .L169+8
 1661              	.LVL156:
 964:../../Drivers/STM32L5xx_HAL_Driver/Src/stm32l5xx_hal_gtzc.c ****     base_address = SRAM2_BASE_S;
 1662              		.loc 1 964 15 view .LVU510
 1663 006a 1C4D     		ldr	r5, .L169+12
 1664 006c 02E0     		b	.L155
 1665              	.LVL157:
 1666              	.L162:
 947:../../Drivers/STM32L5xx_HAL_Driver/Src/stm32l5xx_hal_gtzc.c ****   }
 1667              		.loc 1 947 18 view .LVU511
 1668 006e 4FF00053 		mov	r3, #536870912
 1669              	.LVL158:
 946:../../Drivers/STM32L5xx_HAL_Driver/Src/stm32l5xx_hal_gtzc.c ****     base_address = SRAM1_BASE_NS;
 1670              		.loc 1 946 15 view .LVU512
 1671 0072 1B4D     		ldr	r5, .L169+16
 1672              	.LVL159:
 1673              	.L155:
 966:../../Drivers/STM32L5xx_HAL_Driver/Src/stm32l5xx_hal_gtzc.c ****   }
 967:../../Drivers/STM32L5xx_HAL_Driver/Src/stm32l5xx_hal_gtzc.c ****   else
 968:../../Drivers/STM32L5xx_HAL_Driver/Src/stm32l5xx_hal_gtzc.c ****   {
 969:../../Drivers/STM32L5xx_HAL_Driver/Src/stm32l5xx_hal_gtzc.c ****     return HAL_ERROR;
 970:../../Drivers/STM32L5xx_HAL_Driver/Src/stm32l5xx_hal_gtzc.c ****   }
 971:../../Drivers/STM32L5xx_HAL_Driver/Src/stm32l5xx_hal_gtzc.c **** 
 972:../../Drivers/STM32L5xx_HAL_Driver/Src/stm32l5xx_hal_gtzc.c ****   /* get start coordinates of the configuration */
 973:../../Drivers/STM32L5xx_HAL_Driver/Src/stm32l5xx_hal_gtzc.c ****   block_start = (MemAddress - base_address) / GTZC_MPCBB_BLOCK_SIZE;
 1674              		.loc 1 973 3 is_stmt 1 view .LVU513
 1675              		.loc 1 973 29 is_stmt 0 view .LVU514
 1676 0074 C01A     		subs	r0, r0, r3
 1677              	.LVL160:
 974:../../Drivers/STM32L5xx_HAL_Driver/Src/stm32l5xx_hal_gtzc.c ****   offset_reg_start = block_start / 32U;
 1678              		.loc 1 974 3 is_stmt 1 view .LVU515
 1679              		.loc 1 974 20 is_stmt 0 view .LVU516
 1680 0076 470B     		lsrs	r7, r0, #13
 1681              	.LVL161:
 975:../../Drivers/STM32L5xx_HAL_Driver/Src/stm32l5xx_hal_gtzc.c ****   offset_bit_start = block_start % 32U;
 1682              		.loc 1 975 3 is_stmt 1 view .LVU517
 1683              		.loc 1 975 20 is_stmt 0 view .LVU518
 1684 0078 C0F30423 		ubfx	r3, r0, #8, #5
 1685              	.LVL162:
 976:../../Drivers/STM32L5xx_HAL_Driver/Src/stm32l5xx_hal_gtzc.c **** 
 977:../../Drivers/STM32L5xx_HAL_Driver/Src/stm32l5xx_hal_gtzc.c ****   for (i = 0U; i < NbBlocks; i++)
 1686              		.loc 1 977 3 is_stmt 1 view .LVU519
 1687              		.loc 1 977 10 is_stmt 0 view .LVU520
 1688 007c B446     		mov	ip, r6
 1689              		.loc 1 977 3 view .LVU521
 1690 007e 08E0     		b	.L158
 1691              	.LVL163:
 1692              	.L163:
ARM GAS  C:\Users\carlos\AppData\Local\Temp\ccENU8bg.s 			page 51


 953:../../Drivers/STM32L5xx_HAL_Driver/Src/stm32l5xx_hal_gtzc.c ****   }
 1693              		.loc 1 953 18 view .LVU522
 1694 0080 4FF04053 		mov	r3, #805306368
 1695              	.LVL164:
 952:../../Drivers/STM32L5xx_HAL_Driver/Src/stm32l5xx_hal_gtzc.c ****     base_address = SRAM1_BASE_S;
 1696              		.loc 1 952 15 view .LVU523
 1697 0084 164D     		ldr	r5, .L169+16
 1698 0086 F5E7     		b	.L155
 1699              	.LVL165:
 1700              	.L164:
 959:../../Drivers/STM32L5xx_HAL_Driver/Src/stm32l5xx_hal_gtzc.c ****   }
 1701              		.loc 1 959 18 view .LVU524
 1702 0088 164B     		ldr	r3, .L169+20
 1703              	.LVL166:
 958:../../Drivers/STM32L5xx_HAL_Driver/Src/stm32l5xx_hal_gtzc.c ****     base_address = SRAM2_BASE_NS;
 1704              		.loc 1 958 15 view .LVU525
 1705 008a 144D     		ldr	r5, .L169+12
 1706 008c F2E7     		b	.L155
 1707              	.LVL167:
 1708              	.L159:
 1709              		.loc 1 977 30 is_stmt 1 discriminator 2 view .LVU526
 1710              		.loc 1 977 31 is_stmt 0 discriminator 2 view .LVU527
 1711 008e 0CF1010C 		add	ip, ip, #1
 1712              	.LVL168:
 1713              	.L158:
 1714              		.loc 1 977 16 is_stmt 1 discriminator 1 view .LVU528
 1715              		.loc 1 977 3 is_stmt 0 discriminator 1 view .LVU529
 1716 0092 8C45     		cmp	ip, r1
 1717 0094 14D2     		bcs	.L168
 978:../../Drivers/STM32L5xx_HAL_Driver/Src/stm32l5xx_hal_gtzc.c ****   {
 979:../../Drivers/STM32L5xx_HAL_Driver/Src/stm32l5xx_hal_gtzc.c ****     pMemAttributes[i] = READ_BIT(mpcbb_ptr->VCTR[offset_reg_start],
 1718              		.loc 1 979 5 is_stmt 1 view .LVU530
 1719              		.loc 1 979 25 is_stmt 0 view .LVU531
 1720 0096 07F14000 		add	r0, r7, #64
 1721 009a 55F82000 		ldr	r0, [r5, r0, lsl #2]
 1722 009e 03F01F04 		and	r4, r3, #31
 1723 00a2 4FF0010E 		mov	lr, #1
 1724 00a6 0EFA04FE 		lsl	lr, lr, r4
 1725 00aa 00EA0E00 		and	r0, r0, lr
 980:../../Drivers/STM32L5xx_HAL_Driver/Src/stm32l5xx_hal_gtzc.c ****                                  1UL << (offset_bit_start % 32U))
 981:../../Drivers/STM32L5xx_HAL_Driver/Src/stm32l5xx_hal_gtzc.c ****                         >> (offset_bit_start % 32U);
 1726              		.loc 1 981 25 view .LVU532
 1727 00ae E040     		lsrs	r0, r0, r4
 979:../../Drivers/STM32L5xx_HAL_Driver/Src/stm32l5xx_hal_gtzc.c ****                                  1UL << (offset_bit_start % 32U))
 1728              		.loc 1 979 23 view .LVU533
 1729 00b0 42F82C00 		str	r0, [r2, ip, lsl #2]
 982:../../Drivers/STM32L5xx_HAL_Driver/Src/stm32l5xx_hal_gtzc.c **** 
 983:../../Drivers/STM32L5xx_HAL_Driver/Src/stm32l5xx_hal_gtzc.c ****     offset_bit_start++;
 1730              		.loc 1 983 5 is_stmt 1 view .LVU534
 1731              		.loc 1 983 21 is_stmt 0 view .LVU535
 1732 00b4 0133     		adds	r3, r3, #1
 1733              	.LVL169:
 984:../../Drivers/STM32L5xx_HAL_Driver/Src/stm32l5xx_hal_gtzc.c ****     if (offset_bit_start == 32U)
 1734              		.loc 1 984 5 is_stmt 1 view .LVU536
 1735              		.loc 1 984 8 is_stmt 0 view .LVU537
 1736 00b6 202B     		cmp	r3, #32
 1737 00b8 E9D1     		bne	.L159
ARM GAS  C:\Users\carlos\AppData\Local\Temp\ccENU8bg.s 			page 52


 985:../../Drivers/STM32L5xx_HAL_Driver/Src/stm32l5xx_hal_gtzc.c ****     {
 986:../../Drivers/STM32L5xx_HAL_Driver/Src/stm32l5xx_hal_gtzc.c ****       offset_bit_start = 0U;
 1738              		.loc 1 986 7 is_stmt 1 view .LVU538
 1739              	.LVL170:
 987:../../Drivers/STM32L5xx_HAL_Driver/Src/stm32l5xx_hal_gtzc.c ****       offset_reg_start++;
 1740              		.loc 1 987 7 view .LVU539
 1741              		.loc 1 987 23 is_stmt 0 view .LVU540
 1742 00ba 0137     		adds	r7, r7, #1
 1743              	.LVL171:
 986:../../Drivers/STM32L5xx_HAL_Driver/Src/stm32l5xx_hal_gtzc.c ****       offset_reg_start++;
 1744              		.loc 1 986 24 view .LVU541
 1745 00bc 3346     		mov	r3, r6
 1746 00be E6E7     		b	.L159
 1747              	.LVL172:
 1748              	.L168:
 988:../../Drivers/STM32L5xx_HAL_Driver/Src/stm32l5xx_hal_gtzc.c ****     }
 989:../../Drivers/STM32L5xx_HAL_Driver/Src/stm32l5xx_hal_gtzc.c ****   }
 990:../../Drivers/STM32L5xx_HAL_Driver/Src/stm32l5xx_hal_gtzc.c **** 
 991:../../Drivers/STM32L5xx_HAL_Driver/Src/stm32l5xx_hal_gtzc.c ****   return HAL_OK;
 1749              		.loc 1 991 10 view .LVU542
 1750 00c0 0020     		movs	r0, #0
 1751              	.LVL173:
 1752              	.L153:
 992:../../Drivers/STM32L5xx_HAL_Driver/Src/stm32l5xx_hal_gtzc.c **** }
 1753              		.loc 1 992 1 view .LVU543
 1754 00c2 F0BD     		pop	{r4, r5, r6, r7, pc}
 1755              	.LVL174:
 1756              	.L161:
 938:../../Drivers/STM32L5xx_HAL_Driver/Src/stm32l5xx_hal_gtzc.c ****   }
 1757              		.loc 1 938 12 view .LVU544
 1758 00c4 0120     		movs	r0, #1
 1759              	.LVL175:
 938:../../Drivers/STM32L5xx_HAL_Driver/Src/stm32l5xx_hal_gtzc.c ****   }
 1760              		.loc 1 938 12 view .LVU545
 1761 00c6 FCE7     		b	.L153
 1762              	.LVL176:
 1763              	.L165:
 969:../../Drivers/STM32L5xx_HAL_Driver/Src/stm32l5xx_hal_gtzc.c ****   }
 1764              		.loc 1 969 12 view .LVU546
 1765 00c8 0120     		movs	r0, #1
 1766              	.LVL177:
 969:../../Drivers/STM32L5xx_HAL_Driver/Src/stm32l5xx_hal_gtzc.c ****   }
 1767              		.loc 1 969 12 view .LVU547
 1768 00ca FAE7     		b	.L153
 1769              	.LVL178:
 1770              	.L166:
 969:../../Drivers/STM32L5xx_HAL_Driver/Src/stm32l5xx_hal_gtzc.c ****   }
 1771              		.loc 1 969 12 view .LVU548
 1772 00cc 0120     		movs	r0, #1
 1773              	.LVL179:
 969:../../Drivers/STM32L5xx_HAL_Driver/Src/stm32l5xx_hal_gtzc.c ****   }
 1774              		.loc 1 969 12 view .LVU549
 1775 00ce F8E7     		b	.L153
 1776              	.L170:
 1777              		.align	2
 1778              	.L169:
 1779 00d0 FFFFFCDF 		.word	-537067521
ARM GAS  C:\Users\carlos\AppData\Local\Temp\ccENU8bg.s 			page 53


 1780 00d4 FFFFFCCF 		.word	-805502977
 1781 00d8 00000330 		.word	805502976
 1782 00dc 00300350 		.word	1342386176
 1783 00e0 002C0350 		.word	1342385152
 1784 00e4 00000320 		.word	537067520
 1785              		.cfi_endproc
 1786              	.LFE211:
 1788              		.section	.text.HAL_GTZC_MPCBB_LockConfig,"ax",%progbits
 1789              		.align	1
 1790              		.global	HAL_GTZC_MPCBB_LockConfig
 1791              		.syntax unified
 1792              		.thumb
 1793              		.thumb_func
 1794              		.fpu fpv4-sp-d16
 1796              	HAL_GTZC_MPCBB_LockConfig:
 1797              	.LVL180:
 1798              	.LFB212:
 993:../../Drivers/STM32L5xx_HAL_Driver/Src/stm32l5xx_hal_gtzc.c **** 
 994:../../Drivers/STM32L5xx_HAL_Driver/Src/stm32l5xx_hal_gtzc.c **** /**
 995:../../Drivers/STM32L5xx_HAL_Driver/Src/stm32l5xx_hal_gtzc.c ****   * @brief  Lock MPCBB super-blocks on the SRAM passed as parameter.
 996:../../Drivers/STM32L5xx_HAL_Driver/Src/stm32l5xx_hal_gtzc.c ****   * @param  MemAddress MPCBB identifier, and start super-block to configure
 997:../../Drivers/STM32L5xx_HAL_Driver/Src/stm32l5xx_hal_gtzc.c ****   *         (must be 8KBytes aligned).
 998:../../Drivers/STM32L5xx_HAL_Driver/Src/stm32l5xx_hal_gtzc.c ****   * @param  NbSuperBlocks Number of super-blocks to configure.
 999:../../Drivers/STM32L5xx_HAL_Driver/Src/stm32l5xx_hal_gtzc.c ****   * @param  pLockAttributes pointer to an array (containing "NbSuperBlocks" elements),
1000:../../Drivers/STM32L5xx_HAL_Driver/Src/stm32l5xx_hal_gtzc.c ****   *         with for each element:
1001:../../Drivers/STM32L5xx_HAL_Driver/Src/stm32l5xx_hal_gtzc.c ****   *         value 0 super-block is unlocked, value 1 super-block is locked
1002:../../Drivers/STM32L5xx_HAL_Driver/Src/stm32l5xx_hal_gtzc.c ****   *         (corresponds to GTZC_MCPBB_SUPERBLOCK_UNLOCKED and
1003:../../Drivers/STM32L5xx_HAL_Driver/Src/stm32l5xx_hal_gtzc.c ****   *         GTZC_MCPBB_SUPERBLOCK_LOCKED values).
1004:../../Drivers/STM32L5xx_HAL_Driver/Src/stm32l5xx_hal_gtzc.c ****   * @retval HAL status.
1005:../../Drivers/STM32L5xx_HAL_Driver/Src/stm32l5xx_hal_gtzc.c ****   */
1006:../../Drivers/STM32L5xx_HAL_Driver/Src/stm32l5xx_hal_gtzc.c **** HAL_StatusTypeDef HAL_GTZC_MPCBB_LockConfig(uint32_t MemAddress,
1007:../../Drivers/STM32L5xx_HAL_Driver/Src/stm32l5xx_hal_gtzc.c ****                                             uint32_t NbSuperBlocks,
1008:../../Drivers/STM32L5xx_HAL_Driver/Src/stm32l5xx_hal_gtzc.c ****                                             const uint32_t *pLockAttributes)
1009:../../Drivers/STM32L5xx_HAL_Driver/Src/stm32l5xx_hal_gtzc.c **** {
 1799              		.loc 1 1009 1 is_stmt 1 view -0
 1800              		.cfi_startproc
 1801              		@ args = 0, pretend = 0, frame = 0
 1802              		@ frame_needed = 0, uses_anonymous_args = 0
1010:../../Drivers/STM32L5xx_HAL_Driver/Src/stm32l5xx_hal_gtzc.c ****   __IO uint32_t *reg_mpcbb;
 1803              		.loc 1 1010 3 view .LVU551
1011:../../Drivers/STM32L5xx_HAL_Driver/Src/stm32l5xx_hal_gtzc.c ****   uint32_t base_address;
 1804              		.loc 1 1011 3 view .LVU552
1012:../../Drivers/STM32L5xx_HAL_Driver/Src/stm32l5xx_hal_gtzc.c ****   uint32_t superblock_start, offset_bit_start;
 1805              		.loc 1 1012 3 view .LVU553
1013:../../Drivers/STM32L5xx_HAL_Driver/Src/stm32l5xx_hal_gtzc.c ****   uint32_t i;
 1806              		.loc 1 1013 3 view .LVU554
1014:../../Drivers/STM32L5xx_HAL_Driver/Src/stm32l5xx_hal_gtzc.c **** 
1015:../../Drivers/STM32L5xx_HAL_Driver/Src/stm32l5xx_hal_gtzc.c ****   /* firstly check that MemAddress is well 8KBytes aligned */
1016:../../Drivers/STM32L5xx_HAL_Driver/Src/stm32l5xx_hal_gtzc.c ****   if ((MemAddress % GTZC_MPCBB_SUPERBLOCK_SIZE) != 0U)
 1807              		.loc 1 1016 3 view .LVU555
 1808              		.loc 1 1016 19 is_stmt 0 view .LVU556
 1809 0000 C0F30C03 		ubfx	r3, r0, #0, #13
 1810              		.loc 1 1016 6 view .LVU557
 1811 0004 002B     		cmp	r3, #0
 1812 0006 65D1     		bne	.L182
1009:../../Drivers/STM32L5xx_HAL_Driver/Src/stm32l5xx_hal_gtzc.c ****   __IO uint32_t *reg_mpcbb;
 1813              		.loc 1 1009 1 view .LVU558
ARM GAS  C:\Users\carlos\AppData\Local\Temp\ccENU8bg.s 			page 54


 1814 0008 30B5     		push	{r4, r5, lr}
 1815              	.LCFI18:
 1816              		.cfi_def_cfa_offset 12
 1817              		.cfi_offset 4, -12
 1818              		.cfi_offset 5, -8
 1819              		.cfi_offset 14, -4
1017:../../Drivers/STM32L5xx_HAL_Driver/Src/stm32l5xx_hal_gtzc.c ****   {
1018:../../Drivers/STM32L5xx_HAL_Driver/Src/stm32l5xx_hal_gtzc.c ****     return HAL_ERROR;
1019:../../Drivers/STM32L5xx_HAL_Driver/Src/stm32l5xx_hal_gtzc.c ****   }
1020:../../Drivers/STM32L5xx_HAL_Driver/Src/stm32l5xx_hal_gtzc.c **** 
1021:../../Drivers/STM32L5xx_HAL_Driver/Src/stm32l5xx_hal_gtzc.c ****   /* check entry parameters */
1022:../../Drivers/STM32L5xx_HAL_Driver/Src/stm32l5xx_hal_gtzc.c ****   if ((IS_ADDRESS_IN(SRAM1, MemAddress))
 1820              		.loc 1 1022 3 is_stmt 1 view .LVU559
 1821              		.loc 1 1022 8 is_stmt 0 view .LVU560
 1822 000a 00F16044 		add	r4, r0, #-536870912
 1823              		.loc 1 1022 6 view .LVU561
 1824 000e B4F5403F 		cmp	r4, #196608
 1825 0012 04D3     		bcc	.L173
 1826              		.loc 1 1022 8 discriminator 1 view .LVU562
 1827 0014 00F15044 		add	r4, r0, #-805306368
 1828 0018 B4F5403F 		cmp	r4, #196608
 1829 001c 0DD2     		bcs	.L174
 1830              	.L173:
1023:../../Drivers/STM32L5xx_HAL_Driver/Src/stm32l5xx_hal_gtzc.c ****       && (IS_ADDRESS_IN(SRAM1, (MemAddress
 1831              		.loc 1 1023 11 view .LVU563
 1832 001e 00EB4134 		add	r4, r0, r1, lsl #13
 1833 0022 04F16045 		add	r5, r4, #-536870912
 1834 0026 013D     		subs	r5, r5, #1
 1835              		.loc 1 1023 7 view .LVU564
 1836 0028 B5F5403F 		cmp	r5, #196608
 1837 002c 22D3     		bcc	.L183
 1838              		.loc 1 1023 11 discriminator 1 view .LVU565
 1839 002e 04F15044 		add	r4, r4, #-805306368
 1840 0032 013C     		subs	r4, r4, #1
 1841 0034 B4F5403F 		cmp	r4, #196608
 1842 0038 23D3     		bcc	.L184
 1843              	.L174:
1024:../../Drivers/STM32L5xx_HAL_Driver/Src/stm32l5xx_hal_gtzc.c ****                                 + (NbSuperBlocks * GTZC_MPCBB_SUPERBLOCK_SIZE)
1025:../../Drivers/STM32L5xx_HAL_Driver/Src/stm32l5xx_hal_gtzc.c ****                                 - 1U))))
1026:../../Drivers/STM32L5xx_HAL_Driver/Src/stm32l5xx_hal_gtzc.c ****   {
1027:../../Drivers/STM32L5xx_HAL_Driver/Src/stm32l5xx_hal_gtzc.c ****     base_address = GTZC_BASE_ADDRESS(SRAM1);
1028:../../Drivers/STM32L5xx_HAL_Driver/Src/stm32l5xx_hal_gtzc.c ****     /* limitation: code not portable with memory > 256K */
1029:../../Drivers/STM32L5xx_HAL_Driver/Src/stm32l5xx_hal_gtzc.c ****     reg_mpcbb = (__IO uint32_t *)&GTZC_MPCBB1_S->LCKVTR1;
1030:../../Drivers/STM32L5xx_HAL_Driver/Src/stm32l5xx_hal_gtzc.c ****   }
1031:../../Drivers/STM32L5xx_HAL_Driver/Src/stm32l5xx_hal_gtzc.c ****   else if ((IS_ADDRESS_IN(SRAM2, MemAddress))
 1844              		.loc 1 1031 8 is_stmt 1 view .LVU566
 1845              		.loc 1 1031 13 is_stmt 0 view .LVU567
 1846 003a 00F15F44 		add	r4, r0, #-553648128
 1847 003e 04F57D04 		add	r4, r4, #16580608
 1848              		.loc 1 1031 11 view .LVU568
 1849 0042 B4F5803F 		cmp	r4, #65536
 1850 0046 06D3     		bcc	.L176
 1851              		.loc 1 1031 13 discriminator 1 view .LVU569
 1852 0048 00F14F44 		add	r4, r0, #-822083584
 1853 004c 04F57D04 		add	r4, r4, #16580608
 1854 0050 B4F5803F 		cmp	r4, #65536
 1855 0054 40D2     		bcs	.L185
ARM GAS  C:\Users\carlos\AppData\Local\Temp\ccENU8bg.s 			page 55


 1856              	.L176:
1032:../../Drivers/STM32L5xx_HAL_Driver/Src/stm32l5xx_hal_gtzc.c ****            && (IS_ADDRESS_IN(SRAM2, (MemAddress
 1857              		.loc 1 1032 16 view .LVU570
 1858 0056 00EB4135 		add	r5, r0, r1, lsl #13
 1859 005a 224C     		ldr	r4, .L194
 1860 005c 2C44     		add	r4, r4, r5
 1861              		.loc 1 1032 12 view .LVU571
 1862 005e B4F5803F 		cmp	r4, #65536
 1863 0062 12D3     		bcc	.L186
 1864              		.loc 1 1032 16 discriminator 1 view .LVU572
 1865 0064 204C     		ldr	r4, .L194+4
 1866 0066 2C44     		add	r4, r4, r5
 1867 0068 B4F5803F 		cmp	r4, #65536
 1868 006c 36D2     		bcs	.L187
1033:../../Drivers/STM32L5xx_HAL_Driver/Src/stm32l5xx_hal_gtzc.c ****                                      + (NbSuperBlocks * GTZC_MPCBB_SUPERBLOCK_SIZE)
1034:../../Drivers/STM32L5xx_HAL_Driver/Src/stm32l5xx_hal_gtzc.c ****                                      - 1U))))
1035:../../Drivers/STM32L5xx_HAL_Driver/Src/stm32l5xx_hal_gtzc.c ****   {
1036:../../Drivers/STM32L5xx_HAL_Driver/Src/stm32l5xx_hal_gtzc.c ****     base_address = GTZC_BASE_ADDRESS(SRAM2);
 1869              		.loc 1 1036 18 view .LVU573
 1870 006e 1F4C     		ldr	r4, .L194+8
1037:../../Drivers/STM32L5xx_HAL_Driver/Src/stm32l5xx_hal_gtzc.c ****     /* limitation: code not portable with memory > 256K */
1038:../../Drivers/STM32L5xx_HAL_Driver/Src/stm32l5xx_hal_gtzc.c ****     reg_mpcbb = (__IO uint32_t *)&GTZC_MPCBB2_S->LCKVTR1;
 1871              		.loc 1 1038 15 view .LVU574
 1872 0070 1F4D     		ldr	r5, .L194+12
 1873 0072 02E0     		b	.L175
 1874              	.L183:
1027:../../Drivers/STM32L5xx_HAL_Driver/Src/stm32l5xx_hal_gtzc.c ****     /* limitation: code not portable with memory > 256K */
 1875              		.loc 1 1027 18 view .LVU575
 1876 0074 4FF04054 		mov	r4, #805306368
1029:../../Drivers/STM32L5xx_HAL_Driver/Src/stm32l5xx_hal_gtzc.c ****   }
 1877              		.loc 1 1029 15 view .LVU576
 1878 0078 1E4D     		ldr	r5, .L194+16
 1879              	.L175:
 1880              	.LVL181:
1039:../../Drivers/STM32L5xx_HAL_Driver/Src/stm32l5xx_hal_gtzc.c ****   }
1040:../../Drivers/STM32L5xx_HAL_Driver/Src/stm32l5xx_hal_gtzc.c ****   else
1041:../../Drivers/STM32L5xx_HAL_Driver/Src/stm32l5xx_hal_gtzc.c ****   {
1042:../../Drivers/STM32L5xx_HAL_Driver/Src/stm32l5xx_hal_gtzc.c ****     return HAL_ERROR;
1043:../../Drivers/STM32L5xx_HAL_Driver/Src/stm32l5xx_hal_gtzc.c ****   }
1044:../../Drivers/STM32L5xx_HAL_Driver/Src/stm32l5xx_hal_gtzc.c **** 
1045:../../Drivers/STM32L5xx_HAL_Driver/Src/stm32l5xx_hal_gtzc.c ****   /* get start coordinates of the configuration */
1046:../../Drivers/STM32L5xx_HAL_Driver/Src/stm32l5xx_hal_gtzc.c ****   superblock_start = (MemAddress - base_address) / GTZC_MPCBB_SUPERBLOCK_SIZE;
 1881              		.loc 1 1046 3 is_stmt 1 view .LVU577
 1882              		.loc 1 1046 34 is_stmt 0 view .LVU578
 1883 007a 001B     		subs	r0, r0, r4
 1884              	.LVL182:
1047:../../Drivers/STM32L5xx_HAL_Driver/Src/stm32l5xx_hal_gtzc.c ****   offset_bit_start = superblock_start % 32U;
 1885              		.loc 1 1047 3 is_stmt 1 view .LVU579
 1886              		.loc 1 1047 20 is_stmt 0 view .LVU580
 1887 007c C0F34430 		ubfx	r0, r0, #13, #5
 1888              	.LVL183:
1048:../../Drivers/STM32L5xx_HAL_Driver/Src/stm32l5xx_hal_gtzc.c **** 
1049:../../Drivers/STM32L5xx_HAL_Driver/Src/stm32l5xx_hal_gtzc.c ****   for (i = 0U; i < NbSuperBlocks; i++)
 1889              		.loc 1 1049 3 is_stmt 1 view .LVU581
 1890              		.loc 1 1049 3 is_stmt 0 view .LVU582
 1891 0080 12E0     		b	.L177
 1892              	.LVL184:
ARM GAS  C:\Users\carlos\AppData\Local\Temp\ccENU8bg.s 			page 56


 1893              	.L184:
1027:../../Drivers/STM32L5xx_HAL_Driver/Src/stm32l5xx_hal_gtzc.c ****     /* limitation: code not portable with memory > 256K */
 1894              		.loc 1 1027 18 view .LVU583
 1895 0082 4FF04054 		mov	r4, #805306368
1029:../../Drivers/STM32L5xx_HAL_Driver/Src/stm32l5xx_hal_gtzc.c ****   }
 1896              		.loc 1 1029 15 view .LVU584
 1897 0086 1B4D     		ldr	r5, .L194+16
 1898 0088 F7E7     		b	.L175
 1899              	.L186:
1036:../../Drivers/STM32L5xx_HAL_Driver/Src/stm32l5xx_hal_gtzc.c ****     /* limitation: code not portable with memory > 256K */
 1900              		.loc 1 1036 18 view .LVU585
 1901 008a 184C     		ldr	r4, .L194+8
1038:../../Drivers/STM32L5xx_HAL_Driver/Src/stm32l5xx_hal_gtzc.c ****   }
 1902              		.loc 1 1038 15 view .LVU586
 1903 008c 184D     		ldr	r5, .L194+12
 1904 008e F4E7     		b	.L175
 1905              	.LVL185:
 1906              	.L193:
1050:../../Drivers/STM32L5xx_HAL_Driver/Src/stm32l5xx_hal_gtzc.c ****   {
1051:../../Drivers/STM32L5xx_HAL_Driver/Src/stm32l5xx_hal_gtzc.c ****     if (pLockAttributes[i] == GTZC_MCPBB_SUPERBLOCK_LOCKED)
1052:../../Drivers/STM32L5xx_HAL_Driver/Src/stm32l5xx_hal_gtzc.c ****     {
1053:../../Drivers/STM32L5xx_HAL_Driver/Src/stm32l5xx_hal_gtzc.c ****       SET_BIT(*reg_mpcbb, 1UL << (offset_bit_start % 32U));
 1907              		.loc 1 1053 7 is_stmt 1 view .LVU587
 1908 0090 2C68     		ldr	r4, [r5]
 1909 0092 00F01F0E 		and	lr, r0, #31
 1910 0096 4FF0010C 		mov	ip, #1
 1911 009a 0CFA0EFC 		lsl	ip, ip, lr
 1912 009e 44EA0C04 		orr	r4, r4, ip
 1913 00a2 2C60     		str	r4, [r5]
 1914              	.L179:
1054:../../Drivers/STM32L5xx_HAL_Driver/Src/stm32l5xx_hal_gtzc.c ****     }
1055:../../Drivers/STM32L5xx_HAL_Driver/Src/stm32l5xx_hal_gtzc.c ****     else if (pLockAttributes[i] == GTZC_MCPBB_SUPERBLOCK_UNLOCKED)
1056:../../Drivers/STM32L5xx_HAL_Driver/Src/stm32l5xx_hal_gtzc.c ****     {
1057:../../Drivers/STM32L5xx_HAL_Driver/Src/stm32l5xx_hal_gtzc.c ****       CLEAR_BIT(*reg_mpcbb, 1UL << (offset_bit_start % 32U));
1058:../../Drivers/STM32L5xx_HAL_Driver/Src/stm32l5xx_hal_gtzc.c ****     }
1059:../../Drivers/STM32L5xx_HAL_Driver/Src/stm32l5xx_hal_gtzc.c ****     else
1060:../../Drivers/STM32L5xx_HAL_Driver/Src/stm32l5xx_hal_gtzc.c ****     {
1061:../../Drivers/STM32L5xx_HAL_Driver/Src/stm32l5xx_hal_gtzc.c ****       break;
1062:../../Drivers/STM32L5xx_HAL_Driver/Src/stm32l5xx_hal_gtzc.c ****     }
1063:../../Drivers/STM32L5xx_HAL_Driver/Src/stm32l5xx_hal_gtzc.c **** 
1064:../../Drivers/STM32L5xx_HAL_Driver/Src/stm32l5xx_hal_gtzc.c ****     offset_bit_start++;
 1915              		.loc 1 1064 5 discriminator 2 view .LVU588
 1916              		.loc 1 1064 21 is_stmt 0 discriminator 2 view .LVU589
 1917 00a4 0130     		adds	r0, r0, #1
 1918              	.LVL186:
1049:../../Drivers/STM32L5xx_HAL_Driver/Src/stm32l5xx_hal_gtzc.c ****   {
 1919              		.loc 1 1049 35 is_stmt 1 discriminator 2 view .LVU590
1049:../../Drivers/STM32L5xx_HAL_Driver/Src/stm32l5xx_hal_gtzc.c ****   {
 1920              		.loc 1 1049 36 is_stmt 0 discriminator 2 view .LVU591
 1921 00a6 0133     		adds	r3, r3, #1
 1922              	.LVL187:
 1923              	.L177:
1049:../../Drivers/STM32L5xx_HAL_Driver/Src/stm32l5xx_hal_gtzc.c ****   {
 1924              		.loc 1 1049 16 is_stmt 1 discriminator 1 view .LVU592
1049:../../Drivers/STM32L5xx_HAL_Driver/Src/stm32l5xx_hal_gtzc.c ****   {
 1925              		.loc 1 1049 3 is_stmt 0 discriminator 1 view .LVU593
 1926 00a8 8B42     		cmp	r3, r1
ARM GAS  C:\Users\carlos\AppData\Local\Temp\ccENU8bg.s 			page 57


 1927 00aa 0FD2     		bcs	.L180
1051:../../Drivers/STM32L5xx_HAL_Driver/Src/stm32l5xx_hal_gtzc.c ****     {
 1928              		.loc 1 1051 5 is_stmt 1 view .LVU594
1051:../../Drivers/STM32L5xx_HAL_Driver/Src/stm32l5xx_hal_gtzc.c ****     {
 1929              		.loc 1 1051 24 is_stmt 0 view .LVU595
 1930 00ac 52F82340 		ldr	r4, [r2, r3, lsl #2]
1051:../../Drivers/STM32L5xx_HAL_Driver/Src/stm32l5xx_hal_gtzc.c ****     {
 1931              		.loc 1 1051 8 view .LVU596
 1932 00b0 012C     		cmp	r4, #1
 1933 00b2 EDD0     		beq	.L193
1055:../../Drivers/STM32L5xx_HAL_Driver/Src/stm32l5xx_hal_gtzc.c ****     {
 1934              		.loc 1 1055 10 is_stmt 1 view .LVU597
1055:../../Drivers/STM32L5xx_HAL_Driver/Src/stm32l5xx_hal_gtzc.c ****     {
 1935              		.loc 1 1055 13 is_stmt 0 view .LVU598
 1936 00b4 54B9     		cbnz	r4, .L180
1057:../../Drivers/STM32L5xx_HAL_Driver/Src/stm32l5xx_hal_gtzc.c ****     }
 1937              		.loc 1 1057 7 is_stmt 1 view .LVU599
 1938 00b6 2C68     		ldr	r4, [r5]
 1939 00b8 00F01F0E 		and	lr, r0, #31
 1940 00bc 4FF0010C 		mov	ip, #1
 1941 00c0 0CFA0EFC 		lsl	ip, ip, lr
 1942 00c4 24EA0C04 		bic	r4, r4, ip
 1943 00c8 2C60     		str	r4, [r5]
 1944 00ca EBE7     		b	.L179
 1945              	.L180:
1065:../../Drivers/STM32L5xx_HAL_Driver/Src/stm32l5xx_hal_gtzc.c ****   }
1066:../../Drivers/STM32L5xx_HAL_Driver/Src/stm32l5xx_hal_gtzc.c **** 
1067:../../Drivers/STM32L5xx_HAL_Driver/Src/stm32l5xx_hal_gtzc.c ****   /* an unexpected value in pLockAttributes array leads to an error status */
1068:../../Drivers/STM32L5xx_HAL_Driver/Src/stm32l5xx_hal_gtzc.c ****   if (i != NbSuperBlocks)
 1946              		.loc 1 1068 3 view .LVU600
 1947              		.loc 1 1068 6 is_stmt 0 view .LVU601
 1948 00cc 8B42     		cmp	r3, r1
 1949 00ce 07D1     		bne	.L188
1069:../../Drivers/STM32L5xx_HAL_Driver/Src/stm32l5xx_hal_gtzc.c ****   {
1070:../../Drivers/STM32L5xx_HAL_Driver/Src/stm32l5xx_hal_gtzc.c ****     return HAL_ERROR;
1071:../../Drivers/STM32L5xx_HAL_Driver/Src/stm32l5xx_hal_gtzc.c ****   }
1072:../../Drivers/STM32L5xx_HAL_Driver/Src/stm32l5xx_hal_gtzc.c **** 
1073:../../Drivers/STM32L5xx_HAL_Driver/Src/stm32l5xx_hal_gtzc.c ****   return HAL_OK;
 1950              		.loc 1 1073 10 view .LVU602
 1951 00d0 0020     		movs	r0, #0
 1952              	.LVL188:
 1953              	.L172:
1074:../../Drivers/STM32L5xx_HAL_Driver/Src/stm32l5xx_hal_gtzc.c **** }
 1954              		.loc 1 1074 1 view .LVU603
 1955 00d2 30BD     		pop	{r4, r5, pc}
 1956              	.LVL189:
 1957              	.L182:
 1958              	.LCFI19:
 1959              		.cfi_def_cfa_offset 0
 1960              		.cfi_restore 4
 1961              		.cfi_restore 5
 1962              		.cfi_restore 14
1018:../../Drivers/STM32L5xx_HAL_Driver/Src/stm32l5xx_hal_gtzc.c ****   }
 1963              		.loc 1 1018 12 view .LVU604
 1964 00d4 0120     		movs	r0, #1
 1965              	.LVL190:
 1966              		.loc 1 1074 1 view .LVU605
ARM GAS  C:\Users\carlos\AppData\Local\Temp\ccENU8bg.s 			page 58


 1967 00d6 7047     		bx	lr
 1968              	.LVL191:
 1969              	.L185:
 1970              	.LCFI20:
 1971              		.cfi_def_cfa_offset 12
 1972              		.cfi_offset 4, -12
 1973              		.cfi_offset 5, -8
 1974              		.cfi_offset 14, -4
1042:../../Drivers/STM32L5xx_HAL_Driver/Src/stm32l5xx_hal_gtzc.c ****   }
 1975              		.loc 1 1042 12 view .LVU606
 1976 00d8 0120     		movs	r0, #1
 1977              	.LVL192:
1042:../../Drivers/STM32L5xx_HAL_Driver/Src/stm32l5xx_hal_gtzc.c ****   }
 1978              		.loc 1 1042 12 view .LVU607
 1979 00da FAE7     		b	.L172
 1980              	.LVL193:
 1981              	.L187:
1042:../../Drivers/STM32L5xx_HAL_Driver/Src/stm32l5xx_hal_gtzc.c ****   }
 1982              		.loc 1 1042 12 view .LVU608
 1983 00dc 0120     		movs	r0, #1
 1984              	.LVL194:
1042:../../Drivers/STM32L5xx_HAL_Driver/Src/stm32l5xx_hal_gtzc.c ****   }
 1985              		.loc 1 1042 12 view .LVU609
 1986 00de F8E7     		b	.L172
 1987              	.LVL195:
 1988              	.L188:
1070:../../Drivers/STM32L5xx_HAL_Driver/Src/stm32l5xx_hal_gtzc.c ****   }
 1989              		.loc 1 1070 12 view .LVU610
 1990 00e0 0120     		movs	r0, #1
 1991              	.LVL196:
1070:../../Drivers/STM32L5xx_HAL_Driver/Src/stm32l5xx_hal_gtzc.c ****   }
 1992              		.loc 1 1070 12 view .LVU611
 1993 00e2 F6E7     		b	.L172
 1994              	.L195:
 1995              		.align	2
 1996              	.L194:
 1997 00e4 FFFFFCDF 		.word	-537067521
 1998 00e8 FFFFFCCF 		.word	-805502977
 1999 00ec 00000330 		.word	805502976
 2000 00f0 10300350 		.word	1342386192
 2001 00f4 102C0350 		.word	1342385168
 2002              		.cfi_endproc
 2003              	.LFE212:
 2005              		.section	.text.HAL_GTZC_MPCBB_GetLockConfig,"ax",%progbits
 2006              		.align	1
 2007              		.global	HAL_GTZC_MPCBB_GetLockConfig
 2008              		.syntax unified
 2009              		.thumb
 2010              		.thumb_func
 2011              		.fpu fpv4-sp-d16
 2013              	HAL_GTZC_MPCBB_GetLockConfig:
 2014              	.LVL197:
 2015              	.LFB213:
1075:../../Drivers/STM32L5xx_HAL_Driver/Src/stm32l5xx_hal_gtzc.c **** 
1076:../../Drivers/STM32L5xx_HAL_Driver/Src/stm32l5xx_hal_gtzc.c **** /**
1077:../../Drivers/STM32L5xx_HAL_Driver/Src/stm32l5xx_hal_gtzc.c ****   * @brief  Get MPCBB super-blocks lock configuration on the SRAM passed as parameter.
1078:../../Drivers/STM32L5xx_HAL_Driver/Src/stm32l5xx_hal_gtzc.c ****   * @param  MemAddress MPCBB identifier, and start super-block to get
ARM GAS  C:\Users\carlos\AppData\Local\Temp\ccENU8bg.s 			page 59


1079:../../Drivers/STM32L5xx_HAL_Driver/Src/stm32l5xx_hal_gtzc.c ****   *         configuration (must be 8KBytes aligned).
1080:../../Drivers/STM32L5xx_HAL_Driver/Src/stm32l5xx_hal_gtzc.c ****   * @param  NbSuperBlocks Number of super-blocks to get configuration.
1081:../../Drivers/STM32L5xx_HAL_Driver/Src/stm32l5xx_hal_gtzc.c ****   * @param  pLockAttributes pointer to an array (size is NbSuperBlocks),
1082:../../Drivers/STM32L5xx_HAL_Driver/Src/stm32l5xx_hal_gtzc.c ****   *         with for each element:
1083:../../Drivers/STM32L5xx_HAL_Driver/Src/stm32l5xx_hal_gtzc.c ****   *         value 0 super-block is unlocked, value 1 super-block is locked
1084:../../Drivers/STM32L5xx_HAL_Driver/Src/stm32l5xx_hal_gtzc.c ****   *         (corresponds to GTZC_MCPBB_SUPERBLOCK_UNLOCKED and
1085:../../Drivers/STM32L5xx_HAL_Driver/Src/stm32l5xx_hal_gtzc.c ****   *         GTZC_MCPBB_SUPERBLOCK_LOCKED values).
1086:../../Drivers/STM32L5xx_HAL_Driver/Src/stm32l5xx_hal_gtzc.c ****   * @retval HAL status.
1087:../../Drivers/STM32L5xx_HAL_Driver/Src/stm32l5xx_hal_gtzc.c ****   */
1088:../../Drivers/STM32L5xx_HAL_Driver/Src/stm32l5xx_hal_gtzc.c **** HAL_StatusTypeDef HAL_GTZC_MPCBB_GetLockConfig(uint32_t MemAddress,
1089:../../Drivers/STM32L5xx_HAL_Driver/Src/stm32l5xx_hal_gtzc.c ****                                                uint32_t NbSuperBlocks,
1090:../../Drivers/STM32L5xx_HAL_Driver/Src/stm32l5xx_hal_gtzc.c ****                                                uint32_t *pLockAttributes)
1091:../../Drivers/STM32L5xx_HAL_Driver/Src/stm32l5xx_hal_gtzc.c **** {
 2016              		.loc 1 1091 1 is_stmt 1 view -0
 2017              		.cfi_startproc
 2018              		@ args = 0, pretend = 0, frame = 0
 2019              		@ frame_needed = 0, uses_anonymous_args = 0
 2020              		@ link register save eliminated.
 2021              		.loc 1 1091 1 is_stmt 0 view .LVU613
 2022 0000 30B4     		push	{r4, r5}
 2023              	.LCFI21:
 2024              		.cfi_def_cfa_offset 8
 2025              		.cfi_offset 4, -8
 2026              		.cfi_offset 5, -4
1092:../../Drivers/STM32L5xx_HAL_Driver/Src/stm32l5xx_hal_gtzc.c ****   uint32_t reg_mpcbb;
 2027              		.loc 1 1092 3 is_stmt 1 view .LVU614
1093:../../Drivers/STM32L5xx_HAL_Driver/Src/stm32l5xx_hal_gtzc.c ****   uint32_t base_address;
 2028              		.loc 1 1093 3 view .LVU615
1094:../../Drivers/STM32L5xx_HAL_Driver/Src/stm32l5xx_hal_gtzc.c ****   uint32_t superblock_start, offset_bit_start;
 2029              		.loc 1 1094 3 view .LVU616
1095:../../Drivers/STM32L5xx_HAL_Driver/Src/stm32l5xx_hal_gtzc.c ****   uint32_t i;
 2030              		.loc 1 1095 3 view .LVU617
1096:../../Drivers/STM32L5xx_HAL_Driver/Src/stm32l5xx_hal_gtzc.c **** 
1097:../../Drivers/STM32L5xx_HAL_Driver/Src/stm32l5xx_hal_gtzc.c ****   /* firstly check that MemAddress is well 8KBytes aligned */
1098:../../Drivers/STM32L5xx_HAL_Driver/Src/stm32l5xx_hal_gtzc.c ****   if ((MemAddress % GTZC_MPCBB_SUPERBLOCK_SIZE) != 0U)
 2031              		.loc 1 1098 3 view .LVU618
 2032              		.loc 1 1098 19 is_stmt 0 view .LVU619
 2033 0002 C0F30C05 		ubfx	r5, r0, #0, #13
 2034              		.loc 1 1098 6 view .LVU620
 2035 0006 002D     		cmp	r5, #0
 2036 0008 4ED1     		bne	.L206
1099:../../Drivers/STM32L5xx_HAL_Driver/Src/stm32l5xx_hal_gtzc.c ****   {
1100:../../Drivers/STM32L5xx_HAL_Driver/Src/stm32l5xx_hal_gtzc.c ****     return HAL_ERROR;
1101:../../Drivers/STM32L5xx_HAL_Driver/Src/stm32l5xx_hal_gtzc.c ****   }
1102:../../Drivers/STM32L5xx_HAL_Driver/Src/stm32l5xx_hal_gtzc.c **** 
1103:../../Drivers/STM32L5xx_HAL_Driver/Src/stm32l5xx_hal_gtzc.c ****   /* check entry parameters */
1104:../../Drivers/STM32L5xx_HAL_Driver/Src/stm32l5xx_hal_gtzc.c ****   if ((IS_ADDRESS_IN(SRAM1, MemAddress))
 2037              		.loc 1 1104 3 is_stmt 1 view .LVU621
 2038              		.loc 1 1104 8 is_stmt 0 view .LVU622
 2039 000a 00F16043 		add	r3, r0, #-536870912
 2040              		.loc 1 1104 6 view .LVU623
 2041 000e B3F5403F 		cmp	r3, #196608
 2042 0012 04D3     		bcc	.L198
 2043              		.loc 1 1104 8 discriminator 1 view .LVU624
 2044 0014 00F15043 		add	r3, r0, #-805306368
 2045 0018 B3F5403F 		cmp	r3, #196608
 2046 001c 15D2     		bcs	.L199
ARM GAS  C:\Users\carlos\AppData\Local\Temp\ccENU8bg.s 			page 60


 2047              	.L198:
1105:../../Drivers/STM32L5xx_HAL_Driver/Src/stm32l5xx_hal_gtzc.c ****       && (IS_ADDRESS_IN(SRAM1, (MemAddress
 2048              		.loc 1 1105 11 view .LVU625
 2049 001e 00EB4133 		add	r3, r0, r1, lsl #13
 2050 0022 03F16044 		add	r4, r3, #-536870912
 2051 0026 013C     		subs	r4, r4, #1
 2052              		.loc 1 1105 7 view .LVU626
 2053 0028 B4F5403F 		cmp	r4, #196608
 2054 002c 05D3     		bcc	.L200
 2055              		.loc 1 1105 11 discriminator 1 view .LVU627
 2056 002e 03F15043 		add	r3, r3, #-805306368
 2057 0032 013B     		subs	r3, r3, #1
 2058 0034 B3F5403F 		cmp	r3, #196608
 2059 0038 07D2     		bcs	.L199
 2060              	.L200:
1106:../../Drivers/STM32L5xx_HAL_Driver/Src/stm32l5xx_hal_gtzc.c ****                                 + (NbSuperBlocks * GTZC_MPCBB_SUPERBLOCK_SIZE)
1107:../../Drivers/STM32L5xx_HAL_Driver/Src/stm32l5xx_hal_gtzc.c ****                                 - 1U))))
1108:../../Drivers/STM32L5xx_HAL_Driver/Src/stm32l5xx_hal_gtzc.c ****   {
1109:../../Drivers/STM32L5xx_HAL_Driver/Src/stm32l5xx_hal_gtzc.c ****     base_address = GTZC_BASE_ADDRESS(SRAM1);
 2061              		.loc 1 1109 5 is_stmt 1 view .LVU628
 2062              	.LVL198:
1110:../../Drivers/STM32L5xx_HAL_Driver/Src/stm32l5xx_hal_gtzc.c ****     /* limitation: code not portable with memory > 256K */
1111:../../Drivers/STM32L5xx_HAL_Driver/Src/stm32l5xx_hal_gtzc.c ****     reg_mpcbb = GTZC_MPCBB1_S->LCKVTR1;
 2063              		.loc 1 1111 5 view .LVU629
 2064              		.loc 1 1111 15 is_stmt 0 view .LVU630
 2065 003a 1E4B     		ldr	r3, .L210
 2066 003c 1C69     		ldr	r4, [r3, #16]
 2067              	.LVL199:
1109:../../Drivers/STM32L5xx_HAL_Driver/Src/stm32l5xx_hal_gtzc.c ****     /* limitation: code not portable with memory > 256K */
 2068              		.loc 1 1109 18 view .LVU631
 2069 003e 4FF04053 		mov	r3, #805306368
 2070              	.LVL200:
 2071              	.L201:
1112:../../Drivers/STM32L5xx_HAL_Driver/Src/stm32l5xx_hal_gtzc.c ****   }
1113:../../Drivers/STM32L5xx_HAL_Driver/Src/stm32l5xx_hal_gtzc.c ****   else if ((IS_ADDRESS_IN(SRAM2, MemAddress))
1114:../../Drivers/STM32L5xx_HAL_Driver/Src/stm32l5xx_hal_gtzc.c ****            && (IS_ADDRESS_IN(SRAM2, (MemAddress
1115:../../Drivers/STM32L5xx_HAL_Driver/Src/stm32l5xx_hal_gtzc.c ****                                      + (NbSuperBlocks * GTZC_MPCBB_SUPERBLOCK_SIZE)
1116:../../Drivers/STM32L5xx_HAL_Driver/Src/stm32l5xx_hal_gtzc.c ****                                      - 1U))))
1117:../../Drivers/STM32L5xx_HAL_Driver/Src/stm32l5xx_hal_gtzc.c ****   {
1118:../../Drivers/STM32L5xx_HAL_Driver/Src/stm32l5xx_hal_gtzc.c ****     base_address = GTZC_BASE_ADDRESS(SRAM2);
1119:../../Drivers/STM32L5xx_HAL_Driver/Src/stm32l5xx_hal_gtzc.c ****     /* limitation: code not portable with memory > 256K */
1120:../../Drivers/STM32L5xx_HAL_Driver/Src/stm32l5xx_hal_gtzc.c ****     reg_mpcbb = GTZC_MPCBB2_S->LCKVTR1;
1121:../../Drivers/STM32L5xx_HAL_Driver/Src/stm32l5xx_hal_gtzc.c ****   }
1122:../../Drivers/STM32L5xx_HAL_Driver/Src/stm32l5xx_hal_gtzc.c ****   else
1123:../../Drivers/STM32L5xx_HAL_Driver/Src/stm32l5xx_hal_gtzc.c ****   {
1124:../../Drivers/STM32L5xx_HAL_Driver/Src/stm32l5xx_hal_gtzc.c ****     return HAL_ERROR;
1125:../../Drivers/STM32L5xx_HAL_Driver/Src/stm32l5xx_hal_gtzc.c ****   }
1126:../../Drivers/STM32L5xx_HAL_Driver/Src/stm32l5xx_hal_gtzc.c **** 
1127:../../Drivers/STM32L5xx_HAL_Driver/Src/stm32l5xx_hal_gtzc.c ****   /* get start coordinates of the configuration */
1128:../../Drivers/STM32L5xx_HAL_Driver/Src/stm32l5xx_hal_gtzc.c ****   superblock_start = (MemAddress - base_address) / GTZC_MPCBB_SUPERBLOCK_SIZE;
 2072              		.loc 1 1128 3 is_stmt 1 view .LVU632
 2073              		.loc 1 1128 34 is_stmt 0 view .LVU633
 2074 0042 C01A     		subs	r0, r0, r3
 2075              	.LVL201:
1129:../../Drivers/STM32L5xx_HAL_Driver/Src/stm32l5xx_hal_gtzc.c ****   offset_bit_start = superblock_start % 32U;
 2076              		.loc 1 1129 3 is_stmt 1 view .LVU634
 2077              		.loc 1 1129 20 is_stmt 0 view .LVU635
ARM GAS  C:\Users\carlos\AppData\Local\Temp\ccENU8bg.s 			page 61


 2078 0044 C0F34430 		ubfx	r0, r0, #13, #5
 2079              	.LVL202:
1130:../../Drivers/STM32L5xx_HAL_Driver/Src/stm32l5xx_hal_gtzc.c **** 
1131:../../Drivers/STM32L5xx_HAL_Driver/Src/stm32l5xx_hal_gtzc.c ****   for (i = 0U; i < NbSuperBlocks; i++)
 2080              		.loc 1 1131 3 is_stmt 1 view .LVU636
 2081              		.loc 1 1131 3 is_stmt 0 view .LVU637
 2082 0048 29E0     		b	.L204
 2083              	.LVL203:
 2084              	.L199:
1113:../../Drivers/STM32L5xx_HAL_Driver/Src/stm32l5xx_hal_gtzc.c ****            && (IS_ADDRESS_IN(SRAM2, (MemAddress
 2085              		.loc 1 1113 8 is_stmt 1 view .LVU638
1113:../../Drivers/STM32L5xx_HAL_Driver/Src/stm32l5xx_hal_gtzc.c ****            && (IS_ADDRESS_IN(SRAM2, (MemAddress
 2086              		.loc 1 1113 13 is_stmt 0 view .LVU639
 2087 004a 00F15F43 		add	r3, r0, #-553648128
 2088 004e 03F57D03 		add	r3, r3, #16580608
1113:../../Drivers/STM32L5xx_HAL_Driver/Src/stm32l5xx_hal_gtzc.c ****            && (IS_ADDRESS_IN(SRAM2, (MemAddress
 2089              		.loc 1 1113 11 view .LVU640
 2090 0052 B3F5803F 		cmp	r3, #65536
 2091 0056 06D3     		bcc	.L202
1113:../../Drivers/STM32L5xx_HAL_Driver/Src/stm32l5xx_hal_gtzc.c ****            && (IS_ADDRESS_IN(SRAM2, (MemAddress
 2092              		.loc 1 1113 13 discriminator 1 view .LVU641
 2093 0058 00F14F43 		add	r3, r0, #-822083584
 2094 005c 03F57D03 		add	r3, r3, #16580608
 2095 0060 B3F5803F 		cmp	r3, #65536
 2096 0064 22D2     		bcs	.L207
 2097              	.L202:
1114:../../Drivers/STM32L5xx_HAL_Driver/Src/stm32l5xx_hal_gtzc.c ****                                      + (NbSuperBlocks * GTZC_MPCBB_SUPERBLOCK_SIZE)
 2098              		.loc 1 1114 16 view .LVU642
 2099 0066 00EB4134 		add	r4, r0, r1, lsl #13
 2100 006a 134B     		ldr	r3, .L210+4
 2101 006c 2344     		add	r3, r3, r4
1114:../../Drivers/STM32L5xx_HAL_Driver/Src/stm32l5xx_hal_gtzc.c ****                                      + (NbSuperBlocks * GTZC_MPCBB_SUPERBLOCK_SIZE)
 2102              		.loc 1 1114 12 view .LVU643
 2103 006e B3F5803F 		cmp	r3, #65536
 2104 0072 04D3     		bcc	.L203
1114:../../Drivers/STM32L5xx_HAL_Driver/Src/stm32l5xx_hal_gtzc.c ****                                      + (NbSuperBlocks * GTZC_MPCBB_SUPERBLOCK_SIZE)
 2105              		.loc 1 1114 16 discriminator 1 view .LVU644
 2106 0074 114B     		ldr	r3, .L210+8
 2107 0076 2344     		add	r3, r3, r4
 2108 0078 B3F5803F 		cmp	r3, #65536
 2109 007c 18D2     		bcs	.L208
 2110              	.L203:
1118:../../Drivers/STM32L5xx_HAL_Driver/Src/stm32l5xx_hal_gtzc.c ****     /* limitation: code not portable with memory > 256K */
 2111              		.loc 1 1118 5 is_stmt 1 view .LVU645
 2112              	.LVL204:
1120:../../Drivers/STM32L5xx_HAL_Driver/Src/stm32l5xx_hal_gtzc.c ****   }
 2113              		.loc 1 1120 5 view .LVU646
1120:../../Drivers/STM32L5xx_HAL_Driver/Src/stm32l5xx_hal_gtzc.c ****   }
 2114              		.loc 1 1120 15 is_stmt 0 view .LVU647
 2115 007e 104B     		ldr	r3, .L210+12
 2116 0080 1C69     		ldr	r4, [r3, #16]
 2117              	.LVL205:
1118:../../Drivers/STM32L5xx_HAL_Driver/Src/stm32l5xx_hal_gtzc.c ****     /* limitation: code not portable with memory > 256K */
 2118              		.loc 1 1118 18 view .LVU648
 2119 0082 104B     		ldr	r3, .L210+16
1120:../../Drivers/STM32L5xx_HAL_Driver/Src/stm32l5xx_hal_gtzc.c ****   }
 2120              		.loc 1 1120 15 view .LVU649
ARM GAS  C:\Users\carlos\AppData\Local\Temp\ccENU8bg.s 			page 62


 2121 0084 DDE7     		b	.L201
 2122              	.LVL206:
 2123              	.L205:
1132:../../Drivers/STM32L5xx_HAL_Driver/Src/stm32l5xx_hal_gtzc.c ****   {
1133:../../Drivers/STM32L5xx_HAL_Driver/Src/stm32l5xx_hal_gtzc.c ****     pLockAttributes[i] = (reg_mpcbb & (1UL << (offset_bit_start % 32U)))
 2124              		.loc 1 1133 5 is_stmt 1 discriminator 3 view .LVU650
 2125              		.loc 1 1133 65 is_stmt 0 discriminator 3 view .LVU651
 2126 0086 00F01F0C 		and	ip, r0, #31
 2127              		.loc 1 1133 44 discriminator 3 view .LVU652
 2128 008a 0123     		movs	r3, #1
 2129 008c 03FA0CF3 		lsl	r3, r3, ip
 2130              		.loc 1 1133 37 discriminator 3 view .LVU653
 2131 0090 2340     		ands	r3, r3, r4
1134:../../Drivers/STM32L5xx_HAL_Driver/Src/stm32l5xx_hal_gtzc.c ****                          >> (offset_bit_start % 32U);
 2132              		.loc 1 1134 26 discriminator 3 view .LVU654
 2133 0092 23FA0CF3 		lsr	r3, r3, ip
1133:../../Drivers/STM32L5xx_HAL_Driver/Src/stm32l5xx_hal_gtzc.c ****                          >> (offset_bit_start % 32U);
 2134              		.loc 1 1133 24 discriminator 3 view .LVU655
 2135 0096 42F82530 		str	r3, [r2, r5, lsl #2]
1135:../../Drivers/STM32L5xx_HAL_Driver/Src/stm32l5xx_hal_gtzc.c ****     offset_bit_start++;
 2136              		.loc 1 1135 5 is_stmt 1 discriminator 3 view .LVU656
 2137              		.loc 1 1135 21 is_stmt 0 discriminator 3 view .LVU657
 2138 009a 0130     		adds	r0, r0, #1
 2139              	.LVL207:
1131:../../Drivers/STM32L5xx_HAL_Driver/Src/stm32l5xx_hal_gtzc.c ****   {
 2140              		.loc 1 1131 35 is_stmt 1 discriminator 3 view .LVU658
1131:../../Drivers/STM32L5xx_HAL_Driver/Src/stm32l5xx_hal_gtzc.c ****   {
 2141              		.loc 1 1131 36 is_stmt 0 discriminator 3 view .LVU659
 2142 009c 0135     		adds	r5, r5, #1
 2143              	.LVL208:
 2144              	.L204:
1131:../../Drivers/STM32L5xx_HAL_Driver/Src/stm32l5xx_hal_gtzc.c ****   {
 2145              		.loc 1 1131 16 is_stmt 1 discriminator 1 view .LVU660
1131:../../Drivers/STM32L5xx_HAL_Driver/Src/stm32l5xx_hal_gtzc.c ****   {
 2146              		.loc 1 1131 3 is_stmt 0 discriminator 1 view .LVU661
 2147 009e 8D42     		cmp	r5, r1
 2148 00a0 F1D3     		bcc	.L205
1136:../../Drivers/STM32L5xx_HAL_Driver/Src/stm32l5xx_hal_gtzc.c ****   }
1137:../../Drivers/STM32L5xx_HAL_Driver/Src/stm32l5xx_hal_gtzc.c **** 
1138:../../Drivers/STM32L5xx_HAL_Driver/Src/stm32l5xx_hal_gtzc.c ****   return HAL_OK;
 2149              		.loc 1 1138 10 view .LVU662
 2150 00a2 0020     		movs	r0, #0
 2151              	.LVL209:
 2152              	.L197:
1139:../../Drivers/STM32L5xx_HAL_Driver/Src/stm32l5xx_hal_gtzc.c **** }
 2153              		.loc 1 1139 1 view .LVU663
 2154 00a4 30BC     		pop	{r4, r5}
 2155              	.LCFI22:
 2156              		.cfi_remember_state
 2157              		.cfi_restore 5
 2158              		.cfi_restore 4
 2159              		.cfi_def_cfa_offset 0
 2160 00a6 7047     		bx	lr
 2161              	.LVL210:
 2162              	.L206:
 2163              	.LCFI23:
 2164              		.cfi_restore_state
ARM GAS  C:\Users\carlos\AppData\Local\Temp\ccENU8bg.s 			page 63


1100:../../Drivers/STM32L5xx_HAL_Driver/Src/stm32l5xx_hal_gtzc.c ****   }
 2165              		.loc 1 1100 12 view .LVU664
 2166 00a8 0120     		movs	r0, #1
 2167              	.LVL211:
1100:../../Drivers/STM32L5xx_HAL_Driver/Src/stm32l5xx_hal_gtzc.c ****   }
 2168              		.loc 1 1100 12 view .LVU665
 2169 00aa FBE7     		b	.L197
 2170              	.LVL212:
 2171              	.L207:
1124:../../Drivers/STM32L5xx_HAL_Driver/Src/stm32l5xx_hal_gtzc.c ****   }
 2172              		.loc 1 1124 12 view .LVU666
 2173 00ac 0120     		movs	r0, #1
 2174              	.LVL213:
1124:../../Drivers/STM32L5xx_HAL_Driver/Src/stm32l5xx_hal_gtzc.c ****   }
 2175              		.loc 1 1124 12 view .LVU667
 2176 00ae F9E7     		b	.L197
 2177              	.LVL214:
 2178              	.L208:
1124:../../Drivers/STM32L5xx_HAL_Driver/Src/stm32l5xx_hal_gtzc.c ****   }
 2179              		.loc 1 1124 12 view .LVU668
 2180 00b0 0120     		movs	r0, #1
 2181              	.LVL215:
1124:../../Drivers/STM32L5xx_HAL_Driver/Src/stm32l5xx_hal_gtzc.c ****   }
 2182              		.loc 1 1124 12 view .LVU669
 2183 00b2 F7E7     		b	.L197
 2184              	.L211:
 2185              		.align	2
 2186              	.L210:
 2187 00b4 002C0350 		.word	1342385152
 2188 00b8 FFFFFCDF 		.word	-537067521
 2189 00bc FFFFFCCF 		.word	-805502977
 2190 00c0 00300350 		.word	1342386176
 2191 00c4 00000330 		.word	805502976
 2192              		.cfi_endproc
 2193              	.LFE213:
 2195              		.section	.text.HAL_GTZC_MPCBB_Lock,"ax",%progbits
 2196              		.align	1
 2197              		.global	HAL_GTZC_MPCBB_Lock
 2198              		.syntax unified
 2199              		.thumb
 2200              		.thumb_func
 2201              		.fpu fpv4-sp-d16
 2203              	HAL_GTZC_MPCBB_Lock:
 2204              	.LVL216:
 2205              	.LFB214:
1140:../../Drivers/STM32L5xx_HAL_Driver/Src/stm32l5xx_hal_gtzc.c **** 
1141:../../Drivers/STM32L5xx_HAL_Driver/Src/stm32l5xx_hal_gtzc.c **** /**
1142:../../Drivers/STM32L5xx_HAL_Driver/Src/stm32l5xx_hal_gtzc.c ****   * @brief  Lock a MPCBB configuration on the SRAM base address passed as parameter.
1143:../../Drivers/STM32L5xx_HAL_Driver/Src/stm32l5xx_hal_gtzc.c ****   * @param  MemBaseAddress MPCBB identifier.
1144:../../Drivers/STM32L5xx_HAL_Driver/Src/stm32l5xx_hal_gtzc.c ****   * @retval HAL status.
1145:../../Drivers/STM32L5xx_HAL_Driver/Src/stm32l5xx_hal_gtzc.c ****   */
1146:../../Drivers/STM32L5xx_HAL_Driver/Src/stm32l5xx_hal_gtzc.c **** HAL_StatusTypeDef HAL_GTZC_MPCBB_Lock(uint32_t MemBaseAddress)
1147:../../Drivers/STM32L5xx_HAL_Driver/Src/stm32l5xx_hal_gtzc.c **** {
 2206              		.loc 1 1147 1 is_stmt 1 view -0
 2207              		.cfi_startproc
 2208              		@ args = 0, pretend = 0, frame = 0
 2209              		@ frame_needed = 0, uses_anonymous_args = 0
ARM GAS  C:\Users\carlos\AppData\Local\Temp\ccENU8bg.s 			page 64


 2210              		@ link register save eliminated.
1148:../../Drivers/STM32L5xx_HAL_Driver/Src/stm32l5xx_hal_gtzc.c ****   /* check entry parameters */
1149:../../Drivers/STM32L5xx_HAL_Driver/Src/stm32l5xx_hal_gtzc.c ****   if (IS_GTZC_BASE_ADDRESS(SRAM1, MemBaseAddress))
 2211              		.loc 1 1149 3 view .LVU671
 2212              		.loc 1 1149 6 is_stmt 0 view .LVU672
 2213 0000 B0F1005F 		cmp	r0, #536870912
 2214 0004 10D0     		beq	.L213
 2215              		.loc 1 1149 7 discriminator 1 view .LVU673
 2216 0006 B0F1405F 		cmp	r0, #805306368
 2217 000a 0DD0     		beq	.L213
1150:../../Drivers/STM32L5xx_HAL_Driver/Src/stm32l5xx_hal_gtzc.c ****   {
1151:../../Drivers/STM32L5xx_HAL_Driver/Src/stm32l5xx_hal_gtzc.c ****     SET_BIT(GTZC_MPCBB1_S->CR, GTZC_MPCBB_CR_LCK_Msk);
1152:../../Drivers/STM32L5xx_HAL_Driver/Src/stm32l5xx_hal_gtzc.c ****   }
1153:../../Drivers/STM32L5xx_HAL_Driver/Src/stm32l5xx_hal_gtzc.c ****   else if (IS_GTZC_BASE_ADDRESS(SRAM2, MemBaseAddress))
 2218              		.loc 1 1153 8 is_stmt 1 view .LVU674
 2219              		.loc 1 1153 11 is_stmt 0 view .LVU675
 2220 000c 0B4B     		ldr	r3, .L218
 2221 000e 9842     		cmp	r0, r3
 2222 0010 03D0     		beq	.L216
 2223              		.loc 1 1153 12 discriminator 1 view .LVU676
 2224 0012 03F18053 		add	r3, r3, #268435456
 2225 0016 9842     		cmp	r0, r3
 2226 0018 0DD1     		bne	.L217
 2227              	.L216:
1154:../../Drivers/STM32L5xx_HAL_Driver/Src/stm32l5xx_hal_gtzc.c ****   {
1155:../../Drivers/STM32L5xx_HAL_Driver/Src/stm32l5xx_hal_gtzc.c ****     SET_BIT(GTZC_MPCBB2_S->CR, GTZC_MPCBB_CR_LCK_Msk);
 2228              		.loc 1 1155 5 is_stmt 1 view .LVU677
 2229 001a 094A     		ldr	r2, .L218+4
 2230 001c 1368     		ldr	r3, [r2]
 2231 001e 43F00103 		orr	r3, r3, #1
 2232 0022 1360     		str	r3, [r2]
1156:../../Drivers/STM32L5xx_HAL_Driver/Src/stm32l5xx_hal_gtzc.c ****   }
1157:../../Drivers/STM32L5xx_HAL_Driver/Src/stm32l5xx_hal_gtzc.c ****   else
1158:../../Drivers/STM32L5xx_HAL_Driver/Src/stm32l5xx_hal_gtzc.c ****   {
1159:../../Drivers/STM32L5xx_HAL_Driver/Src/stm32l5xx_hal_gtzc.c ****     return HAL_ERROR;
1160:../../Drivers/STM32L5xx_HAL_Driver/Src/stm32l5xx_hal_gtzc.c ****   }
1161:../../Drivers/STM32L5xx_HAL_Driver/Src/stm32l5xx_hal_gtzc.c **** 
1162:../../Drivers/STM32L5xx_HAL_Driver/Src/stm32l5xx_hal_gtzc.c ****   return HAL_OK;
 2233              		.loc 1 1162 10 is_stmt 0 view .LVU678
 2234 0024 0020     		movs	r0, #0
 2235              	.LVL217:
1155:../../Drivers/STM32L5xx_HAL_Driver/Src/stm32l5xx_hal_gtzc.c ****   }
 2236              		.loc 1 1155 5 view .LVU679
 2237 0026 7047     		bx	lr
 2238              	.LVL218:
 2239              	.L213:
1151:../../Drivers/STM32L5xx_HAL_Driver/Src/stm32l5xx_hal_gtzc.c ****   }
 2240              		.loc 1 1151 5 is_stmt 1 view .LVU680
 2241 0028 064A     		ldr	r2, .L218+8
 2242 002a 1368     		ldr	r3, [r2]
 2243 002c 43F00103 		orr	r3, r3, #1
 2244 0030 1360     		str	r3, [r2]
 2245              		.loc 1 1162 10 is_stmt 0 view .LVU681
 2246 0032 0020     		movs	r0, #0
 2247              	.LVL219:
1151:../../Drivers/STM32L5xx_HAL_Driver/Src/stm32l5xx_hal_gtzc.c ****   }
 2248              		.loc 1 1151 5 view .LVU682
ARM GAS  C:\Users\carlos\AppData\Local\Temp\ccENU8bg.s 			page 65


 2249 0034 7047     		bx	lr
 2250              	.LVL220:
 2251              	.L217:
1159:../../Drivers/STM32L5xx_HAL_Driver/Src/stm32l5xx_hal_gtzc.c ****   }
 2252              		.loc 1 1159 12 view .LVU683
 2253 0036 0120     		movs	r0, #1
 2254              	.LVL221:
1163:../../Drivers/STM32L5xx_HAL_Driver/Src/stm32l5xx_hal_gtzc.c **** }
 2255              		.loc 1 1163 1 view .LVU684
 2256 0038 7047     		bx	lr
 2257              	.L219:
 2258 003a 00BF     		.align	2
 2259              	.L218:
 2260 003c 00000320 		.word	537067520
 2261 0040 00300350 		.word	1342386176
 2262 0044 002C0350 		.word	1342385152
 2263              		.cfi_endproc
 2264              	.LFE214:
 2266              		.section	.text.HAL_GTZC_MPCBB_GetLock,"ax",%progbits
 2267              		.align	1
 2268              		.global	HAL_GTZC_MPCBB_GetLock
 2269              		.syntax unified
 2270              		.thumb
 2271              		.thumb_func
 2272              		.fpu fpv4-sp-d16
 2274              	HAL_GTZC_MPCBB_GetLock:
 2275              	.LVL222:
 2276              	.LFB215:
1164:../../Drivers/STM32L5xx_HAL_Driver/Src/stm32l5xx_hal_gtzc.c **** 
1165:../../Drivers/STM32L5xx_HAL_Driver/Src/stm32l5xx_hal_gtzc.c **** /**
1166:../../Drivers/STM32L5xx_HAL_Driver/Src/stm32l5xx_hal_gtzc.c ****   * @brief  Get MPCBB configuration lock state on the SRAM base address passed as parameter.
1167:../../Drivers/STM32L5xx_HAL_Driver/Src/stm32l5xx_hal_gtzc.c ****   * @param  MemBaseAddress MPCBB identifier.
1168:../../Drivers/STM32L5xx_HAL_Driver/Src/stm32l5xx_hal_gtzc.c ****   * @param  pLockState pointer to Lock State (GTZC_MCPBB_LOCK_OFF or GTZC_MCPBB_LOCK_ON).
1169:../../Drivers/STM32L5xx_HAL_Driver/Src/stm32l5xx_hal_gtzc.c ****   * @retval HAL status.
1170:../../Drivers/STM32L5xx_HAL_Driver/Src/stm32l5xx_hal_gtzc.c ****   */
1171:../../Drivers/STM32L5xx_HAL_Driver/Src/stm32l5xx_hal_gtzc.c **** HAL_StatusTypeDef HAL_GTZC_MPCBB_GetLock(uint32_t MemBaseAddress,
1172:../../Drivers/STM32L5xx_HAL_Driver/Src/stm32l5xx_hal_gtzc.c ****                                          uint32_t *pLockState)
1173:../../Drivers/STM32L5xx_HAL_Driver/Src/stm32l5xx_hal_gtzc.c **** {
 2277              		.loc 1 1173 1 is_stmt 1 view -0
 2278              		.cfi_startproc
 2279              		@ args = 0, pretend = 0, frame = 0
 2280              		@ frame_needed = 0, uses_anonymous_args = 0
 2281              		@ link register save eliminated.
1174:../../Drivers/STM32L5xx_HAL_Driver/Src/stm32l5xx_hal_gtzc.c ****   /* check entry parameters */
1175:../../Drivers/STM32L5xx_HAL_Driver/Src/stm32l5xx_hal_gtzc.c ****   if (IS_GTZC_BASE_ADDRESS(SRAM1, MemBaseAddress))
 2282              		.loc 1 1175 3 view .LVU686
 2283              		.loc 1 1175 6 is_stmt 0 view .LVU687
 2284 0000 B0F1005F 		cmp	r0, #536870912
 2285 0004 10D0     		beq	.L221
 2286              		.loc 1 1175 7 discriminator 1 view .LVU688
 2287 0006 B0F1405F 		cmp	r0, #805306368
 2288 000a 0DD0     		beq	.L221
1176:../../Drivers/STM32L5xx_HAL_Driver/Src/stm32l5xx_hal_gtzc.c ****   {
1177:../../Drivers/STM32L5xx_HAL_Driver/Src/stm32l5xx_hal_gtzc.c ****     *pLockState = READ_BIT(GTZC_MPCBB1_S->CR, GTZC_MPCBB_CR_LCK_Msk);
1178:../../Drivers/STM32L5xx_HAL_Driver/Src/stm32l5xx_hal_gtzc.c ****   }
1179:../../Drivers/STM32L5xx_HAL_Driver/Src/stm32l5xx_hal_gtzc.c ****   else if (IS_GTZC_BASE_ADDRESS(SRAM2, MemBaseAddress))
 2289              		.loc 1 1179 8 is_stmt 1 view .LVU689
ARM GAS  C:\Users\carlos\AppData\Local\Temp\ccENU8bg.s 			page 66


 2290              		.loc 1 1179 11 is_stmt 0 view .LVU690
 2291 000c 0B4B     		ldr	r3, .L226
 2292 000e 9842     		cmp	r0, r3
 2293 0010 03D0     		beq	.L224
 2294              		.loc 1 1179 12 discriminator 1 view .LVU691
 2295 0012 03F18053 		add	r3, r3, #268435456
 2296 0016 9842     		cmp	r0, r3
 2297 0018 0DD1     		bne	.L225
 2298              	.L224:
1180:../../Drivers/STM32L5xx_HAL_Driver/Src/stm32l5xx_hal_gtzc.c ****   {
1181:../../Drivers/STM32L5xx_HAL_Driver/Src/stm32l5xx_hal_gtzc.c ****     *pLockState = READ_BIT(GTZC_MPCBB2_S->CR, GTZC_MPCBB_CR_LCK_Msk);
 2299              		.loc 1 1181 5 is_stmt 1 view .LVU692
 2300              		.loc 1 1181 19 is_stmt 0 view .LVU693
 2301 001a 094B     		ldr	r3, .L226+4
 2302 001c 1B68     		ldr	r3, [r3]
 2303 001e 03F00103 		and	r3, r3, #1
 2304              		.loc 1 1181 17 view .LVU694
 2305 0022 0B60     		str	r3, [r1]
1182:../../Drivers/STM32L5xx_HAL_Driver/Src/stm32l5xx_hal_gtzc.c ****   }
1183:../../Drivers/STM32L5xx_HAL_Driver/Src/stm32l5xx_hal_gtzc.c ****   else
1184:../../Drivers/STM32L5xx_HAL_Driver/Src/stm32l5xx_hal_gtzc.c ****   {
1185:../../Drivers/STM32L5xx_HAL_Driver/Src/stm32l5xx_hal_gtzc.c ****     return HAL_ERROR;
1186:../../Drivers/STM32L5xx_HAL_Driver/Src/stm32l5xx_hal_gtzc.c ****   }
1187:../../Drivers/STM32L5xx_HAL_Driver/Src/stm32l5xx_hal_gtzc.c **** 
1188:../../Drivers/STM32L5xx_HAL_Driver/Src/stm32l5xx_hal_gtzc.c ****   return HAL_OK;
 2306              		.loc 1 1188 10 view .LVU695
 2307 0024 0020     		movs	r0, #0
 2308              	.LVL223:
1181:../../Drivers/STM32L5xx_HAL_Driver/Src/stm32l5xx_hal_gtzc.c ****   }
 2309              		.loc 1 1181 17 view .LVU696
 2310 0026 7047     		bx	lr
 2311              	.LVL224:
 2312              	.L221:
1177:../../Drivers/STM32L5xx_HAL_Driver/Src/stm32l5xx_hal_gtzc.c ****   }
 2313              		.loc 1 1177 5 is_stmt 1 view .LVU697
1177:../../Drivers/STM32L5xx_HAL_Driver/Src/stm32l5xx_hal_gtzc.c ****   }
 2314              		.loc 1 1177 19 is_stmt 0 view .LVU698
 2315 0028 064B     		ldr	r3, .L226+8
 2316 002a 1B68     		ldr	r3, [r3]
 2317 002c 03F00103 		and	r3, r3, #1
1177:../../Drivers/STM32L5xx_HAL_Driver/Src/stm32l5xx_hal_gtzc.c ****   }
 2318              		.loc 1 1177 17 view .LVU699
 2319 0030 0B60     		str	r3, [r1]
 2320              		.loc 1 1188 10 view .LVU700
 2321 0032 0020     		movs	r0, #0
 2322              	.LVL225:
1177:../../Drivers/STM32L5xx_HAL_Driver/Src/stm32l5xx_hal_gtzc.c ****   }
 2323              		.loc 1 1177 17 view .LVU701
 2324 0034 7047     		bx	lr
 2325              	.LVL226:
 2326              	.L225:
1185:../../Drivers/STM32L5xx_HAL_Driver/Src/stm32l5xx_hal_gtzc.c ****   }
 2327              		.loc 1 1185 12 view .LVU702
 2328 0036 0120     		movs	r0, #1
 2329              	.LVL227:
1189:../../Drivers/STM32L5xx_HAL_Driver/Src/stm32l5xx_hal_gtzc.c **** }
 2330              		.loc 1 1189 1 view .LVU703
ARM GAS  C:\Users\carlos\AppData\Local\Temp\ccENU8bg.s 			page 67


 2331 0038 7047     		bx	lr
 2332              	.L227:
 2333 003a 00BF     		.align	2
 2334              	.L226:
 2335 003c 00000320 		.word	537067520
 2336 0040 00300350 		.word	1342386176
 2337 0044 002C0350 		.word	1342385152
 2338              		.cfi_endproc
 2339              	.LFE215:
 2341              		.section	.text.HAL_GTZC_TZIC_DisableIT,"ax",%progbits
 2342              		.align	1
 2343              		.global	HAL_GTZC_TZIC_DisableIT
 2344              		.syntax unified
 2345              		.thumb
 2346              		.thumb_func
 2347              		.fpu fpv4-sp-d16
 2349              	HAL_GTZC_TZIC_DisableIT:
 2350              	.LVL228:
 2351              	.LFB216:
1190:../../Drivers/STM32L5xx_HAL_Driver/Src/stm32l5xx_hal_gtzc.c **** 
1191:../../Drivers/STM32L5xx_HAL_Driver/Src/stm32l5xx_hal_gtzc.c **** /**
1192:../../Drivers/STM32L5xx_HAL_Driver/Src/stm32l5xx_hal_gtzc.c ****   * @}
1193:../../Drivers/STM32L5xx_HAL_Driver/Src/stm32l5xx_hal_gtzc.c ****   */
1194:../../Drivers/STM32L5xx_HAL_Driver/Src/stm32l5xx_hal_gtzc.c **** 
1195:../../Drivers/STM32L5xx_HAL_Driver/Src/stm32l5xx_hal_gtzc.c **** /** @defgroup GTZC_Exported_Functions_Group5 TZIC Configuration and Control functions
1196:../../Drivers/STM32L5xx_HAL_Driver/Src/stm32l5xx_hal_gtzc.c ****   * @brief    TZIC Configuration and Control functions
1197:../../Drivers/STM32L5xx_HAL_Driver/Src/stm32l5xx_hal_gtzc.c ****   *
1198:../../Drivers/STM32L5xx_HAL_Driver/Src/stm32l5xx_hal_gtzc.c ****   @verbatim
1199:../../Drivers/STM32L5xx_HAL_Driver/Src/stm32l5xx_hal_gtzc.c ****   ==============================================================================
1200:../../Drivers/STM32L5xx_HAL_Driver/Src/stm32l5xx_hal_gtzc.c ****             ##### TZIC Configuration and Control functions #####
1201:../../Drivers/STM32L5xx_HAL_Driver/Src/stm32l5xx_hal_gtzc.c ****   ==============================================================================
1202:../../Drivers/STM32L5xx_HAL_Driver/Src/stm32l5xx_hal_gtzc.c ****   [..]
1203:../../Drivers/STM32L5xx_HAL_Driver/Src/stm32l5xx_hal_gtzc.c ****     This section provides functions allowing to configure and control TZIC
1204:../../Drivers/STM32L5xx_HAL_Driver/Src/stm32l5xx_hal_gtzc.c ****     TZIC is Trust Zone Interrupt Controller
1205:../../Drivers/STM32L5xx_HAL_Driver/Src/stm32l5xx_hal_gtzc.c **** @endverbatim
1206:../../Drivers/STM32L5xx_HAL_Driver/Src/stm32l5xx_hal_gtzc.c ****   * @{
1207:../../Drivers/STM32L5xx_HAL_Driver/Src/stm32l5xx_hal_gtzc.c ****   */
1208:../../Drivers/STM32L5xx_HAL_Driver/Src/stm32l5xx_hal_gtzc.c **** 
1209:../../Drivers/STM32L5xx_HAL_Driver/Src/stm32l5xx_hal_gtzc.c **** /**
1210:../../Drivers/STM32L5xx_HAL_Driver/Src/stm32l5xx_hal_gtzc.c ****   * @brief  Disable the interrupt associated to a single TZIC peripheral or on all peripherals.
1211:../../Drivers/STM32L5xx_HAL_Driver/Src/stm32l5xx_hal_gtzc.c ****   * @param  PeriphId Peripheral identifier.
