ARM GAS  C:\Users\carlos\AppData\Local\Temp\ccaMGGVT.s 			page 1


   1              		.cpu cortex-m33
   2              		.eabi_attribute 27, 1
   3              		.eabi_attribute 28, 1
   4              		.eabi_attribute 20, 1
   5              		.eabi_attribute 21, 1
   6              		.eabi_attribute 23, 3
   7              		.eabi_attribute 24, 1
   8              		.eabi_attribute 25, 1
   9              		.eabi_attribute 26, 1
  10              		.eabi_attribute 30, 1
  11              		.eabi_attribute 34, 1
  12              		.eabi_attribute 18, 4
  13              		.file	"stm32l5xx_hal_rtc_ex.c"
  14              		.text
  15              	.Ltext0:
  16              		.cfi_sections	.debug_frame
  17              		.section	.text.HAL_RTCEx_SetTimeStamp,"ax",%progbits
  18              		.align	1
  19              		.global	HAL_RTCEx_SetTimeStamp
  20              		.arch armv8-m.main
  21              		.arch_extension dsp
  22              		.syntax unified
  23              		.thumb
  24              		.thumb_func
  25              		.fpu fpv4-sp-d16
  27              	HAL_RTCEx_SetTimeStamp:
  28              	.LVL0:
  29              	.LFB202:
  30              		.file 1 "../../Drivers/STM32L5xx_HAL_Driver/Src/stm32l5xx_hal_rtc_ex.c"
   1:../../Drivers/STM32L5xx_HAL_Driver/Src/stm32l5xx_hal_rtc_ex.c **** /**
   2:../../Drivers/STM32L5xx_HAL_Driver/Src/stm32l5xx_hal_rtc_ex.c ****   ******************************************************************************
   3:../../Drivers/STM32L5xx_HAL_Driver/Src/stm32l5xx_hal_rtc_ex.c ****   * @file    stm32l5xx_hal_rtc_ex.c
   4:../../Drivers/STM32L5xx_HAL_Driver/Src/stm32l5xx_hal_rtc_ex.c ****   * @author  MCD Application Team
   5:../../Drivers/STM32L5xx_HAL_Driver/Src/stm32l5xx_hal_rtc_ex.c ****   * @brief   Extended RTC HAL module driver.
   6:../../Drivers/STM32L5xx_HAL_Driver/Src/stm32l5xx_hal_rtc_ex.c ****   *          This file provides firmware functions to manage the following
   7:../../Drivers/STM32L5xx_HAL_Driver/Src/stm32l5xx_hal_rtc_ex.c ****   *          functionalities of the Real Time Clock (RTC) Extended peripheral:
   8:../../Drivers/STM32L5xx_HAL_Driver/Src/stm32l5xx_hal_rtc_ex.c ****   *           + RTC Time Stamp functions
   9:../../Drivers/STM32L5xx_HAL_Driver/Src/stm32l5xx_hal_rtc_ex.c ****   *           + RTC Tamper functions
  10:../../Drivers/STM32L5xx_HAL_Driver/Src/stm32l5xx_hal_rtc_ex.c ****   *           + RTC Wake-up functions
  11:../../Drivers/STM32L5xx_HAL_Driver/Src/stm32l5xx_hal_rtc_ex.c ****   *           + Extended Control functions
  12:../../Drivers/STM32L5xx_HAL_Driver/Src/stm32l5xx_hal_rtc_ex.c ****   *           + Extended RTC features functions
  13:../../Drivers/STM32L5xx_HAL_Driver/Src/stm32l5xx_hal_rtc_ex.c ****   *
  14:../../Drivers/STM32L5xx_HAL_Driver/Src/stm32l5xx_hal_rtc_ex.c ****   ******************************************************************************
  15:../../Drivers/STM32L5xx_HAL_Driver/Src/stm32l5xx_hal_rtc_ex.c ****   * @attention
  16:../../Drivers/STM32L5xx_HAL_Driver/Src/stm32l5xx_hal_rtc_ex.c ****   *
  17:../../Drivers/STM32L5xx_HAL_Driver/Src/stm32l5xx_hal_rtc_ex.c ****   * Copyright (c) 2019 STMicroelectronics.
  18:../../Drivers/STM32L5xx_HAL_Driver/Src/stm32l5xx_hal_rtc_ex.c ****   * All rights reserved.
  19:../../Drivers/STM32L5xx_HAL_Driver/Src/stm32l5xx_hal_rtc_ex.c ****   *
  20:../../Drivers/STM32L5xx_HAL_Driver/Src/stm32l5xx_hal_rtc_ex.c ****   * This software is licensed under terms that can be found in the LICENSE file
  21:../../Drivers/STM32L5xx_HAL_Driver/Src/stm32l5xx_hal_rtc_ex.c ****   * in the root directory of this software component.
  22:../../Drivers/STM32L5xx_HAL_Driver/Src/stm32l5xx_hal_rtc_ex.c ****   * If no LICENSE file comes with this software, it is provided AS-IS.
  23:../../Drivers/STM32L5xx_HAL_Driver/Src/stm32l5xx_hal_rtc_ex.c ****   *
  24:../../Drivers/STM32L5xx_HAL_Driver/Src/stm32l5xx_hal_rtc_ex.c ****   ******************************************************************************
  25:../../Drivers/STM32L5xx_HAL_Driver/Src/stm32l5xx_hal_rtc_ex.c ****   @verbatim
  26:../../Drivers/STM32L5xx_HAL_Driver/Src/stm32l5xx_hal_rtc_ex.c ****   ==============================================================================
  27:../../Drivers/STM32L5xx_HAL_Driver/Src/stm32l5xx_hal_rtc_ex.c ****                   ##### How to use this driver #####
  28:../../Drivers/STM32L5xx_HAL_Driver/Src/stm32l5xx_hal_rtc_ex.c ****   ==============================================================================
ARM GAS  C:\Users\carlos\AppData\Local\Temp\ccaMGGVT.s 			page 2


  29:../../Drivers/STM32L5xx_HAL_Driver/Src/stm32l5xx_hal_rtc_ex.c ****   [..]
  30:../../Drivers/STM32L5xx_HAL_Driver/Src/stm32l5xx_hal_rtc_ex.c ****     (+) Enable the RTC domain access.
  31:../../Drivers/STM32L5xx_HAL_Driver/Src/stm32l5xx_hal_rtc_ex.c ****     (+) Configure the RTC Prescaler (Asynchronous and Synchronous) and RTC hour
  32:../../Drivers/STM32L5xx_HAL_Driver/Src/stm32l5xx_hal_rtc_ex.c ****         format using the HAL_RTC_Init() function.
  33:../../Drivers/STM32L5xx_HAL_Driver/Src/stm32l5xx_hal_rtc_ex.c **** 
  34:../../Drivers/STM32L5xx_HAL_Driver/Src/stm32l5xx_hal_rtc_ex.c ****   *** RTC Wakeup configuration ***
  35:../../Drivers/STM32L5xx_HAL_Driver/Src/stm32l5xx_hal_rtc_ex.c ****   ================================
  36:../../Drivers/STM32L5xx_HAL_Driver/Src/stm32l5xx_hal_rtc_ex.c ****   [..]
  37:../../Drivers/STM32L5xx_HAL_Driver/Src/stm32l5xx_hal_rtc_ex.c ****     (+) To configure the RTC Wakeup Clock source and Counter use the HAL_RTCEx_SetWakeUpTimer()
  38:../../Drivers/STM32L5xx_HAL_Driver/Src/stm32l5xx_hal_rtc_ex.c ****         function. You can also configure the RTC Wakeup timer with interrupt mode
  39:../../Drivers/STM32L5xx_HAL_Driver/Src/stm32l5xx_hal_rtc_ex.c ****         using the HAL_RTCEx_SetWakeUpTimer_IT() function.
  40:../../Drivers/STM32L5xx_HAL_Driver/Src/stm32l5xx_hal_rtc_ex.c ****     (+) To read the RTC WakeUp Counter register, use the HAL_RTCEx_GetWakeUpTimer()
  41:../../Drivers/STM32L5xx_HAL_Driver/Src/stm32l5xx_hal_rtc_ex.c ****         function.
  42:../../Drivers/STM32L5xx_HAL_Driver/Src/stm32l5xx_hal_rtc_ex.c **** 
  43:../../Drivers/STM32L5xx_HAL_Driver/Src/stm32l5xx_hal_rtc_ex.c ****   *** Outputs configuration ***
  44:../../Drivers/STM32L5xx_HAL_Driver/Src/stm32l5xx_hal_rtc_ex.c ****   =============================
  45:../../Drivers/STM32L5xx_HAL_Driver/Src/stm32l5xx_hal_rtc_ex.c ****   [..]  The RTC has 2 different outputs:
  46:../../Drivers/STM32L5xx_HAL_Driver/Src/stm32l5xx_hal_rtc_ex.c ****     (+) RTC_ALARM: this output is used to manage the RTC Alarm A, Alarm B
  47:../../Drivers/STM32L5xx_HAL_Driver/Src/stm32l5xx_hal_rtc_ex.c ****         and WaKeUp signals.
  48:../../Drivers/STM32L5xx_HAL_Driver/Src/stm32l5xx_hal_rtc_ex.c ****         To output the selected RTC signal, use the HAL_RTC_Init() function.
  49:../../Drivers/STM32L5xx_HAL_Driver/Src/stm32l5xx_hal_rtc_ex.c ****     (+) RTC_CALIB: this output is 512Hz signal or 1Hz.
  50:../../Drivers/STM32L5xx_HAL_Driver/Src/stm32l5xx_hal_rtc_ex.c ****         To enable the RTC_CALIB, use the HAL_RTCEx_SetCalibrationOutPut() function.
  51:../../Drivers/STM32L5xx_HAL_Driver/Src/stm32l5xx_hal_rtc_ex.c ****     (+) Two pins can be used as RTC_ALARM or RTC_CALIB (PC13, PB2) managed on
  52:../../Drivers/STM32L5xx_HAL_Driver/Src/stm32l5xx_hal_rtc_ex.c ****         the RTC_OR register.
  53:../../Drivers/STM32L5xx_HAL_Driver/Src/stm32l5xx_hal_rtc_ex.c ****     (+) When the RTC_CALIB or RTC_ALARM output is selected, the RTC_OUT pin is
  54:../../Drivers/STM32L5xx_HAL_Driver/Src/stm32l5xx_hal_rtc_ex.c ****         automatically configured in output alternate function.
  55:../../Drivers/STM32L5xx_HAL_Driver/Src/stm32l5xx_hal_rtc_ex.c **** 
  56:../../Drivers/STM32L5xx_HAL_Driver/Src/stm32l5xx_hal_rtc_ex.c ****   *** Smooth digital Calibration configuration ***
  57:../../Drivers/STM32L5xx_HAL_Driver/Src/stm32l5xx_hal_rtc_ex.c ****   ================================================
  58:../../Drivers/STM32L5xx_HAL_Driver/Src/stm32l5xx_hal_rtc_ex.c ****   [..]
  59:../../Drivers/STM32L5xx_HAL_Driver/Src/stm32l5xx_hal_rtc_ex.c ****     (+) Configure the RTC Original Digital Calibration Value and the corresponding
  60:../../Drivers/STM32L5xx_HAL_Driver/Src/stm32l5xx_hal_rtc_ex.c ****         calibration cycle period (32s,16s and 8s) using the HAL_RTCEx_SetSmoothCalib()
  61:../../Drivers/STM32L5xx_HAL_Driver/Src/stm32l5xx_hal_rtc_ex.c ****         function.
  62:../../Drivers/STM32L5xx_HAL_Driver/Src/stm32l5xx_hal_rtc_ex.c **** 
  63:../../Drivers/STM32L5xx_HAL_Driver/Src/stm32l5xx_hal_rtc_ex.c ****   *** TimeStamp configuration ***
  64:../../Drivers/STM32L5xx_HAL_Driver/Src/stm32l5xx_hal_rtc_ex.c ****   ===============================
  65:../../Drivers/STM32L5xx_HAL_Driver/Src/stm32l5xx_hal_rtc_ex.c ****   [..]
  66:../../Drivers/STM32L5xx_HAL_Driver/Src/stm32l5xx_hal_rtc_ex.c ****     (+) Enable the RTC TimeStamp using the HAL_RTCEx_SetTimeStamp() function.
  67:../../Drivers/STM32L5xx_HAL_Driver/Src/stm32l5xx_hal_rtc_ex.c ****         You can also configure the RTC TimeStamp with interrupt mode using the
  68:../../Drivers/STM32L5xx_HAL_Driver/Src/stm32l5xx_hal_rtc_ex.c ****         HAL_RTCEx_SetTimeStamp_IT() function.
  69:../../Drivers/STM32L5xx_HAL_Driver/Src/stm32l5xx_hal_rtc_ex.c ****     (+) To read the RTC TimeStamp Time and Date register, use the HAL_RTCEx_GetTimeStamp()
  70:../../Drivers/STM32L5xx_HAL_Driver/Src/stm32l5xx_hal_rtc_ex.c ****         function.
  71:../../Drivers/STM32L5xx_HAL_Driver/Src/stm32l5xx_hal_rtc_ex.c **** 
  72:../../Drivers/STM32L5xx_HAL_Driver/Src/stm32l5xx_hal_rtc_ex.c ****   *** Internal TimeStamp configuration ***
  73:../../Drivers/STM32L5xx_HAL_Driver/Src/stm32l5xx_hal_rtc_ex.c ****   ===============================
  74:../../Drivers/STM32L5xx_HAL_Driver/Src/stm32l5xx_hal_rtc_ex.c ****   [..]
  75:../../Drivers/STM32L5xx_HAL_Driver/Src/stm32l5xx_hal_rtc_ex.c ****     (+) Enable the RTC internal TimeStamp using the HAL_RTCEx_SetInternalTimeStamp() function.
  76:../../Drivers/STM32L5xx_HAL_Driver/Src/stm32l5xx_hal_rtc_ex.c ****         User has to check internal timestamp occurrence using __HAL_RTC_INTERNAL_TIMESTAMP_GET_FLAG
  77:../../Drivers/STM32L5xx_HAL_Driver/Src/stm32l5xx_hal_rtc_ex.c ****     (+) To read the RTC TimeStamp Time and Date register, use the HAL_RTCEx_GetTimeStamp()
  78:../../Drivers/STM32L5xx_HAL_Driver/Src/stm32l5xx_hal_rtc_ex.c ****         function.
  79:../../Drivers/STM32L5xx_HAL_Driver/Src/stm32l5xx_hal_rtc_ex.c **** 
  80:../../Drivers/STM32L5xx_HAL_Driver/Src/stm32l5xx_hal_rtc_ex.c ****    *** Tamper configuration ***
  81:../../Drivers/STM32L5xx_HAL_Driver/Src/stm32l5xx_hal_rtc_ex.c ****    ============================
  82:../../Drivers/STM32L5xx_HAL_Driver/Src/stm32l5xx_hal_rtc_ex.c ****    [..]
  83:../../Drivers/STM32L5xx_HAL_Driver/Src/stm32l5xx_hal_rtc_ex.c ****      (+) Enable the RTC Tamper and configure the Tamper filter count, trigger Edge
  84:../../Drivers/STM32L5xx_HAL_Driver/Src/stm32l5xx_hal_rtc_ex.c ****          or Level according to the Tamper filter (if equal to 0 Edge else Level)
  85:../../Drivers/STM32L5xx_HAL_Driver/Src/stm32l5xx_hal_rtc_ex.c ****          value, sampling frequency, NoErase, MaskFlag,  precharge or discharge and
ARM GAS  C:\Users\carlos\AppData\Local\Temp\ccaMGGVT.s 			page 3


  86:../../Drivers/STM32L5xx_HAL_Driver/Src/stm32l5xx_hal_rtc_ex.c ****          Pull-UP using the HAL_RTCEx_SetTamper() function. You can configure RTC Tamper
  87:../../Drivers/STM32L5xx_HAL_Driver/Src/stm32l5xx_hal_rtc_ex.c ****          with interrupt mode using HAL_RTCEx_SetTamper_IT() function.
  88:../../Drivers/STM32L5xx_HAL_Driver/Src/stm32l5xx_hal_rtc_ex.c ****      (+) The default configuration of the Tamper erases the backup registers. To avoid
  89:../../Drivers/STM32L5xx_HAL_Driver/Src/stm32l5xx_hal_rtc_ex.c ****          erase, enable the NoErase field on the RTC_TAMPCR register.
  90:../../Drivers/STM32L5xx_HAL_Driver/Src/stm32l5xx_hal_rtc_ex.c ****      (+) With new RTC tamper configuration, you have to call HAL_RTC_Init() in order to
  91:../../Drivers/STM32L5xx_HAL_Driver/Src/stm32l5xx_hal_rtc_ex.c ****          perform TAMP base address offset calculation.
  92:../../Drivers/STM32L5xx_HAL_Driver/Src/stm32l5xx_hal_rtc_ex.c ****      (+) If you do not intend to have tamper using RTC clock, you can bypass its initialization
  93:../../Drivers/STM32L5xx_HAL_Driver/Src/stm32l5xx_hal_rtc_ex.c ****          by setting ClockEnable inti field to RTC_CLOCK_DISABLE.
  94:../../Drivers/STM32L5xx_HAL_Driver/Src/stm32l5xx_hal_rtc_ex.c ****      (+) Enable Internal tamper using HAL_RTCEx_SetInternalTamper. IT mode can be chosen using
  95:../../Drivers/STM32L5xx_HAL_Driver/Src/stm32l5xx_hal_rtc_ex.c ****          setting Interrupt field.
  96:../../Drivers/STM32L5xx_HAL_Driver/Src/stm32l5xx_hal_rtc_ex.c **** 
  97:../../Drivers/STM32L5xx_HAL_Driver/Src/stm32l5xx_hal_rtc_ex.c ****    *** Backup Data Registers configuration ***
  98:../../Drivers/STM32L5xx_HAL_Driver/Src/stm32l5xx_hal_rtc_ex.c ****    ===========================================
  99:../../Drivers/STM32L5xx_HAL_Driver/Src/stm32l5xx_hal_rtc_ex.c ****    [..]
 100:../../Drivers/STM32L5xx_HAL_Driver/Src/stm32l5xx_hal_rtc_ex.c ****      (+) To write to the RTC Backup Data registers, use the HAL_RTCEx_BKUPWrite()
 101:../../Drivers/STM32L5xx_HAL_Driver/Src/stm32l5xx_hal_rtc_ex.c ****          function.
 102:../../Drivers/STM32L5xx_HAL_Driver/Src/stm32l5xx_hal_rtc_ex.c ****      (+) To read the RTC Backup Data registers, use the HAL_RTCEx_BKUPRead()
 103:../../Drivers/STM32L5xx_HAL_Driver/Src/stm32l5xx_hal_rtc_ex.c ****          function.
 104:../../Drivers/STM32L5xx_HAL_Driver/Src/stm32l5xx_hal_rtc_ex.c ****      (+) Before calling these functions you have to call HAL_RTC_Init() in order to
 105:../../Drivers/STM32L5xx_HAL_Driver/Src/stm32l5xx_hal_rtc_ex.c ****          perform TAMP base address offset calculation.
 106:../../Drivers/STM32L5xx_HAL_Driver/Src/stm32l5xx_hal_rtc_ex.c **** 
 107:../../Drivers/STM32L5xx_HAL_Driver/Src/stm32l5xx_hal_rtc_ex.c ****    @endverbatim
 108:../../Drivers/STM32L5xx_HAL_Driver/Src/stm32l5xx_hal_rtc_ex.c ****   ******************************************************************************
 109:../../Drivers/STM32L5xx_HAL_Driver/Src/stm32l5xx_hal_rtc_ex.c ****   */
 110:../../Drivers/STM32L5xx_HAL_Driver/Src/stm32l5xx_hal_rtc_ex.c **** 
 111:../../Drivers/STM32L5xx_HAL_Driver/Src/stm32l5xx_hal_rtc_ex.c **** /* Includes ------------------------------------------------------------------*/
 112:../../Drivers/STM32L5xx_HAL_Driver/Src/stm32l5xx_hal_rtc_ex.c **** #include "stm32l5xx_hal.h"
 113:../../Drivers/STM32L5xx_HAL_Driver/Src/stm32l5xx_hal_rtc_ex.c **** 
 114:../../Drivers/STM32L5xx_HAL_Driver/Src/stm32l5xx_hal_rtc_ex.c **** /** @addtogroup STM32L5xx_HAL_Driver
 115:../../Drivers/STM32L5xx_HAL_Driver/Src/stm32l5xx_hal_rtc_ex.c ****   * @{
 116:../../Drivers/STM32L5xx_HAL_Driver/Src/stm32l5xx_hal_rtc_ex.c ****   */
 117:../../Drivers/STM32L5xx_HAL_Driver/Src/stm32l5xx_hal_rtc_ex.c **** 
 118:../../Drivers/STM32L5xx_HAL_Driver/Src/stm32l5xx_hal_rtc_ex.c **** /** @addtogroup RTCEx
 119:../../Drivers/STM32L5xx_HAL_Driver/Src/stm32l5xx_hal_rtc_ex.c ****   * @brief RTC Extended HAL module driver
 120:../../Drivers/STM32L5xx_HAL_Driver/Src/stm32l5xx_hal_rtc_ex.c ****   * @{
 121:../../Drivers/STM32L5xx_HAL_Driver/Src/stm32l5xx_hal_rtc_ex.c ****   */
 122:../../Drivers/STM32L5xx_HAL_Driver/Src/stm32l5xx_hal_rtc_ex.c **** 
 123:../../Drivers/STM32L5xx_HAL_Driver/Src/stm32l5xx_hal_rtc_ex.c **** #ifdef HAL_RTC_MODULE_ENABLED
 124:../../Drivers/STM32L5xx_HAL_Driver/Src/stm32l5xx_hal_rtc_ex.c **** 
 125:../../Drivers/STM32L5xx_HAL_Driver/Src/stm32l5xx_hal_rtc_ex.c **** /* Private typedef -----------------------------------------------------------*/
 126:../../Drivers/STM32L5xx_HAL_Driver/Src/stm32l5xx_hal_rtc_ex.c **** /* Private define ------------------------------------------------------------*/
 127:../../Drivers/STM32L5xx_HAL_Driver/Src/stm32l5xx_hal_rtc_ex.c **** #define TAMP_ALL (TAMP_CR1_TAMP1E | TAMP_CR1_TAMP2E | TAMP_CR1_TAMP3E | TAMP_CR1_TAMP4E | \
 128:../../Drivers/STM32L5xx_HAL_Driver/Src/stm32l5xx_hal_rtc_ex.c ****                   TAMP_CR1_TAMP5E | TAMP_CR1_TAMP6E | TAMP_CR1_TAMP7E | TAMP_CR1_TAMP8E)
 129:../../Drivers/STM32L5xx_HAL_Driver/Src/stm32l5xx_hal_rtc_ex.c **** 
 130:../../Drivers/STM32L5xx_HAL_Driver/Src/stm32l5xx_hal_rtc_ex.c **** 
 131:../../Drivers/STM32L5xx_HAL_Driver/Src/stm32l5xx_hal_rtc_ex.c **** /* Private macro -------------------------------------------------------------*/
 132:../../Drivers/STM32L5xx_HAL_Driver/Src/stm32l5xx_hal_rtc_ex.c **** /* Private variables ---------------------------------------------------------*/
 133:../../Drivers/STM32L5xx_HAL_Driver/Src/stm32l5xx_hal_rtc_ex.c **** /* Private function prototypes -----------------------------------------------*/
 134:../../Drivers/STM32L5xx_HAL_Driver/Src/stm32l5xx_hal_rtc_ex.c **** /* Exported functions --------------------------------------------------------*/
 135:../../Drivers/STM32L5xx_HAL_Driver/Src/stm32l5xx_hal_rtc_ex.c **** 
 136:../../Drivers/STM32L5xx_HAL_Driver/Src/stm32l5xx_hal_rtc_ex.c **** /** @addtogroup RTCEx_Exported_Functions
 137:../../Drivers/STM32L5xx_HAL_Driver/Src/stm32l5xx_hal_rtc_ex.c ****   * @{
 138:../../Drivers/STM32L5xx_HAL_Driver/Src/stm32l5xx_hal_rtc_ex.c ****   */
 139:../../Drivers/STM32L5xx_HAL_Driver/Src/stm32l5xx_hal_rtc_ex.c **** 
 140:../../Drivers/STM32L5xx_HAL_Driver/Src/stm32l5xx_hal_rtc_ex.c **** 
 141:../../Drivers/STM32L5xx_HAL_Driver/Src/stm32l5xx_hal_rtc_ex.c **** /** @addtogroup RTCEx_Exported_Functions_Group1
 142:../../Drivers/STM32L5xx_HAL_Driver/Src/stm32l5xx_hal_rtc_ex.c ****  *  @brief   RTC TimeStamp and Tamper functions
ARM GAS  C:\Users\carlos\AppData\Local\Temp\ccaMGGVT.s 			page 4


 143:../../Drivers/STM32L5xx_HAL_Driver/Src/stm32l5xx_hal_rtc_ex.c ****   *
 144:../../Drivers/STM32L5xx_HAL_Driver/Src/stm32l5xx_hal_rtc_ex.c **** @verbatim
 145:../../Drivers/STM32L5xx_HAL_Driver/Src/stm32l5xx_hal_rtc_ex.c ****  ===============================================================================
 146:../../Drivers/STM32L5xx_HAL_Driver/Src/stm32l5xx_hal_rtc_ex.c ****                  ##### RTC TimeStamp and Tamper functions #####
 147:../../Drivers/STM32L5xx_HAL_Driver/Src/stm32l5xx_hal_rtc_ex.c ****  ===============================================================================
 148:../../Drivers/STM32L5xx_HAL_Driver/Src/stm32l5xx_hal_rtc_ex.c **** 
 149:../../Drivers/STM32L5xx_HAL_Driver/Src/stm32l5xx_hal_rtc_ex.c ****  [..] This section provides functions allowing to configure TimeStamp feature
 150:../../Drivers/STM32L5xx_HAL_Driver/Src/stm32l5xx_hal_rtc_ex.c **** 
 151:../../Drivers/STM32L5xx_HAL_Driver/Src/stm32l5xx_hal_rtc_ex.c **** @endverbatim
 152:../../Drivers/STM32L5xx_HAL_Driver/Src/stm32l5xx_hal_rtc_ex.c ****   * @{
 153:../../Drivers/STM32L5xx_HAL_Driver/Src/stm32l5xx_hal_rtc_ex.c ****   */
 154:../../Drivers/STM32L5xx_HAL_Driver/Src/stm32l5xx_hal_rtc_ex.c **** 
 155:../../Drivers/STM32L5xx_HAL_Driver/Src/stm32l5xx_hal_rtc_ex.c **** /**
 156:../../Drivers/STM32L5xx_HAL_Driver/Src/stm32l5xx_hal_rtc_ex.c ****   * @brief  Set TimeStamp.
 157:../../Drivers/STM32L5xx_HAL_Driver/Src/stm32l5xx_hal_rtc_ex.c ****   * @note   This API must be called before enabling the TimeStamp feature.
 158:../../Drivers/STM32L5xx_HAL_Driver/Src/stm32l5xx_hal_rtc_ex.c ****   * @param  hrtc RTC handle
 159:../../Drivers/STM32L5xx_HAL_Driver/Src/stm32l5xx_hal_rtc_ex.c ****   * @param  TimeStampEdge Specifies the pin edge on which the TimeStamp is
 160:../../Drivers/STM32L5xx_HAL_Driver/Src/stm32l5xx_hal_rtc_ex.c ****   *         activated.
 161:../../Drivers/STM32L5xx_HAL_Driver/Src/stm32l5xx_hal_rtc_ex.c ****   *          This parameter can be one of the following values:
 162:../../Drivers/STM32L5xx_HAL_Driver/Src/stm32l5xx_hal_rtc_ex.c ****   *             @arg RTC_TIMESTAMPEDGE_RISING: the Time stamp event occurs on the
 163:../../Drivers/STM32L5xx_HAL_Driver/Src/stm32l5xx_hal_rtc_ex.c ****   *                                        rising edge of the related pin.
 164:../../Drivers/STM32L5xx_HAL_Driver/Src/stm32l5xx_hal_rtc_ex.c ****   *             @arg RTC_TIMESTAMPEDGE_FALLING: the Time stamp event occurs on the
 165:../../Drivers/STM32L5xx_HAL_Driver/Src/stm32l5xx_hal_rtc_ex.c ****   *                                         falling edge of the related pin.
 166:../../Drivers/STM32L5xx_HAL_Driver/Src/stm32l5xx_hal_rtc_ex.c ****   * @param  RTC_TimeStampPin specifies the RTC TimeStamp Pin.
 167:../../Drivers/STM32L5xx_HAL_Driver/Src/stm32l5xx_hal_rtc_ex.c ****   *          This parameter can be one of the following values:
 168:../../Drivers/STM32L5xx_HAL_Driver/Src/stm32l5xx_hal_rtc_ex.c ****   *             @arg RTC_TIMESTAMPPIN_DEFAULT: PC13 is selected as RTC TimeStamp Pin.
 169:../../Drivers/STM32L5xx_HAL_Driver/Src/stm32l5xx_hal_rtc_ex.c ****   *               The RTC TimeStamp Pin is per default PC13, but for reasons of
 170:../../Drivers/STM32L5xx_HAL_Driver/Src/stm32l5xx_hal_rtc_ex.c ****   *               compatibility, this parameter is required.
 171:../../Drivers/STM32L5xx_HAL_Driver/Src/stm32l5xx_hal_rtc_ex.c ****   * @retval HAL status
 172:../../Drivers/STM32L5xx_HAL_Driver/Src/stm32l5xx_hal_rtc_ex.c ****   */
 173:../../Drivers/STM32L5xx_HAL_Driver/Src/stm32l5xx_hal_rtc_ex.c **** HAL_StatusTypeDef HAL_RTCEx_SetTimeStamp(RTC_HandleTypeDef *hrtc, uint32_t TimeStampEdge, uint32_t 
 174:../../Drivers/STM32L5xx_HAL_Driver/Src/stm32l5xx_hal_rtc_ex.c **** {
  31              		.loc 1 174 1 view -0
  32              		.cfi_startproc
  33              		@ args = 0, pretend = 0, frame = 0
  34              		@ frame_needed = 0, uses_anonymous_args = 0
  35              		@ link register save eliminated.
 175:../../Drivers/STM32L5xx_HAL_Driver/Src/stm32l5xx_hal_rtc_ex.c ****   /* Check the parameters */
 176:../../Drivers/STM32L5xx_HAL_Driver/Src/stm32l5xx_hal_rtc_ex.c ****   assert_param(IS_TIMESTAMP_EDGE(TimeStampEdge));
  36              		.loc 1 176 3 view .LVU1
 177:../../Drivers/STM32L5xx_HAL_Driver/Src/stm32l5xx_hal_rtc_ex.c ****   assert_param(IS_RTC_TIMESTAMP_PIN(RTC_TimeStampPin));
  37              		.loc 1 177 3 view .LVU2
 178:../../Drivers/STM32L5xx_HAL_Driver/Src/stm32l5xx_hal_rtc_ex.c ****   UNUSED(RTC_TimeStampPin);
  38              		.loc 1 178 3 view .LVU3
 179:../../Drivers/STM32L5xx_HAL_Driver/Src/stm32l5xx_hal_rtc_ex.c **** 
 180:../../Drivers/STM32L5xx_HAL_Driver/Src/stm32l5xx_hal_rtc_ex.c ****   /* Process Locked */
 181:../../Drivers/STM32L5xx_HAL_Driver/Src/stm32l5xx_hal_rtc_ex.c ****   __HAL_LOCK(hrtc);
  39              		.loc 1 181 3 view .LVU4
  40              		.loc 1 181 3 view .LVU5
  41 0000 90F82430 		ldrb	r3, [r0, #36]	@ zero_extendqisi2
  42 0004 012B     		cmp	r3, #1
  43 0006 1FD0     		beq	.L3
  44              		.loc 1 181 3 discriminator 2 view .LVU6
  45 0008 4FF0010C 		mov	ip, #1
  46 000c 80F824C0 		strb	ip, [r0, #36]
  47              		.loc 1 181 3 discriminator 2 view .LVU7
 182:../../Drivers/STM32L5xx_HAL_Driver/Src/stm32l5xx_hal_rtc_ex.c **** 
ARM GAS  C:\Users\carlos\AppData\Local\Temp\ccaMGGVT.s 			page 5


 183:../../Drivers/STM32L5xx_HAL_Driver/Src/stm32l5xx_hal_rtc_ex.c ****   hrtc->State = HAL_RTC_STATE_BUSY;
  48              		.loc 1 183 3 discriminator 2 view .LVU8
  49              		.loc 1 183 15 is_stmt 0 discriminator 2 view .LVU9
  50 0010 0223     		movs	r3, #2
  51 0012 80F82530 		strb	r3, [r0, #37]
 184:../../Drivers/STM32L5xx_HAL_Driver/Src/stm32l5xx_hal_rtc_ex.c **** 
 185:../../Drivers/STM32L5xx_HAL_Driver/Src/stm32l5xx_hal_rtc_ex.c ****   /* Get the RTC_CR register and clear the bits to be configured */
 186:../../Drivers/STM32L5xx_HAL_Driver/Src/stm32l5xx_hal_rtc_ex.c ****   CLEAR_BIT(RTC->CR, (RTC_CR_TSEDGE | RTC_CR_TSE));
  52              		.loc 1 186 3 is_stmt 1 discriminator 2 view .LVU10
  53 0016 0D4B     		ldr	r3, .L4
  54 0018 9A69     		ldr	r2, [r3, #24]
  55              	.LVL1:
  56              		.loc 1 186 3 is_stmt 0 discriminator 2 view .LVU11
  57 001a 22F40062 		bic	r2, r2, #2048
  58 001e 22F00802 		bic	r2, r2, #8
  59 0022 9A61     		str	r2, [r3, #24]
 187:../../Drivers/STM32L5xx_HAL_Driver/Src/stm32l5xx_hal_rtc_ex.c **** 
 188:../../Drivers/STM32L5xx_HAL_Driver/Src/stm32l5xx_hal_rtc_ex.c ****   /* Disable the write protection for RTC registers */
 189:../../Drivers/STM32L5xx_HAL_Driver/Src/stm32l5xx_hal_rtc_ex.c ****   __HAL_RTC_WRITEPROTECTION_DISABLE(hrtc);
  60              		.loc 1 189 3 is_stmt 1 discriminator 2 view .LVU12
  61              		.loc 1 189 3 discriminator 2 view .LVU13
  62 0024 CA22     		movs	r2, #202
  63 0026 5A62     		str	r2, [r3, #36]
  64              		.loc 1 189 3 discriminator 2 view .LVU14
  65 0028 5322     		movs	r2, #83
  66 002a 5A62     		str	r2, [r3, #36]
  67              		.loc 1 189 3 discriminator 2 view .LVU15
 190:../../Drivers/STM32L5xx_HAL_Driver/Src/stm32l5xx_hal_rtc_ex.c **** 
 191:../../Drivers/STM32L5xx_HAL_Driver/Src/stm32l5xx_hal_rtc_ex.c ****   /* Configure the Time Stamp TSEDGE and Enable bits */
 192:../../Drivers/STM32L5xx_HAL_Driver/Src/stm32l5xx_hal_rtc_ex.c ****   SET_BIT(RTC->CR, (uint32_t)TimeStampEdge | RTC_CR_TSE);
  68              		.loc 1 192 3 discriminator 2 view .LVU16
  69 002c 9A69     		ldr	r2, [r3, #24]
  70 002e 1143     		orrs	r1, r1, r2
  71              	.LVL2:
  72              		.loc 1 192 3 is_stmt 0 discriminator 2 view .LVU17
  73 0030 41F40061 		orr	r1, r1, #2048
  74 0034 9961     		str	r1, [r3, #24]
 193:../../Drivers/STM32L5xx_HAL_Driver/Src/stm32l5xx_hal_rtc_ex.c **** 
 194:../../Drivers/STM32L5xx_HAL_Driver/Src/stm32l5xx_hal_rtc_ex.c ****   /* Enable the write protection for RTC registers */
 195:../../Drivers/STM32L5xx_HAL_Driver/Src/stm32l5xx_hal_rtc_ex.c ****   __HAL_RTC_WRITEPROTECTION_ENABLE(hrtc);
  75              		.loc 1 195 3 is_stmt 1 discriminator 2 view .LVU18
  76              		.loc 1 195 3 discriminator 2 view .LVU19
  77 0036 FF22     		movs	r2, #255
  78 0038 5A62     		str	r2, [r3, #36]
  79              		.loc 1 195 3 discriminator 2 view .LVU20
 196:../../Drivers/STM32L5xx_HAL_Driver/Src/stm32l5xx_hal_rtc_ex.c **** 
 197:../../Drivers/STM32L5xx_HAL_Driver/Src/stm32l5xx_hal_rtc_ex.c ****   /* Change RTC state */
 198:../../Drivers/STM32L5xx_HAL_Driver/Src/stm32l5xx_hal_rtc_ex.c ****   hrtc->State = HAL_RTC_STATE_READY;
  80              		.loc 1 198 3 discriminator 2 view .LVU21
  81              		.loc 1 198 15 is_stmt 0 discriminator 2 view .LVU22
  82 003a 80F825C0 		strb	ip, [r0, #37]
 199:../../Drivers/STM32L5xx_HAL_Driver/Src/stm32l5xx_hal_rtc_ex.c **** 
 200:../../Drivers/STM32L5xx_HAL_Driver/Src/stm32l5xx_hal_rtc_ex.c ****   /* Process Unlocked */
 201:../../Drivers/STM32L5xx_HAL_Driver/Src/stm32l5xx_hal_rtc_ex.c ****   __HAL_UNLOCK(hrtc);
  83              		.loc 1 201 3 is_stmt 1 discriminator 2 view .LVU23
  84              		.loc 1 201 3 discriminator 2 view .LVU24
  85 003e 0023     		movs	r3, #0
ARM GAS  C:\Users\carlos\AppData\Local\Temp\ccaMGGVT.s 			page 6


  86 0040 80F82430 		strb	r3, [r0, #36]
  87              		.loc 1 201 3 discriminator 2 view .LVU25
 202:../../Drivers/STM32L5xx_HAL_Driver/Src/stm32l5xx_hal_rtc_ex.c **** 
 203:../../Drivers/STM32L5xx_HAL_Driver/Src/stm32l5xx_hal_rtc_ex.c ****   return HAL_OK;
  88              		.loc 1 203 3 discriminator 2 view .LVU26
  89              		.loc 1 203 10 is_stmt 0 discriminator 2 view .LVU27
  90 0044 1846     		mov	r0, r3
  91              	.LVL3:
  92              		.loc 1 203 10 discriminator 2 view .LVU28
  93 0046 7047     		bx	lr
  94              	.LVL4:
  95              	.L3:
 181:../../Drivers/STM32L5xx_HAL_Driver/Src/stm32l5xx_hal_rtc_ex.c **** 
  96              		.loc 1 181 3 view .LVU29
  97 0048 0220     		movs	r0, #2
  98              	.LVL5:
 204:../../Drivers/STM32L5xx_HAL_Driver/Src/stm32l5xx_hal_rtc_ex.c **** }
  99              		.loc 1 204 1 view .LVU30
 100 004a 7047     		bx	lr
 101              	.L5:
 102              		.align	2
 103              	.L4:
 104 004c 00280050 		.word	1342187520
 105              		.cfi_endproc
 106              	.LFE202:
 108              		.section	.text.HAL_RTCEx_SetTimeStamp_IT,"ax",%progbits
 109              		.align	1
 110              		.global	HAL_RTCEx_SetTimeStamp_IT
 111              		.syntax unified
 112              		.thumb
 113              		.thumb_func
 114              		.fpu fpv4-sp-d16
 116              	HAL_RTCEx_SetTimeStamp_IT:
 117              	.LVL6:
 118              	.LFB203:
 205:../../Drivers/STM32L5xx_HAL_Driver/Src/stm32l5xx_hal_rtc_ex.c **** 
 206:../../Drivers/STM32L5xx_HAL_Driver/Src/stm32l5xx_hal_rtc_ex.c **** /**
 207:../../Drivers/STM32L5xx_HAL_Driver/Src/stm32l5xx_hal_rtc_ex.c ****   * @brief  Set TimeStamp with Interrupt.
 208:../../Drivers/STM32L5xx_HAL_Driver/Src/stm32l5xx_hal_rtc_ex.c ****   * @note   This API must be called before enabling the TimeStamp feature.
 209:../../Drivers/STM32L5xx_HAL_Driver/Src/stm32l5xx_hal_rtc_ex.c ****   * @param  hrtc RTC handle
 210:../../Drivers/STM32L5xx_HAL_Driver/Src/stm32l5xx_hal_rtc_ex.c ****   * @param  TimeStampEdge Specifies the pin edge on which the TimeStamp is
 211:../../Drivers/STM32L5xx_HAL_Driver/Src/stm32l5xx_hal_rtc_ex.c ****   *         activated.
 212:../../Drivers/STM32L5xx_HAL_Driver/Src/stm32l5xx_hal_rtc_ex.c ****   *          This parameter can be one of the following values:
 213:../../Drivers/STM32L5xx_HAL_Driver/Src/stm32l5xx_hal_rtc_ex.c ****   *             @arg RTC_TIMESTAMPEDGE_RISING: the Time stamp event occurs on the
 214:../../Drivers/STM32L5xx_HAL_Driver/Src/stm32l5xx_hal_rtc_ex.c ****   *                                        rising edge of the related pin.
 215:../../Drivers/STM32L5xx_HAL_Driver/Src/stm32l5xx_hal_rtc_ex.c ****   *             @arg RTC_TIMESTAMPEDGE_FALLING: the Time stamp event occurs on the
 216:../../Drivers/STM32L5xx_HAL_Driver/Src/stm32l5xx_hal_rtc_ex.c ****   *                                         falling edge of the related pin.
 217:../../Drivers/STM32L5xx_HAL_Driver/Src/stm32l5xx_hal_rtc_ex.c ****   * @param  RTC_TimeStampPin Specifies the RTC TimeStamp Pin.
 218:../../Drivers/STM32L5xx_HAL_Driver/Src/stm32l5xx_hal_rtc_ex.c ****   *          This parameter can be one of the following values:
 219:../../Drivers/STM32L5xx_HAL_Driver/Src/stm32l5xx_hal_rtc_ex.c ****   *             @arg RTC_TIMESTAMPPIN_DEFAULT: PC13 is selected as RTC TimeStamp Pin.
 220:../../Drivers/STM32L5xx_HAL_Driver/Src/stm32l5xx_hal_rtc_ex.c ****   *               The RTC TimeStamp Pin is per default PC13, but for reasons of
 221:../../Drivers/STM32L5xx_HAL_Driver/Src/stm32l5xx_hal_rtc_ex.c ****   *               compatibility, this parameter is required.
 222:../../Drivers/STM32L5xx_HAL_Driver/Src/stm32l5xx_hal_rtc_ex.c ****   * @retval HAL status
 223:../../Drivers/STM32L5xx_HAL_Driver/Src/stm32l5xx_hal_rtc_ex.c ****   */
 224:../../Drivers/STM32L5xx_HAL_Driver/Src/stm32l5xx_hal_rtc_ex.c **** HAL_StatusTypeDef HAL_RTCEx_SetTimeStamp_IT(RTC_HandleTypeDef *hrtc, uint32_t TimeStampEdge, uint32
 225:../../Drivers/STM32L5xx_HAL_Driver/Src/stm32l5xx_hal_rtc_ex.c **** {
 119              		.loc 1 225 1 is_stmt 1 view -0
ARM GAS  C:\Users\carlos\AppData\Local\Temp\ccaMGGVT.s 			page 7


 120              		.cfi_startproc
 121              		@ args = 0, pretend = 0, frame = 0
 122              		@ frame_needed = 0, uses_anonymous_args = 0
 123              		@ link register save eliminated.
 226:../../Drivers/STM32L5xx_HAL_Driver/Src/stm32l5xx_hal_rtc_ex.c ****   /* Check the parameters */
 227:../../Drivers/STM32L5xx_HAL_Driver/Src/stm32l5xx_hal_rtc_ex.c ****   assert_param(IS_TIMESTAMP_EDGE(TimeStampEdge));
 124              		.loc 1 227 3 view .LVU32
 228:../../Drivers/STM32L5xx_HAL_Driver/Src/stm32l5xx_hal_rtc_ex.c ****   assert_param(IS_RTC_TIMESTAMP_PIN(RTC_TimeStampPin));
 125              		.loc 1 228 3 view .LVU33
 229:../../Drivers/STM32L5xx_HAL_Driver/Src/stm32l5xx_hal_rtc_ex.c ****   UNUSED(RTC_TimeStampPin);
 126              		.loc 1 229 3 view .LVU34
 230:../../Drivers/STM32L5xx_HAL_Driver/Src/stm32l5xx_hal_rtc_ex.c **** 
 231:../../Drivers/STM32L5xx_HAL_Driver/Src/stm32l5xx_hal_rtc_ex.c ****   /* Process Locked */
 232:../../Drivers/STM32L5xx_HAL_Driver/Src/stm32l5xx_hal_rtc_ex.c ****   __HAL_LOCK(hrtc);
 127              		.loc 1 232 3 view .LVU35
 128              		.loc 1 232 3 view .LVU36
 129 0000 90F82430 		ldrb	r3, [r0, #36]	@ zero_extendqisi2
 130 0004 012B     		cmp	r3, #1
 131 0006 28D0     		beq	.L8
 132              		.loc 1 232 3 discriminator 2 view .LVU37
 133 0008 4FF0010C 		mov	ip, #1
 134 000c 80F824C0 		strb	ip, [r0, #36]
 135              		.loc 1 232 3 discriminator 2 view .LVU38
 233:../../Drivers/STM32L5xx_HAL_Driver/Src/stm32l5xx_hal_rtc_ex.c **** 
 234:../../Drivers/STM32L5xx_HAL_Driver/Src/stm32l5xx_hal_rtc_ex.c ****   hrtc->State = HAL_RTC_STATE_BUSY;
 136              		.loc 1 234 3 discriminator 2 view .LVU39
 137              		.loc 1 234 15 is_stmt 0 discriminator 2 view .LVU40
 138 0010 0223     		movs	r3, #2
 139 0012 80F82530 		strb	r3, [r0, #37]
 235:../../Drivers/STM32L5xx_HAL_Driver/Src/stm32l5xx_hal_rtc_ex.c **** 
 236:../../Drivers/STM32L5xx_HAL_Driver/Src/stm32l5xx_hal_rtc_ex.c ****   /* Disable the write protection for RTC registers */
 237:../../Drivers/STM32L5xx_HAL_Driver/Src/stm32l5xx_hal_rtc_ex.c ****   __HAL_RTC_WRITEPROTECTION_DISABLE(hrtc);
 140              		.loc 1 237 3 is_stmt 1 discriminator 2 view .LVU41
 141              		.loc 1 237 3 discriminator 2 view .LVU42
 142 0016 124B     		ldr	r3, .L9
 143 0018 CA22     		movs	r2, #202
 144              	.LVL7:
 145              		.loc 1 237 3 is_stmt 0 discriminator 2 view .LVU43
 146 001a 5A62     		str	r2, [r3, #36]
 147              		.loc 1 237 3 is_stmt 1 discriminator 2 view .LVU44
 148 001c 5322     		movs	r2, #83
 149 001e 5A62     		str	r2, [r3, #36]
 150              		.loc 1 237 3 discriminator 2 view .LVU45
 238:../../Drivers/STM32L5xx_HAL_Driver/Src/stm32l5xx_hal_rtc_ex.c **** 
 239:../../Drivers/STM32L5xx_HAL_Driver/Src/stm32l5xx_hal_rtc_ex.c ****   /* Get the RTC_CR register and clear the bits to be configured */
 240:../../Drivers/STM32L5xx_HAL_Driver/Src/stm32l5xx_hal_rtc_ex.c ****   CLEAR_BIT(RTC->CR, (RTC_CR_TSEDGE | RTC_CR_TSE | RTC_CR_TSIE));
 151              		.loc 1 240 3 discriminator 2 view .LVU46
 152 0020 9A69     		ldr	r2, [r3, #24]
 153 0022 22F40842 		bic	r2, r2, #34816
 154 0026 22F00802 		bic	r2, r2, #8
 155 002a 9A61     		str	r2, [r3, #24]
 241:../../Drivers/STM32L5xx_HAL_Driver/Src/stm32l5xx_hal_rtc_ex.c **** 
 242:../../Drivers/STM32L5xx_HAL_Driver/Src/stm32l5xx_hal_rtc_ex.c ****   /* Configure the Time Stamp TSEDGE before Enable bit to avoid unwanted TSF setting. */
 243:../../Drivers/STM32L5xx_HAL_Driver/Src/stm32l5xx_hal_rtc_ex.c ****   SET_BIT(RTC->CR, (uint32_t)TimeStampEdge);
 156              		.loc 1 243 3 discriminator 2 view .LVU47
 157 002c 9A69     		ldr	r2, [r3, #24]
 158 002e 1143     		orrs	r1, r1, r2
ARM GAS  C:\Users\carlos\AppData\Local\Temp\ccaMGGVT.s 			page 8


 159              	.LVL8:
 160              		.loc 1 243 3 is_stmt 0 discriminator 2 view .LVU48
 161 0030 9961     		str	r1, [r3, #24]
 244:../../Drivers/STM32L5xx_HAL_Driver/Src/stm32l5xx_hal_rtc_ex.c **** 
 245:../../Drivers/STM32L5xx_HAL_Driver/Src/stm32l5xx_hal_rtc_ex.c ****   /* Enable timestamp and IT */
 246:../../Drivers/STM32L5xx_HAL_Driver/Src/stm32l5xx_hal_rtc_ex.c ****   SET_BIT(RTC->CR, RTC_CR_TSE | RTC_CR_TSIE);
 162              		.loc 1 246 3 is_stmt 1 discriminator 2 view .LVU49
 163 0032 9A69     		ldr	r2, [r3, #24]
 164 0034 42F40842 		orr	r2, r2, #34816
 165 0038 9A61     		str	r2, [r3, #24]
 247:../../Drivers/STM32L5xx_HAL_Driver/Src/stm32l5xx_hal_rtc_ex.c **** 
 248:../../Drivers/STM32L5xx_HAL_Driver/Src/stm32l5xx_hal_rtc_ex.c ****   /* Enable the write protection for RTC registers */
 249:../../Drivers/STM32L5xx_HAL_Driver/Src/stm32l5xx_hal_rtc_ex.c ****   __HAL_RTC_WRITEPROTECTION_ENABLE(hrtc);
 166              		.loc 1 249 3 discriminator 2 view .LVU50
 167              		.loc 1 249 3 discriminator 2 view .LVU51
 168 003a FF22     		movs	r2, #255
 169 003c 5A62     		str	r2, [r3, #36]
 170              		.loc 1 249 3 discriminator 2 view .LVU52
 250:../../Drivers/STM32L5xx_HAL_Driver/Src/stm32l5xx_hal_rtc_ex.c **** 
 251:../../Drivers/STM32L5xx_HAL_Driver/Src/stm32l5xx_hal_rtc_ex.c ****   /* RTC timestamp Interrupt Configuration: EXTI configuration */
 252:../../Drivers/STM32L5xx_HAL_Driver/Src/stm32l5xx_hal_rtc_ex.c ****   __HAL_RTC_TIMESTAMP_EXTI_ENABLE_IT();
 171              		.loc 1 252 3 discriminator 2 view .LVU53
 172 003e 094A     		ldr	r2, .L9+4
 173 0040 D2F88030 		ldr	r3, [r2, #128]
 174 0044 43F48023 		orr	r3, r3, #262144
 175 0048 C2F88030 		str	r3, [r2, #128]
 253:../../Drivers/STM32L5xx_HAL_Driver/Src/stm32l5xx_hal_rtc_ex.c **** 
 254:../../Drivers/STM32L5xx_HAL_Driver/Src/stm32l5xx_hal_rtc_ex.c ****   hrtc->State = HAL_RTC_STATE_READY;
 176              		.loc 1 254 3 discriminator 2 view .LVU54
 177              		.loc 1 254 15 is_stmt 0 discriminator 2 view .LVU55
 178 004c 80F825C0 		strb	ip, [r0, #37]
 255:../../Drivers/STM32L5xx_HAL_Driver/Src/stm32l5xx_hal_rtc_ex.c **** 
 256:../../Drivers/STM32L5xx_HAL_Driver/Src/stm32l5xx_hal_rtc_ex.c ****   /* Process Unlocked */
 257:../../Drivers/STM32L5xx_HAL_Driver/Src/stm32l5xx_hal_rtc_ex.c ****   __HAL_UNLOCK(hrtc);
 179              		.loc 1 257 3 is_stmt 1 discriminator 2 view .LVU56
 180              		.loc 1 257 3 discriminator 2 view .LVU57
 181 0050 0023     		movs	r3, #0
 182 0052 80F82430 		strb	r3, [r0, #36]
 183              		.loc 1 257 3 discriminator 2 view .LVU58
 258:../../Drivers/STM32L5xx_HAL_Driver/Src/stm32l5xx_hal_rtc_ex.c **** 
 259:../../Drivers/STM32L5xx_HAL_Driver/Src/stm32l5xx_hal_rtc_ex.c ****   return HAL_OK;
 184              		.loc 1 259 3 discriminator 2 view .LVU59
 185              		.loc 1 259 10 is_stmt 0 discriminator 2 view .LVU60
 186 0056 1846     		mov	r0, r3
 187              	.LVL9:
 188              		.loc 1 259 10 discriminator 2 view .LVU61
 189 0058 7047     		bx	lr
 190              	.LVL10:
 191              	.L8:
 232:../../Drivers/STM32L5xx_HAL_Driver/Src/stm32l5xx_hal_rtc_ex.c **** 
 192              		.loc 1 232 3 view .LVU62
 193 005a 0220     		movs	r0, #2
 194              	.LVL11:
 260:../../Drivers/STM32L5xx_HAL_Driver/Src/stm32l5xx_hal_rtc_ex.c **** }
 195              		.loc 1 260 1 view .LVU63
 196 005c 7047     		bx	lr
 197              	.L10:
ARM GAS  C:\Users\carlos\AppData\Local\Temp\ccaMGGVT.s 			page 9


 198 005e 00BF     		.align	2
 199              	.L9:
 200 0060 00280050 		.word	1342187520
 201 0064 00F40250 		.word	1342370816
 202              		.cfi_endproc
 203              	.LFE203:
 205              		.section	.text.HAL_RTCEx_DeactivateTimeStamp,"ax",%progbits
 206              		.align	1
 207              		.global	HAL_RTCEx_DeactivateTimeStamp
 208              		.syntax unified
 209              		.thumb
 210              		.thumb_func
 211              		.fpu fpv4-sp-d16
 213              	HAL_RTCEx_DeactivateTimeStamp:
 214              	.LVL12:
 215              	.LFB204:
 261:../../Drivers/STM32L5xx_HAL_Driver/Src/stm32l5xx_hal_rtc_ex.c **** 
 262:../../Drivers/STM32L5xx_HAL_Driver/Src/stm32l5xx_hal_rtc_ex.c **** /**
 263:../../Drivers/STM32L5xx_HAL_Driver/Src/stm32l5xx_hal_rtc_ex.c ****   * @brief  Deactivate TimeStamp.
 264:../../Drivers/STM32L5xx_HAL_Driver/Src/stm32l5xx_hal_rtc_ex.c ****   * @param  hrtc RTC handle
 265:../../Drivers/STM32L5xx_HAL_Driver/Src/stm32l5xx_hal_rtc_ex.c ****   * @retval HAL status
 266:../../Drivers/STM32L5xx_HAL_Driver/Src/stm32l5xx_hal_rtc_ex.c ****   */
 267:../../Drivers/STM32L5xx_HAL_Driver/Src/stm32l5xx_hal_rtc_ex.c **** HAL_StatusTypeDef HAL_RTCEx_DeactivateTimeStamp(RTC_HandleTypeDef *hrtc)
 268:../../Drivers/STM32L5xx_HAL_Driver/Src/stm32l5xx_hal_rtc_ex.c **** {
 216              		.loc 1 268 1 is_stmt 1 view -0
 217              		.cfi_startproc
 218              		@ args = 0, pretend = 0, frame = 0
 219              		@ frame_needed = 0, uses_anonymous_args = 0
 220              		@ link register save eliminated.
 269:../../Drivers/STM32L5xx_HAL_Driver/Src/stm32l5xx_hal_rtc_ex.c ****   /* Process Locked */
 270:../../Drivers/STM32L5xx_HAL_Driver/Src/stm32l5xx_hal_rtc_ex.c ****   __HAL_LOCK(hrtc);
 221              		.loc 1 270 3 view .LVU65
 222              		.loc 1 270 3 view .LVU66
 223 0000 90F82430 		ldrb	r3, [r0, #36]	@ zero_extendqisi2
 224 0004 012B     		cmp	r3, #1
 225 0006 19D0     		beq	.L13
 226              		.loc 1 270 3 discriminator 2 view .LVU67
 227 0008 0121     		movs	r1, #1
 228 000a 80F82410 		strb	r1, [r0, #36]
 229              		.loc 1 270 3 discriminator 2 view .LVU68
 271:../../Drivers/STM32L5xx_HAL_Driver/Src/stm32l5xx_hal_rtc_ex.c **** 
 272:../../Drivers/STM32L5xx_HAL_Driver/Src/stm32l5xx_hal_rtc_ex.c ****   hrtc->State = HAL_RTC_STATE_BUSY;
 230              		.loc 1 272 3 discriminator 2 view .LVU69
 231              		.loc 1 272 15 is_stmt 0 discriminator 2 view .LVU70
 232 000e 0223     		movs	r3, #2
 233 0010 80F82530 		strb	r3, [r0, #37]
 273:../../Drivers/STM32L5xx_HAL_Driver/Src/stm32l5xx_hal_rtc_ex.c **** 
 274:../../Drivers/STM32L5xx_HAL_Driver/Src/stm32l5xx_hal_rtc_ex.c ****   /* Disable the write protection for RTC registers */
 275:../../Drivers/STM32L5xx_HAL_Driver/Src/stm32l5xx_hal_rtc_ex.c ****   __HAL_RTC_WRITEPROTECTION_DISABLE(hrtc);
 234              		.loc 1 275 3 is_stmt 1 discriminator 2 view .LVU71
 235              		.loc 1 275 3 discriminator 2 view .LVU72
 236 0014 0A4B     		ldr	r3, .L14
 237 0016 CA22     		movs	r2, #202
 238 0018 5A62     		str	r2, [r3, #36]
 239              		.loc 1 275 3 discriminator 2 view .LVU73
 240 001a 5322     		movs	r2, #83
 241 001c 5A62     		str	r2, [r3, #36]
ARM GAS  C:\Users\carlos\AppData\Local\Temp\ccaMGGVT.s 			page 10


 242              		.loc 1 275 3 discriminator 2 view .LVU74
 276:../../Drivers/STM32L5xx_HAL_Driver/Src/stm32l5xx_hal_rtc_ex.c **** 
 277:../../Drivers/STM32L5xx_HAL_Driver/Src/stm32l5xx_hal_rtc_ex.c ****   /* In case of interrupt mode is used, the interrupt source must disabled */
 278:../../Drivers/STM32L5xx_HAL_Driver/Src/stm32l5xx_hal_rtc_ex.c ****   CLEAR_BIT(RTC->CR, (RTC_CR_TSEDGE | RTC_CR_TSE | RTC_CR_TSIE));
 243              		.loc 1 278 3 discriminator 2 view .LVU75
 244 001e 9A69     		ldr	r2, [r3, #24]
 245 0020 22F40842 		bic	r2, r2, #34816
 246 0024 22F00802 		bic	r2, r2, #8
 247 0028 9A61     		str	r2, [r3, #24]
 279:../../Drivers/STM32L5xx_HAL_Driver/Src/stm32l5xx_hal_rtc_ex.c **** 
 280:../../Drivers/STM32L5xx_HAL_Driver/Src/stm32l5xx_hal_rtc_ex.c ****   /* Enable the write protection for RTC registers */
 281:../../Drivers/STM32L5xx_HAL_Driver/Src/stm32l5xx_hal_rtc_ex.c ****   __HAL_RTC_WRITEPROTECTION_ENABLE(hrtc);
 248              		.loc 1 281 3 discriminator 2 view .LVU76
 249              		.loc 1 281 3 discriminator 2 view .LVU77
 250 002a FF22     		movs	r2, #255
 251 002c 5A62     		str	r2, [r3, #36]
 252              		.loc 1 281 3 discriminator 2 view .LVU78
 282:../../Drivers/STM32L5xx_HAL_Driver/Src/stm32l5xx_hal_rtc_ex.c **** 
 283:../../Drivers/STM32L5xx_HAL_Driver/Src/stm32l5xx_hal_rtc_ex.c ****   hrtc->State = HAL_RTC_STATE_READY;
 253              		.loc 1 283 3 discriminator 2 view .LVU79
 254              		.loc 1 283 15 is_stmt 0 discriminator 2 view .LVU80
 255 002e 80F82510 		strb	r1, [r0, #37]
 284:../../Drivers/STM32L5xx_HAL_Driver/Src/stm32l5xx_hal_rtc_ex.c **** 
 285:../../Drivers/STM32L5xx_HAL_Driver/Src/stm32l5xx_hal_rtc_ex.c ****   /* Process Unlocked */
 286:../../Drivers/STM32L5xx_HAL_Driver/Src/stm32l5xx_hal_rtc_ex.c ****   __HAL_UNLOCK(hrtc);
 256              		.loc 1 286 3 is_stmt 1 discriminator 2 view .LVU81
 257              		.loc 1 286 3 discriminator 2 view .LVU82
 258 0032 0023     		movs	r3, #0
 259 0034 80F82430 		strb	r3, [r0, #36]
 260              		.loc 1 286 3 discriminator 2 view .LVU83
 287:../../Drivers/STM32L5xx_HAL_Driver/Src/stm32l5xx_hal_rtc_ex.c **** 
 288:../../Drivers/STM32L5xx_HAL_Driver/Src/stm32l5xx_hal_rtc_ex.c ****   return HAL_OK;
 261              		.loc 1 288 3 discriminator 2 view .LVU84
 262              		.loc 1 288 10 is_stmt 0 discriminator 2 view .LVU85
 263 0038 1846     		mov	r0, r3
 264              	.LVL13:
 265              		.loc 1 288 10 discriminator 2 view .LVU86
 266 003a 7047     		bx	lr
 267              	.LVL14:
 268              	.L13:
 270:../../Drivers/STM32L5xx_HAL_Driver/Src/stm32l5xx_hal_rtc_ex.c **** 
 269              		.loc 1 270 3 view .LVU87
 270 003c 0220     		movs	r0, #2
 271              	.LVL15:
 289:../../Drivers/STM32L5xx_HAL_Driver/Src/stm32l5xx_hal_rtc_ex.c **** }
 272              		.loc 1 289 1 view .LVU88
 273 003e 7047     		bx	lr
 274              	.L15:
 275              		.align	2
 276              	.L14:
 277 0040 00280050 		.word	1342187520
 278              		.cfi_endproc
 279              	.LFE204:
 281              		.section	.text.HAL_RTCEx_SetInternalTimeStamp,"ax",%progbits
 282              		.align	1
 283              		.global	HAL_RTCEx_SetInternalTimeStamp
 284              		.syntax unified
ARM GAS  C:\Users\carlos\AppData\Local\Temp\ccaMGGVT.s 			page 11


 285              		.thumb
 286              		.thumb_func
 287              		.fpu fpv4-sp-d16
 289              	HAL_RTCEx_SetInternalTimeStamp:
 290              	.LVL16:
 291              	.LFB205:
 290:../../Drivers/STM32L5xx_HAL_Driver/Src/stm32l5xx_hal_rtc_ex.c **** 
 291:../../Drivers/STM32L5xx_HAL_Driver/Src/stm32l5xx_hal_rtc_ex.c **** /**
 292:../../Drivers/STM32L5xx_HAL_Driver/Src/stm32l5xx_hal_rtc_ex.c ****   * @brief  Set Internal TimeStamp.
 293:../../Drivers/STM32L5xx_HAL_Driver/Src/stm32l5xx_hal_rtc_ex.c ****   * @note   This API must be called before enabling the internal TimeStamp feature.
 294:../../Drivers/STM32L5xx_HAL_Driver/Src/stm32l5xx_hal_rtc_ex.c ****   * @param  hrtc RTC handle
 295:../../Drivers/STM32L5xx_HAL_Driver/Src/stm32l5xx_hal_rtc_ex.c ****   * @retval HAL status
 296:../../Drivers/STM32L5xx_HAL_Driver/Src/stm32l5xx_hal_rtc_ex.c ****   */
 297:../../Drivers/STM32L5xx_HAL_Driver/Src/stm32l5xx_hal_rtc_ex.c **** HAL_StatusTypeDef HAL_RTCEx_SetInternalTimeStamp(RTC_HandleTypeDef *hrtc)
 298:../../Drivers/STM32L5xx_HAL_Driver/Src/stm32l5xx_hal_rtc_ex.c **** {
 292              		.loc 1 298 1 is_stmt 1 view -0
 293              		.cfi_startproc
 294              		@ args = 0, pretend = 0, frame = 0
 295              		@ frame_needed = 0, uses_anonymous_args = 0
 296              		@ link register save eliminated.
 299:../../Drivers/STM32L5xx_HAL_Driver/Src/stm32l5xx_hal_rtc_ex.c ****   /* Process Locked */
 300:../../Drivers/STM32L5xx_HAL_Driver/Src/stm32l5xx_hal_rtc_ex.c ****   __HAL_LOCK(hrtc);
 297              		.loc 1 300 3 view .LVU90
 298              		.loc 1 300 3 view .LVU91
 299 0000 90F82430 		ldrb	r3, [r0, #36]	@ zero_extendqisi2
 300 0004 012B     		cmp	r3, #1
 301 0006 17D0     		beq	.L18
 302              		.loc 1 300 3 discriminator 2 view .LVU92
 303 0008 0121     		movs	r1, #1
 304 000a 80F82410 		strb	r1, [r0, #36]
 305              		.loc 1 300 3 discriminator 2 view .LVU93
 301:../../Drivers/STM32L5xx_HAL_Driver/Src/stm32l5xx_hal_rtc_ex.c **** 
 302:../../Drivers/STM32L5xx_HAL_Driver/Src/stm32l5xx_hal_rtc_ex.c ****   hrtc->State = HAL_RTC_STATE_BUSY;
 306              		.loc 1 302 3 discriminator 2 view .LVU94
 307              		.loc 1 302 15 is_stmt 0 discriminator 2 view .LVU95
 308 000e 0223     		movs	r3, #2
 309 0010 80F82530 		strb	r3, [r0, #37]
 303:../../Drivers/STM32L5xx_HAL_Driver/Src/stm32l5xx_hal_rtc_ex.c **** 
 304:../../Drivers/STM32L5xx_HAL_Driver/Src/stm32l5xx_hal_rtc_ex.c ****   /* Disable the write protection for RTC registers */
 305:../../Drivers/STM32L5xx_HAL_Driver/Src/stm32l5xx_hal_rtc_ex.c ****   __HAL_RTC_WRITEPROTECTION_DISABLE(hrtc);
 310              		.loc 1 305 3 is_stmt 1 discriminator 2 view .LVU96
 311              		.loc 1 305 3 discriminator 2 view .LVU97
 312 0014 094B     		ldr	r3, .L19
 313 0016 CA22     		movs	r2, #202
 314 0018 5A62     		str	r2, [r3, #36]
 315              		.loc 1 305 3 discriminator 2 view .LVU98
 316 001a 5322     		movs	r2, #83
 317 001c 5A62     		str	r2, [r3, #36]
 318              		.loc 1 305 3 discriminator 2 view .LVU99
 306:../../Drivers/STM32L5xx_HAL_Driver/Src/stm32l5xx_hal_rtc_ex.c **** 
 307:../../Drivers/STM32L5xx_HAL_Driver/Src/stm32l5xx_hal_rtc_ex.c ****   /* Configure the internal Time Stamp Enable bits */
 308:../../Drivers/STM32L5xx_HAL_Driver/Src/stm32l5xx_hal_rtc_ex.c ****   SET_BIT(RTC->CR, RTC_CR_ITSE);
 319              		.loc 1 308 3 discriminator 2 view .LVU100
 320 001e 9A69     		ldr	r2, [r3, #24]
 321 0020 42F08072 		orr	r2, r2, #16777216
 322 0024 9A61     		str	r2, [r3, #24]
 309:../../Drivers/STM32L5xx_HAL_Driver/Src/stm32l5xx_hal_rtc_ex.c **** 
ARM GAS  C:\Users\carlos\AppData\Local\Temp\ccaMGGVT.s 			page 12


 310:../../Drivers/STM32L5xx_HAL_Driver/Src/stm32l5xx_hal_rtc_ex.c ****   /* Enable the write protection for RTC registers */
 311:../../Drivers/STM32L5xx_HAL_Driver/Src/stm32l5xx_hal_rtc_ex.c ****   __HAL_RTC_WRITEPROTECTION_ENABLE(hrtc);
 323              		.loc 1 311 3 discriminator 2 view .LVU101
 324              		.loc 1 311 3 discriminator 2 view .LVU102
 325 0026 FF22     		movs	r2, #255
 326 0028 5A62     		str	r2, [r3, #36]
 327              		.loc 1 311 3 discriminator 2 view .LVU103
 312:../../Drivers/STM32L5xx_HAL_Driver/Src/stm32l5xx_hal_rtc_ex.c **** 
 313:../../Drivers/STM32L5xx_HAL_Driver/Src/stm32l5xx_hal_rtc_ex.c ****   /* Change RTC state */
 314:../../Drivers/STM32L5xx_HAL_Driver/Src/stm32l5xx_hal_rtc_ex.c ****   hrtc->State = HAL_RTC_STATE_READY;
 328              		.loc 1 314 3 discriminator 2 view .LVU104
 329              		.loc 1 314 15 is_stmt 0 discriminator 2 view .LVU105
 330 002a 80F82510 		strb	r1, [r0, #37]
 315:../../Drivers/STM32L5xx_HAL_Driver/Src/stm32l5xx_hal_rtc_ex.c **** 
 316:../../Drivers/STM32L5xx_HAL_Driver/Src/stm32l5xx_hal_rtc_ex.c ****   /* Process Unlocked */
 317:../../Drivers/STM32L5xx_HAL_Driver/Src/stm32l5xx_hal_rtc_ex.c ****   __HAL_UNLOCK(hrtc);
 331              		.loc 1 317 3 is_stmt 1 discriminator 2 view .LVU106
 332              		.loc 1 317 3 discriminator 2 view .LVU107
 333 002e 0023     		movs	r3, #0
 334 0030 80F82430 		strb	r3, [r0, #36]
 335              		.loc 1 317 3 discriminator 2 view .LVU108
 318:../../Drivers/STM32L5xx_HAL_Driver/Src/stm32l5xx_hal_rtc_ex.c **** 
 319:../../Drivers/STM32L5xx_HAL_Driver/Src/stm32l5xx_hal_rtc_ex.c ****   return HAL_OK;
 336              		.loc 1 319 3 discriminator 2 view .LVU109
 337              		.loc 1 319 10 is_stmt 0 discriminator 2 view .LVU110
 338 0034 1846     		mov	r0, r3
 339              	.LVL17:
 340              		.loc 1 319 10 discriminator 2 view .LVU111
 341 0036 7047     		bx	lr
 342              	.LVL18:
 343              	.L18:
 300:../../Drivers/STM32L5xx_HAL_Driver/Src/stm32l5xx_hal_rtc_ex.c **** 
 344              		.loc 1 300 3 view .LVU112
 345 0038 0220     		movs	r0, #2
 346              	.LVL19:
 320:../../Drivers/STM32L5xx_HAL_Driver/Src/stm32l5xx_hal_rtc_ex.c **** }
 347              		.loc 1 320 1 view .LVU113
 348 003a 7047     		bx	lr
 349              	.L20:
 350              		.align	2
 351              	.L19:
 352 003c 00280050 		.word	1342187520
 353              		.cfi_endproc
 354              	.LFE205:
 356              		.section	.text.HAL_RTCEx_DeactivateInternalTimeStamp,"ax",%progbits
 357              		.align	1
 358              		.global	HAL_RTCEx_DeactivateInternalTimeStamp
 359              		.syntax unified
 360              		.thumb
 361              		.thumb_func
 362              		.fpu fpv4-sp-d16
 364              	HAL_RTCEx_DeactivateInternalTimeStamp:
 365              	.LVL20:
 366              	.LFB206:
 321:../../Drivers/STM32L5xx_HAL_Driver/Src/stm32l5xx_hal_rtc_ex.c **** 
 322:../../Drivers/STM32L5xx_HAL_Driver/Src/stm32l5xx_hal_rtc_ex.c **** /**
 323:../../Drivers/STM32L5xx_HAL_Driver/Src/stm32l5xx_hal_rtc_ex.c ****   * @brief  Deactivate Internal TimeStamp.
ARM GAS  C:\Users\carlos\AppData\Local\Temp\ccaMGGVT.s 			page 13


 324:../../Drivers/STM32L5xx_HAL_Driver/Src/stm32l5xx_hal_rtc_ex.c ****   * @param  hrtc RTC handle
 325:../../Drivers/STM32L5xx_HAL_Driver/Src/stm32l5xx_hal_rtc_ex.c ****   * @retval HAL status
 326:../../Drivers/STM32L5xx_HAL_Driver/Src/stm32l5xx_hal_rtc_ex.c ****   */
 327:../../Drivers/STM32L5xx_HAL_Driver/Src/stm32l5xx_hal_rtc_ex.c **** HAL_StatusTypeDef HAL_RTCEx_DeactivateInternalTimeStamp(RTC_HandleTypeDef *hrtc)
 328:../../Drivers/STM32L5xx_HAL_Driver/Src/stm32l5xx_hal_rtc_ex.c **** {
 367              		.loc 1 328 1 is_stmt 1 view -0
 368              		.cfi_startproc
 369              		@ args = 0, pretend = 0, frame = 0
 370              		@ frame_needed = 0, uses_anonymous_args = 0
 371              		@ link register save eliminated.
 329:../../Drivers/STM32L5xx_HAL_Driver/Src/stm32l5xx_hal_rtc_ex.c ****   /* Process Locked */
 330:../../Drivers/STM32L5xx_HAL_Driver/Src/stm32l5xx_hal_rtc_ex.c ****   __HAL_LOCK(hrtc);
 372              		.loc 1 330 3 view .LVU115
 373              		.loc 1 330 3 view .LVU116
 374 0000 90F82430 		ldrb	r3, [r0, #36]	@ zero_extendqisi2
 375 0004 012B     		cmp	r3, #1
 376 0006 17D0     		beq	.L23
 377              		.loc 1 330 3 discriminator 2 view .LVU117
 378 0008 0121     		movs	r1, #1
 379 000a 80F82410 		strb	r1, [r0, #36]
 380              		.loc 1 330 3 discriminator 2 view .LVU118
 331:../../Drivers/STM32L5xx_HAL_Driver/Src/stm32l5xx_hal_rtc_ex.c **** 
 332:../../Drivers/STM32L5xx_HAL_Driver/Src/stm32l5xx_hal_rtc_ex.c ****   hrtc->State = HAL_RTC_STATE_BUSY;
 381              		.loc 1 332 3 discriminator 2 view .LVU119
 382              		.loc 1 332 15 is_stmt 0 discriminator 2 view .LVU120
 383 000e 0223     		movs	r3, #2
 384 0010 80F82530 		strb	r3, [r0, #37]
 333:../../Drivers/STM32L5xx_HAL_Driver/Src/stm32l5xx_hal_rtc_ex.c **** 
 334:../../Drivers/STM32L5xx_HAL_Driver/Src/stm32l5xx_hal_rtc_ex.c ****   /* Disable the write protection for RTC registers */
 335:../../Drivers/STM32L5xx_HAL_Driver/Src/stm32l5xx_hal_rtc_ex.c ****   __HAL_RTC_WRITEPROTECTION_DISABLE(hrtc);
 385              		.loc 1 335 3 is_stmt 1 discriminator 2 view .LVU121
 386              		.loc 1 335 3 discriminator 2 view .LVU122
 387 0014 094B     		ldr	r3, .L24
 388 0016 CA22     		movs	r2, #202
 389 0018 5A62     		str	r2, [r3, #36]
 390              		.loc 1 335 3 discriminator 2 view .LVU123
 391 001a 5322     		movs	r2, #83
 392 001c 5A62     		str	r2, [r3, #36]
 393              		.loc 1 335 3 discriminator 2 view .LVU124
 336:../../Drivers/STM32L5xx_HAL_Driver/Src/stm32l5xx_hal_rtc_ex.c **** 
 337:../../Drivers/STM32L5xx_HAL_Driver/Src/stm32l5xx_hal_rtc_ex.c ****   /* Configure the internal Time Stamp Enable bits */
 338:../../Drivers/STM32L5xx_HAL_Driver/Src/stm32l5xx_hal_rtc_ex.c ****   CLEAR_BIT(RTC->CR, RTC_CR_ITSE);
 394              		.loc 1 338 3 discriminator 2 view .LVU125
 395 001e 9A69     		ldr	r2, [r3, #24]
 396 0020 22F08072 		bic	r2, r2, #16777216
 397 0024 9A61     		str	r2, [r3, #24]
 339:../../Drivers/STM32L5xx_HAL_Driver/Src/stm32l5xx_hal_rtc_ex.c **** 
 340:../../Drivers/STM32L5xx_HAL_Driver/Src/stm32l5xx_hal_rtc_ex.c ****   /* Enable the write protection for RTC registers */
 341:../../Drivers/STM32L5xx_HAL_Driver/Src/stm32l5xx_hal_rtc_ex.c ****   __HAL_RTC_WRITEPROTECTION_ENABLE(hrtc);
 398              		.loc 1 341 3 discriminator 2 view .LVU126
 399              		.loc 1 341 3 discriminator 2 view .LVU127
 400 0026 FF22     		movs	r2, #255
 401 0028 5A62     		str	r2, [r3, #36]
 402              		.loc 1 341 3 discriminator 2 view .LVU128
 342:../../Drivers/STM32L5xx_HAL_Driver/Src/stm32l5xx_hal_rtc_ex.c **** 
 343:../../Drivers/STM32L5xx_HAL_Driver/Src/stm32l5xx_hal_rtc_ex.c ****   hrtc->State = HAL_RTC_STATE_READY;
 403              		.loc 1 343 3 discriminator 2 view .LVU129
ARM GAS  C:\Users\carlos\AppData\Local\Temp\ccaMGGVT.s 			page 14


 404              		.loc 1 343 15 is_stmt 0 discriminator 2 view .LVU130
 405 002a 80F82510 		strb	r1, [r0, #37]
 344:../../Drivers/STM32L5xx_HAL_Driver/Src/stm32l5xx_hal_rtc_ex.c **** 
 345:../../Drivers/STM32L5xx_HAL_Driver/Src/stm32l5xx_hal_rtc_ex.c ****   /* Process Unlocked */
 346:../../Drivers/STM32L5xx_HAL_Driver/Src/stm32l5xx_hal_rtc_ex.c ****   __HAL_UNLOCK(hrtc);
 406              		.loc 1 346 3 is_stmt 1 discriminator 2 view .LVU131
 407              		.loc 1 346 3 discriminator 2 view .LVU132
 408 002e 0023     		movs	r3, #0
 409 0030 80F82430 		strb	r3, [r0, #36]
 410              		.loc 1 346 3 discriminator 2 view .LVU133
 347:../../Drivers/STM32L5xx_HAL_Driver/Src/stm32l5xx_hal_rtc_ex.c **** 
 348:../../Drivers/STM32L5xx_HAL_Driver/Src/stm32l5xx_hal_rtc_ex.c ****   return HAL_OK;
 411              		.loc 1 348 3 discriminator 2 view .LVU134
 412              		.loc 1 348 10 is_stmt 0 discriminator 2 view .LVU135
 413 0034 1846     		mov	r0, r3
 414              	.LVL21:
 415              		.loc 1 348 10 discriminator 2 view .LVU136
 416 0036 7047     		bx	lr
 417              	.LVL22:
 418              	.L23:
 330:../../Drivers/STM32L5xx_HAL_Driver/Src/stm32l5xx_hal_rtc_ex.c **** 
 419              		.loc 1 330 3 view .LVU137
 420 0038 0220     		movs	r0, #2
 421              	.LVL23:
 349:../../Drivers/STM32L5xx_HAL_Driver/Src/stm32l5xx_hal_rtc_ex.c **** }
 422              		.loc 1 349 1 view .LVU138
 423 003a 7047     		bx	lr
 424              	.L25:
 425              		.align	2
 426              	.L24:
 427 003c 00280050 		.word	1342187520
 428              		.cfi_endproc
 429              	.LFE206:
 431              		.section	.text.HAL_RTCEx_GetTimeStamp,"ax",%progbits
 432              		.align	1
 433              		.global	HAL_RTCEx_GetTimeStamp
 434              		.syntax unified
 435              		.thumb
 436              		.thumb_func
 437              		.fpu fpv4-sp-d16
 439              	HAL_RTCEx_GetTimeStamp:
 440              	.LVL24:
 441              	.LFB207:
 350:../../Drivers/STM32L5xx_HAL_Driver/Src/stm32l5xx_hal_rtc_ex.c **** 
 351:../../Drivers/STM32L5xx_HAL_Driver/Src/stm32l5xx_hal_rtc_ex.c **** /**
 352:../../Drivers/STM32L5xx_HAL_Driver/Src/stm32l5xx_hal_rtc_ex.c ****   * @brief  Get the RTC TimeStamp value.
 353:../../Drivers/STM32L5xx_HAL_Driver/Src/stm32l5xx_hal_rtc_ex.c ****   * @param  hrtc RTC handle
 354:../../Drivers/STM32L5xx_HAL_Driver/Src/stm32l5xx_hal_rtc_ex.c ****   * @param  sTimeStamp Pointer to Time structure
 355:../../Drivers/STM32L5xx_HAL_Driver/Src/stm32l5xx_hal_rtc_ex.c ****   * @param  sTimeStampDate Pointer to Date structure
 356:../../Drivers/STM32L5xx_HAL_Driver/Src/stm32l5xx_hal_rtc_ex.c ****   * @param  Format specifies the format of the entered parameters.
 357:../../Drivers/STM32L5xx_HAL_Driver/Src/stm32l5xx_hal_rtc_ex.c ****   *          This parameter can be one of the following values:
 358:../../Drivers/STM32L5xx_HAL_Driver/Src/stm32l5xx_hal_rtc_ex.c ****   *             @arg RTC_FORMAT_BIN: Binary data format
 359:../../Drivers/STM32L5xx_HAL_Driver/Src/stm32l5xx_hal_rtc_ex.c ****   *             @arg RTC_FORMAT_BCD: BCD data format
 360:../../Drivers/STM32L5xx_HAL_Driver/Src/stm32l5xx_hal_rtc_ex.c ****   * @retval HAL status
 361:../../Drivers/STM32L5xx_HAL_Driver/Src/stm32l5xx_hal_rtc_ex.c ****   */
 362:../../Drivers/STM32L5xx_HAL_Driver/Src/stm32l5xx_hal_rtc_ex.c **** HAL_StatusTypeDef HAL_RTCEx_GetTimeStamp(RTC_HandleTypeDef *hrtc, RTC_TimeTypeDef *sTimeStamp, RTC_
 363:../../Drivers/STM32L5xx_HAL_Driver/Src/stm32l5xx_hal_rtc_ex.c **** {
ARM GAS  C:\Users\carlos\AppData\Local\Temp\ccaMGGVT.s 			page 15


 442              		.loc 1 363 1 is_stmt 1 view -0
 443              		.cfi_startproc
 444              		@ args = 0, pretend = 0, frame = 0
 445              		@ frame_needed = 0, uses_anonymous_args = 0
 446              		.loc 1 363 1 is_stmt 0 view .LVU140
 447 0000 38B5     		push	{r3, r4, r5, lr}
 448              	.LCFI0:
 449              		.cfi_def_cfa_offset 16
 450              		.cfi_offset 3, -16
 451              		.cfi_offset 4, -12
 452              		.cfi_offset 5, -8
 453              		.cfi_offset 14, -4
 454 0002 0C46     		mov	r4, r1
 455 0004 1546     		mov	r5, r2
 364:../../Drivers/STM32L5xx_HAL_Driver/Src/stm32l5xx_hal_rtc_ex.c ****   uint32_t tmptime, tmpdate;
 456              		.loc 1 364 3 is_stmt 1 view .LVU141
 365:../../Drivers/STM32L5xx_HAL_Driver/Src/stm32l5xx_hal_rtc_ex.c **** 
 366:../../Drivers/STM32L5xx_HAL_Driver/Src/stm32l5xx_hal_rtc_ex.c ****   UNUSED(hrtc);
 457              		.loc 1 366 3 view .LVU142
 367:../../Drivers/STM32L5xx_HAL_Driver/Src/stm32l5xx_hal_rtc_ex.c ****   /* Check the parameters */
 368:../../Drivers/STM32L5xx_HAL_Driver/Src/stm32l5xx_hal_rtc_ex.c ****   assert_param(IS_RTC_FORMAT(Format));
 458              		.loc 1 368 3 view .LVU143
 369:../../Drivers/STM32L5xx_HAL_Driver/Src/stm32l5xx_hal_rtc_ex.c **** 
 370:../../Drivers/STM32L5xx_HAL_Driver/Src/stm32l5xx_hal_rtc_ex.c ****   /* Get the TimeStamp time and date registers values */
 371:../../Drivers/STM32L5xx_HAL_Driver/Src/stm32l5xx_hal_rtc_ex.c ****   tmptime = READ_BIT(RTC->TSTR, RTC_TR_RESERVED_MASK);
 459              		.loc 1 371 3 view .LVU144
 460              		.loc 1 371 13 is_stmt 0 view .LVU145
 461 0006 1F48     		ldr	r0, .L30
 462              	.LVL25:
 463              		.loc 1 371 13 view .LVU146
 464 0008 026B     		ldr	r2, [r0, #48]
 465              	.LVL26:
 372:../../Drivers/STM32L5xx_HAL_Driver/Src/stm32l5xx_hal_rtc_ex.c ****   tmpdate = READ_BIT(RTC->TSDR, RTC_DR_RESERVED_MASK);
 466              		.loc 1 372 3 is_stmt 1 view .LVU147
 467              		.loc 1 372 13 is_stmt 0 view .LVU148
 468 000a 416B     		ldr	r1, [r0, #52]
 469              	.LVL27:
 373:../../Drivers/STM32L5xx_HAL_Driver/Src/stm32l5xx_hal_rtc_ex.c **** 
 374:../../Drivers/STM32L5xx_HAL_Driver/Src/stm32l5xx_hal_rtc_ex.c ****   /* Fill the Time structure fields with the read parameters */
 375:../../Drivers/STM32L5xx_HAL_Driver/Src/stm32l5xx_hal_rtc_ex.c ****   sTimeStamp->Hours = (uint8_t)((tmptime & (RTC_TSTR_HT | RTC_TSTR_HU)) >> RTC_TSTR_HU_Pos);
 470              		.loc 1 375 3 is_stmt 1 view .LVU149
 471              		.loc 1 375 23 is_stmt 0 view .LVU150
 472 000c C2F3054C 		ubfx	ip, r2, #16, #6
 473              		.loc 1 375 21 view .LVU151
 474 0010 84F800C0 		strb	ip, [r4]
 376:../../Drivers/STM32L5xx_HAL_Driver/Src/stm32l5xx_hal_rtc_ex.c ****   sTimeStamp->Minutes = (uint8_t)((tmptime & (RTC_TSTR_MNT | RTC_TSTR_MNU)) >> RTC_TSTR_MNU_Pos);
 475              		.loc 1 376 3 is_stmt 1 view .LVU152
 476              		.loc 1 376 25 is_stmt 0 view .LVU153
 477 0014 C2F3062C 		ubfx	ip, r2, #8, #7
 478              		.loc 1 376 23 view .LVU154
 479 0018 84F801C0 		strb	ip, [r4, #1]
 377:../../Drivers/STM32L5xx_HAL_Driver/Src/stm32l5xx_hal_rtc_ex.c ****   sTimeStamp->Seconds = (uint8_t)((tmptime & (RTC_TSTR_ST | RTC_TSTR_SU)) >> RTC_TSTR_SU_Pos);
 480              		.loc 1 377 3 is_stmt 1 view .LVU155
 481              		.loc 1 377 25 is_stmt 0 view .LVU156
 482 001c 02F07F0C 		and	ip, r2, #127
 483              		.loc 1 377 23 view .LVU157
 484 0020 84F802C0 		strb	ip, [r4, #2]
ARM GAS  C:\Users\carlos\AppData\Local\Temp\ccaMGGVT.s 			page 16


 378:../../Drivers/STM32L5xx_HAL_Driver/Src/stm32l5xx_hal_rtc_ex.c ****   sTimeStamp->TimeFormat = (uint8_t)((tmptime & (RTC_TSTR_PM)) >> RTC_TSTR_PM_Pos);
 485              		.loc 1 378 3 is_stmt 1 view .LVU158
 486              		.loc 1 378 28 is_stmt 0 view .LVU159
 487 0024 C2F38052 		ubfx	r2, r2, #22, #1
 488              	.LVL28:
 489              		.loc 1 378 26 view .LVU160
 490 0028 E270     		strb	r2, [r4, #3]
 379:../../Drivers/STM32L5xx_HAL_Driver/Src/stm32l5xx_hal_rtc_ex.c ****   sTimeStamp->SubSeconds = READ_BIT(RTC->TSSSR, RTC_TSSSR_SS);
 491              		.loc 1 379 3 is_stmt 1 view .LVU161
 492              		.loc 1 379 28 is_stmt 0 view .LVU162
 493 002a 826B     		ldr	r2, [r0, #56]
 494 002c 92B2     		uxth	r2, r2
 495              		.loc 1 379 26 view .LVU163
 496 002e 6260     		str	r2, [r4, #4]
 380:../../Drivers/STM32L5xx_HAL_Driver/Src/stm32l5xx_hal_rtc_ex.c **** 
 381:../../Drivers/STM32L5xx_HAL_Driver/Src/stm32l5xx_hal_rtc_ex.c ****   /* Fill the Date structure fields with the read parameters */
 382:../../Drivers/STM32L5xx_HAL_Driver/Src/stm32l5xx_hal_rtc_ex.c ****   sTimeStampDate->Year = 0U;
 497              		.loc 1 382 3 is_stmt 1 view .LVU164
 498              		.loc 1 382 24 is_stmt 0 view .LVU165
 499 0030 0022     		movs	r2, #0
 500 0032 EA70     		strb	r2, [r5, #3]
 383:../../Drivers/STM32L5xx_HAL_Driver/Src/stm32l5xx_hal_rtc_ex.c ****   sTimeStampDate->Month = (uint8_t)((tmpdate & (RTC_TSDR_MT | RTC_TSDR_MU)) >> RTC_TSDR_MU_Pos);
 501              		.loc 1 383 3 is_stmt 1 view .LVU166
 502              		.loc 1 383 27 is_stmt 0 view .LVU167
 503 0034 C1F30422 		ubfx	r2, r1, #8, #5
 504              		.loc 1 383 25 view .LVU168
 505 0038 6A70     		strb	r2, [r5, #1]
 384:../../Drivers/STM32L5xx_HAL_Driver/Src/stm32l5xx_hal_rtc_ex.c ****   sTimeStampDate->Date = (uint8_t)(tmpdate & (RTC_TSDR_DT | RTC_TSDR_DU));
 506              		.loc 1 384 3 is_stmt 1 view .LVU169
 507              		.loc 1 384 26 is_stmt 0 view .LVU170
 508 003a 01F03F02 		and	r2, r1, #63
 509              		.loc 1 384 24 view .LVU171
 510 003e AA70     		strb	r2, [r5, #2]
 385:../../Drivers/STM32L5xx_HAL_Driver/Src/stm32l5xx_hal_rtc_ex.c ****   sTimeStampDate->WeekDay = (uint8_t)((tmpdate & (RTC_TSDR_WDU)) >> RTC_TSDR_WDU_Pos);
 511              		.loc 1 385 3 is_stmt 1 view .LVU172
 512              		.loc 1 385 29 is_stmt 0 view .LVU173
 513 0040 C1F34231 		ubfx	r1, r1, #13, #3
 514              	.LVL29:
 515              		.loc 1 385 27 view .LVU174
 516 0044 2970     		strb	r1, [r5]
 386:../../Drivers/STM32L5xx_HAL_Driver/Src/stm32l5xx_hal_rtc_ex.c **** 
 387:../../Drivers/STM32L5xx_HAL_Driver/Src/stm32l5xx_hal_rtc_ex.c ****   /* Check the input parameters format */
 388:../../Drivers/STM32L5xx_HAL_Driver/Src/stm32l5xx_hal_rtc_ex.c ****   if (Format == RTC_FORMAT_BIN)
 517              		.loc 1 388 3 is_stmt 1 view .LVU175
 518              		.loc 1 388 6 is_stmt 0 view .LVU176
 519 0046 23B1     		cbz	r3, .L29
 520              	.LVL30:
 521              	.L27:
 389:../../Drivers/STM32L5xx_HAL_Driver/Src/stm32l5xx_hal_rtc_ex.c ****   {
 390:../../Drivers/STM32L5xx_HAL_Driver/Src/stm32l5xx_hal_rtc_ex.c ****     /* Convert the TimeStamp structure parameters to Binary format */
 391:../../Drivers/STM32L5xx_HAL_Driver/Src/stm32l5xx_hal_rtc_ex.c ****     sTimeStamp->Hours = (uint8_t)RTC_Bcd2ToByte(sTimeStamp->Hours);
 392:../../Drivers/STM32L5xx_HAL_Driver/Src/stm32l5xx_hal_rtc_ex.c ****     sTimeStamp->Minutes = (uint8_t)RTC_Bcd2ToByte(sTimeStamp->Minutes);
 393:../../Drivers/STM32L5xx_HAL_Driver/Src/stm32l5xx_hal_rtc_ex.c ****     sTimeStamp->Seconds = (uint8_t)RTC_Bcd2ToByte(sTimeStamp->Seconds);
 394:../../Drivers/STM32L5xx_HAL_Driver/Src/stm32l5xx_hal_rtc_ex.c **** 
 395:../../Drivers/STM32L5xx_HAL_Driver/Src/stm32l5xx_hal_rtc_ex.c ****     /* Convert the DateTimeStamp structure parameters to Binary format */
 396:../../Drivers/STM32L5xx_HAL_Driver/Src/stm32l5xx_hal_rtc_ex.c ****     sTimeStampDate->Month = (uint8_t)RTC_Bcd2ToByte(sTimeStampDate->Month);
 397:../../Drivers/STM32L5xx_HAL_Driver/Src/stm32l5xx_hal_rtc_ex.c ****     sTimeStampDate->Date = (uint8_t)RTC_Bcd2ToByte(sTimeStampDate->Date);
ARM GAS  C:\Users\carlos\AppData\Local\Temp\ccaMGGVT.s 			page 17


 398:../../Drivers/STM32L5xx_HAL_Driver/Src/stm32l5xx_hal_rtc_ex.c ****     sTimeStampDate->WeekDay = (uint8_t)RTC_Bcd2ToByte(sTimeStampDate->WeekDay);
 399:../../Drivers/STM32L5xx_HAL_Driver/Src/stm32l5xx_hal_rtc_ex.c ****   }
 400:../../Drivers/STM32L5xx_HAL_Driver/Src/stm32l5xx_hal_rtc_ex.c **** 
 401:../../Drivers/STM32L5xx_HAL_Driver/Src/stm32l5xx_hal_rtc_ex.c ****   /* Clear the TIMESTAMP Flags */
 402:../../Drivers/STM32L5xx_HAL_Driver/Src/stm32l5xx_hal_rtc_ex.c ****   WRITE_REG(RTC->SCR, (RTC_SCR_CITSF | RTC_SCR_CTSF));
 522              		.loc 1 402 3 is_stmt 1 view .LVU177
 523 0048 0E4B     		ldr	r3, .L30
 524 004a 2822     		movs	r2, #40
 525 004c DA65     		str	r2, [r3, #92]
 403:../../Drivers/STM32L5xx_HAL_Driver/Src/stm32l5xx_hal_rtc_ex.c **** 
 404:../../Drivers/STM32L5xx_HAL_Driver/Src/stm32l5xx_hal_rtc_ex.c ****   return HAL_OK;
 526              		.loc 1 404 3 view .LVU178
 405:../../Drivers/STM32L5xx_HAL_Driver/Src/stm32l5xx_hal_rtc_ex.c **** }
 527              		.loc 1 405 1 is_stmt 0 view .LVU179
 528 004e 0020     		movs	r0, #0
 529 0050 38BD     		pop	{r3, r4, r5, pc}
 530              	.LVL31:
 531              	.L29:
 391:../../Drivers/STM32L5xx_HAL_Driver/Src/stm32l5xx_hal_rtc_ex.c ****     sTimeStamp->Minutes = (uint8_t)RTC_Bcd2ToByte(sTimeStamp->Minutes);
 532              		.loc 1 391 5 is_stmt 1 view .LVU180
 391:../../Drivers/STM32L5xx_HAL_Driver/Src/stm32l5xx_hal_rtc_ex.c ****     sTimeStamp->Minutes = (uint8_t)RTC_Bcd2ToByte(sTimeStamp->Minutes);
 533              		.loc 1 391 34 is_stmt 0 view .LVU181
 534 0052 2078     		ldrb	r0, [r4]	@ zero_extendqisi2
 535 0054 FFF7FEFF 		bl	RTC_Bcd2ToByte
 536              	.LVL32:
 391:../../Drivers/STM32L5xx_HAL_Driver/Src/stm32l5xx_hal_rtc_ex.c ****     sTimeStamp->Minutes = (uint8_t)RTC_Bcd2ToByte(sTimeStamp->Minutes);
 537              		.loc 1 391 23 view .LVU182
 538 0058 2070     		strb	r0, [r4]
 392:../../Drivers/STM32L5xx_HAL_Driver/Src/stm32l5xx_hal_rtc_ex.c ****     sTimeStamp->Seconds = (uint8_t)RTC_Bcd2ToByte(sTimeStamp->Seconds);
 539              		.loc 1 392 5 is_stmt 1 view .LVU183
 392:../../Drivers/STM32L5xx_HAL_Driver/Src/stm32l5xx_hal_rtc_ex.c ****     sTimeStamp->Seconds = (uint8_t)RTC_Bcd2ToByte(sTimeStamp->Seconds);
 540              		.loc 1 392 36 is_stmt 0 view .LVU184
 541 005a 6078     		ldrb	r0, [r4, #1]	@ zero_extendqisi2
 542 005c FFF7FEFF 		bl	RTC_Bcd2ToByte
 543              	.LVL33:
 392:../../Drivers/STM32L5xx_HAL_Driver/Src/stm32l5xx_hal_rtc_ex.c ****     sTimeStamp->Seconds = (uint8_t)RTC_Bcd2ToByte(sTimeStamp->Seconds);
 544              		.loc 1 392 25 view .LVU185
 545 0060 6070     		strb	r0, [r4, #1]
 393:../../Drivers/STM32L5xx_HAL_Driver/Src/stm32l5xx_hal_rtc_ex.c **** 
 546              		.loc 1 393 5 is_stmt 1 view .LVU186
 393:../../Drivers/STM32L5xx_HAL_Driver/Src/stm32l5xx_hal_rtc_ex.c **** 
 547              		.loc 1 393 36 is_stmt 0 view .LVU187
 548 0062 A078     		ldrb	r0, [r4, #2]	@ zero_extendqisi2
 549 0064 FFF7FEFF 		bl	RTC_Bcd2ToByte
 550              	.LVL34:
 393:../../Drivers/STM32L5xx_HAL_Driver/Src/stm32l5xx_hal_rtc_ex.c **** 
 551              		.loc 1 393 25 view .LVU188
 552 0068 A070     		strb	r0, [r4, #2]
 396:../../Drivers/STM32L5xx_HAL_Driver/Src/stm32l5xx_hal_rtc_ex.c ****     sTimeStampDate->Date = (uint8_t)RTC_Bcd2ToByte(sTimeStampDate->Date);
 553              		.loc 1 396 5 is_stmt 1 view .LVU189
 396:../../Drivers/STM32L5xx_HAL_Driver/Src/stm32l5xx_hal_rtc_ex.c ****     sTimeStampDate->Date = (uint8_t)RTC_Bcd2ToByte(sTimeStampDate->Date);
 554              		.loc 1 396 38 is_stmt 0 view .LVU190
 555 006a 6878     		ldrb	r0, [r5, #1]	@ zero_extendqisi2
 556 006c FFF7FEFF 		bl	RTC_Bcd2ToByte
 557              	.LVL35:
 396:../../Drivers/STM32L5xx_HAL_Driver/Src/stm32l5xx_hal_rtc_ex.c ****     sTimeStampDate->Date = (uint8_t)RTC_Bcd2ToByte(sTimeStampDate->Date);
 558              		.loc 1 396 27 view .LVU191
ARM GAS  C:\Users\carlos\AppData\Local\Temp\ccaMGGVT.s 			page 18


 559 0070 6870     		strb	r0, [r5, #1]
 397:../../Drivers/STM32L5xx_HAL_Driver/Src/stm32l5xx_hal_rtc_ex.c ****     sTimeStampDate->WeekDay = (uint8_t)RTC_Bcd2ToByte(sTimeStampDate->WeekDay);
 560              		.loc 1 397 5 is_stmt 1 view .LVU192
 397:../../Drivers/STM32L5xx_HAL_Driver/Src/stm32l5xx_hal_rtc_ex.c ****     sTimeStampDate->WeekDay = (uint8_t)RTC_Bcd2ToByte(sTimeStampDate->WeekDay);
 561              		.loc 1 397 37 is_stmt 0 view .LVU193
 562 0072 A878     		ldrb	r0, [r5, #2]	@ zero_extendqisi2
 563 0074 FFF7FEFF 		bl	RTC_Bcd2ToByte
 564              	.LVL36:
 397:../../Drivers/STM32L5xx_HAL_Driver/Src/stm32l5xx_hal_rtc_ex.c ****     sTimeStampDate->WeekDay = (uint8_t)RTC_Bcd2ToByte(sTimeStampDate->WeekDay);
 565              		.loc 1 397 26 view .LVU194
 566 0078 A870     		strb	r0, [r5, #2]
 398:../../Drivers/STM32L5xx_HAL_Driver/Src/stm32l5xx_hal_rtc_ex.c ****   }
 567              		.loc 1 398 5 is_stmt 1 view .LVU195
 398:../../Drivers/STM32L5xx_HAL_Driver/Src/stm32l5xx_hal_rtc_ex.c ****   }
 568              		.loc 1 398 40 is_stmt 0 view .LVU196
 569 007a 2878     		ldrb	r0, [r5]	@ zero_extendqisi2
 570 007c FFF7FEFF 		bl	RTC_Bcd2ToByte
 571              	.LVL37:
 398:../../Drivers/STM32L5xx_HAL_Driver/Src/stm32l5xx_hal_rtc_ex.c ****   }
 572              		.loc 1 398 29 view .LVU197
 573 0080 2870     		strb	r0, [r5]
 574 0082 E1E7     		b	.L27
 575              	.L31:
 576              		.align	2
 577              	.L30:
 578 0084 00280050 		.word	1342187520
 579              		.cfi_endproc
 580              	.LFE207:
 582              		.section	.text.HAL_RTCEx_TimeStampEventCallback,"ax",%progbits
 583              		.align	1
 584              		.weak	HAL_RTCEx_TimeStampEventCallback
 585              		.syntax unified
 586              		.thumb
 587              		.thumb_func
 588              		.fpu fpv4-sp-d16
 590              	HAL_RTCEx_TimeStampEventCallback:
 591              	.LVL38:
 592              	.LFB209:
 406:../../Drivers/STM32L5xx_HAL_Driver/Src/stm32l5xx_hal_rtc_ex.c **** 
 407:../../Drivers/STM32L5xx_HAL_Driver/Src/stm32l5xx_hal_rtc_ex.c **** #if defined (__ARM_FEATURE_CMSE) && (__ARM_FEATURE_CMSE == 3U)
 408:../../Drivers/STM32L5xx_HAL_Driver/Src/stm32l5xx_hal_rtc_ex.c **** /**
 409:../../Drivers/STM32L5xx_HAL_Driver/Src/stm32l5xx_hal_rtc_ex.c ****   * @brief  Handle TimeStamp secure interrupt request.
 410:../../Drivers/STM32L5xx_HAL_Driver/Src/stm32l5xx_hal_rtc_ex.c ****   * @param  hrtc RTC handle
 411:../../Drivers/STM32L5xx_HAL_Driver/Src/stm32l5xx_hal_rtc_ex.c ****   * @retval None
 412:../../Drivers/STM32L5xx_HAL_Driver/Src/stm32l5xx_hal_rtc_ex.c ****   */
 413:../../Drivers/STM32L5xx_HAL_Driver/Src/stm32l5xx_hal_rtc_ex.c **** void HAL_RTCEx_TimeStampIRQHandler(RTC_HandleTypeDef *hrtc)
 414:../../Drivers/STM32L5xx_HAL_Driver/Src/stm32l5xx_hal_rtc_ex.c **** {
 415:../../Drivers/STM32L5xx_HAL_Driver/Src/stm32l5xx_hal_rtc_ex.c ****   if (READ_BIT(RTC->SMISR, RTC_SMISR_TSMF) != 0U)
 416:../../Drivers/STM32L5xx_HAL_Driver/Src/stm32l5xx_hal_rtc_ex.c ****   {
 417:../../Drivers/STM32L5xx_HAL_Driver/Src/stm32l5xx_hal_rtc_ex.c **** #if (USE_HAL_RTC_REGISTER_CALLBACKS == 1)
 418:../../Drivers/STM32L5xx_HAL_Driver/Src/stm32l5xx_hal_rtc_ex.c ****     /* Call TimeStampEvent registered Callback */
 419:../../Drivers/STM32L5xx_HAL_Driver/Src/stm32l5xx_hal_rtc_ex.c ****     hrtc->TimeStampEventCallback(hrtc);
 420:../../Drivers/STM32L5xx_HAL_Driver/Src/stm32l5xx_hal_rtc_ex.c **** #else
 421:../../Drivers/STM32L5xx_HAL_Driver/Src/stm32l5xx_hal_rtc_ex.c ****     HAL_RTCEx_TimeStampEventCallback(hrtc);
 422:../../Drivers/STM32L5xx_HAL_Driver/Src/stm32l5xx_hal_rtc_ex.c **** #endif
 423:../../Drivers/STM32L5xx_HAL_Driver/Src/stm32l5xx_hal_rtc_ex.c ****     /* Clearing flags after the Callback because the content of RTC_TSTR and RTC_TSDR are cleared w
 424:../../Drivers/STM32L5xx_HAL_Driver/Src/stm32l5xx_hal_rtc_ex.c ****     WRITE_REG(RTC->SCR, RTC_SCR_CITSF | RTC_SCR_CTSF);
ARM GAS  C:\Users\carlos\AppData\Local\Temp\ccaMGGVT.s 			page 19


 425:../../Drivers/STM32L5xx_HAL_Driver/Src/stm32l5xx_hal_rtc_ex.c ****   }
 426:../../Drivers/STM32L5xx_HAL_Driver/Src/stm32l5xx_hal_rtc_ex.c **** 
 427:../../Drivers/STM32L5xx_HAL_Driver/Src/stm32l5xx_hal_rtc_ex.c ****   /* Change RTC state */
 428:../../Drivers/STM32L5xx_HAL_Driver/Src/stm32l5xx_hal_rtc_ex.c ****   hrtc->State = HAL_RTC_STATE_READY;
 429:../../Drivers/STM32L5xx_HAL_Driver/Src/stm32l5xx_hal_rtc_ex.c **** }
 430:../../Drivers/STM32L5xx_HAL_Driver/Src/stm32l5xx_hal_rtc_ex.c **** 
 431:../../Drivers/STM32L5xx_HAL_Driver/Src/stm32l5xx_hal_rtc_ex.c **** #else /* #if defined (__ARM_FEATURE_CMSE) && (__ARM_FEATURE_CMSE == 3U) */
 432:../../Drivers/STM32L5xx_HAL_Driver/Src/stm32l5xx_hal_rtc_ex.c **** 
 433:../../Drivers/STM32L5xx_HAL_Driver/Src/stm32l5xx_hal_rtc_ex.c **** /**
 434:../../Drivers/STM32L5xx_HAL_Driver/Src/stm32l5xx_hal_rtc_ex.c ****   * @brief  Handle TimeStamp non-secure interrupt request.
 435:../../Drivers/STM32L5xx_HAL_Driver/Src/stm32l5xx_hal_rtc_ex.c ****   * @param  hrtc RTC handle
 436:../../Drivers/STM32L5xx_HAL_Driver/Src/stm32l5xx_hal_rtc_ex.c ****   * @retval None
 437:../../Drivers/STM32L5xx_HAL_Driver/Src/stm32l5xx_hal_rtc_ex.c ****   */
 438:../../Drivers/STM32L5xx_HAL_Driver/Src/stm32l5xx_hal_rtc_ex.c **** void HAL_RTCEx_TimeStampIRQHandler(RTC_HandleTypeDef *hrtc)
 439:../../Drivers/STM32L5xx_HAL_Driver/Src/stm32l5xx_hal_rtc_ex.c **** {
 440:../../Drivers/STM32L5xx_HAL_Driver/Src/stm32l5xx_hal_rtc_ex.c ****   if (READ_BIT(RTC->MISR, RTC_MISR_TSMF) != 0U)
 441:../../Drivers/STM32L5xx_HAL_Driver/Src/stm32l5xx_hal_rtc_ex.c ****   {
 442:../../Drivers/STM32L5xx_HAL_Driver/Src/stm32l5xx_hal_rtc_ex.c **** #if (USE_HAL_RTC_REGISTER_CALLBACKS == 1)
 443:../../Drivers/STM32L5xx_HAL_Driver/Src/stm32l5xx_hal_rtc_ex.c ****     /* Call TimeStampEvent registered Callback */
 444:../../Drivers/STM32L5xx_HAL_Driver/Src/stm32l5xx_hal_rtc_ex.c ****     hrtc->TimeStampEventCallback(hrtc);
 445:../../Drivers/STM32L5xx_HAL_Driver/Src/stm32l5xx_hal_rtc_ex.c **** #else
 446:../../Drivers/STM32L5xx_HAL_Driver/Src/stm32l5xx_hal_rtc_ex.c ****     HAL_RTCEx_TimeStampEventCallback(hrtc);
 447:../../Drivers/STM32L5xx_HAL_Driver/Src/stm32l5xx_hal_rtc_ex.c **** #endif
 448:../../Drivers/STM32L5xx_HAL_Driver/Src/stm32l5xx_hal_rtc_ex.c ****     /* Clearing flags after the Callback because the content of RTC_TSTR and RTC_TSDR are cleared w
 449:../../Drivers/STM32L5xx_HAL_Driver/Src/stm32l5xx_hal_rtc_ex.c ****     WRITE_REG(RTC->SCR, RTC_SCR_CITSF | RTC_SCR_CTSF);
 450:../../Drivers/STM32L5xx_HAL_Driver/Src/stm32l5xx_hal_rtc_ex.c ****   }
 451:../../Drivers/STM32L5xx_HAL_Driver/Src/stm32l5xx_hal_rtc_ex.c **** 
 452:../../Drivers/STM32L5xx_HAL_Driver/Src/stm32l5xx_hal_rtc_ex.c ****   /* Change RTC state */
 453:../../Drivers/STM32L5xx_HAL_Driver/Src/stm32l5xx_hal_rtc_ex.c ****   hrtc->State = HAL_RTC_STATE_READY;
 454:../../Drivers/STM32L5xx_HAL_Driver/Src/stm32l5xx_hal_rtc_ex.c **** }
 455:../../Drivers/STM32L5xx_HAL_Driver/Src/stm32l5xx_hal_rtc_ex.c **** #endif /* #if defined (__ARM_FEATURE_CMSE) && (__ARM_FEATURE_CMSE == 3U) */
 456:../../Drivers/STM32L5xx_HAL_Driver/Src/stm32l5xx_hal_rtc_ex.c **** 
 457:../../Drivers/STM32L5xx_HAL_Driver/Src/stm32l5xx_hal_rtc_ex.c **** /**
 458:../../Drivers/STM32L5xx_HAL_Driver/Src/stm32l5xx_hal_rtc_ex.c ****   * @brief  TimeStamp callback.
 459:../../Drivers/STM32L5xx_HAL_Driver/Src/stm32l5xx_hal_rtc_ex.c ****   * @param  hrtc RTC handle
 460:../../Drivers/STM32L5xx_HAL_Driver/Src/stm32l5xx_hal_rtc_ex.c ****   * @retval None
 461:../../Drivers/STM32L5xx_HAL_Driver/Src/stm32l5xx_hal_rtc_ex.c ****   */
 462:../../Drivers/STM32L5xx_HAL_Driver/Src/stm32l5xx_hal_rtc_ex.c **** __weak void HAL_RTCEx_TimeStampEventCallback(RTC_HandleTypeDef *hrtc)
 463:../../Drivers/STM32L5xx_HAL_Driver/Src/stm32l5xx_hal_rtc_ex.c **** {
 593              		.loc 1 463 1 is_stmt 1 view -0
 594              		.cfi_startproc
 595              		@ args = 0, pretend = 0, frame = 0
 596              		@ frame_needed = 0, uses_anonymous_args = 0
 597              		@ link register save eliminated.
 464:../../Drivers/STM32L5xx_HAL_Driver/Src/stm32l5xx_hal_rtc_ex.c ****   /* Prevent unused argument(s) compilation warning */
 465:../../Drivers/STM32L5xx_HAL_Driver/Src/stm32l5xx_hal_rtc_ex.c ****   UNUSED(hrtc);
 598              		.loc 1 465 3 view .LVU199
 466:../../Drivers/STM32L5xx_HAL_Driver/Src/stm32l5xx_hal_rtc_ex.c **** 
 467:../../Drivers/STM32L5xx_HAL_Driver/Src/stm32l5xx_hal_rtc_ex.c ****   /* NOTE : This function should not be modified, when the callback is needed,
 468:../../Drivers/STM32L5xx_HAL_Driver/Src/stm32l5xx_hal_rtc_ex.c ****             the HAL_RTCEx_TimeStampEventCallback could be implemented in the user file
 469:../../Drivers/STM32L5xx_HAL_Driver/Src/stm32l5xx_hal_rtc_ex.c ****   */
 470:../../Drivers/STM32L5xx_HAL_Driver/Src/stm32l5xx_hal_rtc_ex.c **** }
 599              		.loc 1 470 1 is_stmt 0 view .LVU200
 600 0000 7047     		bx	lr
 601              		.cfi_endproc
 602              	.LFE209:
 604              		.section	.text.HAL_RTCEx_TimeStampIRQHandler,"ax",%progbits
ARM GAS  C:\Users\carlos\AppData\Local\Temp\ccaMGGVT.s 			page 20


 605              		.align	1
 606              		.global	HAL_RTCEx_TimeStampIRQHandler
 607              		.syntax unified
 608              		.thumb
 609              		.thumb_func
 610              		.fpu fpv4-sp-d16
 612              	HAL_RTCEx_TimeStampIRQHandler:
 613              	.LVL39:
 614              	.LFB208:
 414:../../Drivers/STM32L5xx_HAL_Driver/Src/stm32l5xx_hal_rtc_ex.c ****   if (READ_BIT(RTC->SMISR, RTC_SMISR_TSMF) != 0U)
 615              		.loc 1 414 1 is_stmt 1 view -0
 616              		.cfi_startproc
 617              		@ args = 0, pretend = 0, frame = 0
 618              		@ frame_needed = 0, uses_anonymous_args = 0
 414:../../Drivers/STM32L5xx_HAL_Driver/Src/stm32l5xx_hal_rtc_ex.c ****   if (READ_BIT(RTC->SMISR, RTC_SMISR_TSMF) != 0U)
 619              		.loc 1 414 1 is_stmt 0 view .LVU202
 620 0000 10B5     		push	{r4, lr}
 621              	.LCFI1:
 622              		.cfi_def_cfa_offset 8
 623              		.cfi_offset 4, -8
 624              		.cfi_offset 14, -4
 625 0002 0446     		mov	r4, r0
 415:../../Drivers/STM32L5xx_HAL_Driver/Src/stm32l5xx_hal_rtc_ex.c ****   {
 626              		.loc 1 415 3 is_stmt 1 view .LVU203
 415:../../Drivers/STM32L5xx_HAL_Driver/Src/stm32l5xx_hal_rtc_ex.c ****   {
 627              		.loc 1 415 7 is_stmt 0 view .LVU204
 628 0004 074B     		ldr	r3, .L37
 629 0006 9B6D     		ldr	r3, [r3, #88]
 415:../../Drivers/STM32L5xx_HAL_Driver/Src/stm32l5xx_hal_rtc_ex.c ****   {
 630              		.loc 1 415 6 view .LVU205
 631 0008 13F0080F 		tst	r3, #8
 632 000c 03D1     		bne	.L36
 633              	.LVL40:
 634              	.L34:
 428:../../Drivers/STM32L5xx_HAL_Driver/Src/stm32l5xx_hal_rtc_ex.c **** }
 635              		.loc 1 428 3 is_stmt 1 view .LVU206
 428:../../Drivers/STM32L5xx_HAL_Driver/Src/stm32l5xx_hal_rtc_ex.c **** }
 636              		.loc 1 428 15 is_stmt 0 view .LVU207
 637 000e 0123     		movs	r3, #1
 638 0010 84F82530 		strb	r3, [r4, #37]
 429:../../Drivers/STM32L5xx_HAL_Driver/Src/stm32l5xx_hal_rtc_ex.c **** 
 639              		.loc 1 429 1 view .LVU208
 640 0014 10BD     		pop	{r4, pc}
 641              	.LVL41:
 642              	.L36:
 421:../../Drivers/STM32L5xx_HAL_Driver/Src/stm32l5xx_hal_rtc_ex.c **** #endif
 643              		.loc 1 421 5 is_stmt 1 view .LVU209
 644 0016 FFF7FEFF 		bl	HAL_RTCEx_TimeStampEventCallback
 645              	.LVL42:
 424:../../Drivers/STM32L5xx_HAL_Driver/Src/stm32l5xx_hal_rtc_ex.c ****   }
 646              		.loc 1 424 5 view .LVU210
 647 001a 024B     		ldr	r3, .L37
 648 001c 2822     		movs	r2, #40
 649 001e DA65     		str	r2, [r3, #92]
 650 0020 F5E7     		b	.L34
 651              	.L38:
 652 0022 00BF     		.align	2
ARM GAS  C:\Users\carlos\AppData\Local\Temp\ccaMGGVT.s 			page 21


 653              	.L37:
 654 0024 00280050 		.word	1342187520
 655              		.cfi_endproc
 656              	.LFE208:
 658              		.section	.text.HAL_RTCEx_PollForTimeStampEvent,"ax",%progbits
 659              		.align	1
 660              		.global	HAL_RTCEx_PollForTimeStampEvent
 661              		.syntax unified
 662              		.thumb
 663              		.thumb_func
 664              		.fpu fpv4-sp-d16
 666              	HAL_RTCEx_PollForTimeStampEvent:
 667              	.LVL43:
 668              	.LFB210:
 471:../../Drivers/STM32L5xx_HAL_Driver/Src/stm32l5xx_hal_rtc_ex.c **** 
 472:../../Drivers/STM32L5xx_HAL_Driver/Src/stm32l5xx_hal_rtc_ex.c **** /**
 473:../../Drivers/STM32L5xx_HAL_Driver/Src/stm32l5xx_hal_rtc_ex.c ****   * @brief  Handle TimeStamp polling request.
 474:../../Drivers/STM32L5xx_HAL_Driver/Src/stm32l5xx_hal_rtc_ex.c ****   * @param  hrtc RTC handle
 475:../../Drivers/STM32L5xx_HAL_Driver/Src/stm32l5xx_hal_rtc_ex.c ****   * @param  Timeout Timeout duration
 476:../../Drivers/STM32L5xx_HAL_Driver/Src/stm32l5xx_hal_rtc_ex.c ****   * @retval HAL status
 477:../../Drivers/STM32L5xx_HAL_Driver/Src/stm32l5xx_hal_rtc_ex.c ****   */
 478:../../Drivers/STM32L5xx_HAL_Driver/Src/stm32l5xx_hal_rtc_ex.c **** HAL_StatusTypeDef HAL_RTCEx_PollForTimeStampEvent(RTC_HandleTypeDef *hrtc, uint32_t Timeout)
 479:../../Drivers/STM32L5xx_HAL_Driver/Src/stm32l5xx_hal_rtc_ex.c **** {
 669              		.loc 1 479 1 view -0
 670              		.cfi_startproc
 671              		@ args = 0, pretend = 0, frame = 0
 672              		@ frame_needed = 0, uses_anonymous_args = 0
 673              		.loc 1 479 1 is_stmt 0 view .LVU212
 674 0000 70B5     		push	{r4, r5, r6, lr}
 675              	.LCFI2:
 676              		.cfi_def_cfa_offset 16
 677              		.cfi_offset 4, -16
 678              		.cfi_offset 5, -12
 679              		.cfi_offset 6, -8
 680              		.cfi_offset 14, -4
 681 0002 0546     		mov	r5, r0
 682 0004 0C46     		mov	r4, r1
 480:../../Drivers/STM32L5xx_HAL_Driver/Src/stm32l5xx_hal_rtc_ex.c ****   uint32_t tickstart = HAL_GetTick();
 683              		.loc 1 480 3 is_stmt 1 view .LVU213
 684              		.loc 1 480 24 is_stmt 0 view .LVU214
 685 0006 FFF7FEFF 		bl	HAL_GetTick
 686              	.LVL44:
 687              		.loc 1 480 24 view .LVU215
 688 000a 0646     		mov	r6, r0
 689              	.LVL45:
 481:../../Drivers/STM32L5xx_HAL_Driver/Src/stm32l5xx_hal_rtc_ex.c **** 
 482:../../Drivers/STM32L5xx_HAL_Driver/Src/stm32l5xx_hal_rtc_ex.c ****   while (READ_BIT(RTC->SR, RTC_SR_TSF) == 0U)
 690              		.loc 1 482 3 is_stmt 1 view .LVU216
 691              	.L43:
 692              		.loc 1 482 9 view .LVU217
 693              		.loc 1 482 10 is_stmt 0 view .LVU218
 694 000c 124B     		ldr	r3, .L49
 695 000e 1B6D     		ldr	r3, [r3, #80]
 696              		.loc 1 482 9 view .LVU219
 697 0010 13F0080F 		tst	r3, #8
 698 0014 1AD1     		bne	.L47
 483:../../Drivers/STM32L5xx_HAL_Driver/Src/stm32l5xx_hal_rtc_ex.c ****   {
ARM GAS  C:\Users\carlos\AppData\Local\Temp\ccaMGGVT.s 			page 22


 484:../../Drivers/STM32L5xx_HAL_Driver/Src/stm32l5xx_hal_rtc_ex.c ****     if (READ_BIT(RTC->SR, RTC_SR_TSOVF) != 0U)
 699              		.loc 1 484 5 is_stmt 1 view .LVU220
 700              		.loc 1 484 9 is_stmt 0 view .LVU221
 701 0016 104B     		ldr	r3, .L49
 702 0018 1B6D     		ldr	r3, [r3, #80]
 703              		.loc 1 484 8 view .LVU222
 704 001a 13F0100F 		tst	r3, #16
 705 001e 0DD1     		bne	.L48
 485:../../Drivers/STM32L5xx_HAL_Driver/Src/stm32l5xx_hal_rtc_ex.c ****     {
 486:../../Drivers/STM32L5xx_HAL_Driver/Src/stm32l5xx_hal_rtc_ex.c ****       /* Clear the TIMESTAMP OverRun Flag */
 487:../../Drivers/STM32L5xx_HAL_Driver/Src/stm32l5xx_hal_rtc_ex.c ****       WRITE_REG(RTC->SCR, RTC_SCR_CTSOVF);
 488:../../Drivers/STM32L5xx_HAL_Driver/Src/stm32l5xx_hal_rtc_ex.c **** 
 489:../../Drivers/STM32L5xx_HAL_Driver/Src/stm32l5xx_hal_rtc_ex.c ****       /* Change TIMESTAMP state */
 490:../../Drivers/STM32L5xx_HAL_Driver/Src/stm32l5xx_hal_rtc_ex.c ****       hrtc->State = HAL_RTC_STATE_ERROR;
 491:../../Drivers/STM32L5xx_HAL_Driver/Src/stm32l5xx_hal_rtc_ex.c **** 
 492:../../Drivers/STM32L5xx_HAL_Driver/Src/stm32l5xx_hal_rtc_ex.c ****       return HAL_ERROR;
 493:../../Drivers/STM32L5xx_HAL_Driver/Src/stm32l5xx_hal_rtc_ex.c ****     }
 494:../../Drivers/STM32L5xx_HAL_Driver/Src/stm32l5xx_hal_rtc_ex.c **** 
 495:../../Drivers/STM32L5xx_HAL_Driver/Src/stm32l5xx_hal_rtc_ex.c ****     if (Timeout != HAL_MAX_DELAY)
 706              		.loc 1 495 5 is_stmt 1 view .LVU223
 707              		.loc 1 495 8 is_stmt 0 view .LVU224
 708 0020 B4F1FF3F 		cmp	r4, #-1
 709 0024 F2D0     		beq	.L43
 496:../../Drivers/STM32L5xx_HAL_Driver/Src/stm32l5xx_hal_rtc_ex.c ****     {
 497:../../Drivers/STM32L5xx_HAL_Driver/Src/stm32l5xx_hal_rtc_ex.c ****       if (((HAL_GetTick() - tickstart) > Timeout) || (Timeout == 0U))
 710              		.loc 1 497 7 is_stmt 1 view .LVU225
 711              		.loc 1 497 13 is_stmt 0 view .LVU226
 712 0026 FFF7FEFF 		bl	HAL_GetTick
 713              	.LVL46:
 714              		.loc 1 497 27 view .LVU227
 715 002a 801B     		subs	r0, r0, r6
 716              		.loc 1 497 10 view .LVU228
 717 002c A042     		cmp	r0, r4
 718 002e 01D8     		bhi	.L44
 719              		.loc 1 497 51 discriminator 1 view .LVU229
 720 0030 002C     		cmp	r4, #0
 721 0032 EBD1     		bne	.L43
 722              	.L44:
 498:../../Drivers/STM32L5xx_HAL_Driver/Src/stm32l5xx_hal_rtc_ex.c ****       {
 499:../../Drivers/STM32L5xx_HAL_Driver/Src/stm32l5xx_hal_rtc_ex.c ****         hrtc->State = HAL_RTC_STATE_TIMEOUT;
 723              		.loc 1 499 9 is_stmt 1 view .LVU230
 724              		.loc 1 499 21 is_stmt 0 view .LVU231
 725 0034 0320     		movs	r0, #3
 726 0036 85F82500 		strb	r0, [r5, #37]
 500:../../Drivers/STM32L5xx_HAL_Driver/Src/stm32l5xx_hal_rtc_ex.c ****         return HAL_TIMEOUT;
 727              		.loc 1 500 9 is_stmt 1 view .LVU232
 728              		.loc 1 500 16 is_stmt 0 view .LVU233
 729 003a 0BE0     		b	.L42
 730              	.L48:
 487:../../Drivers/STM32L5xx_HAL_Driver/Src/stm32l5xx_hal_rtc_ex.c **** 
 731              		.loc 1 487 7 is_stmt 1 view .LVU234
 732 003c 064B     		ldr	r3, .L49
 733 003e 1022     		movs	r2, #16
 734 0040 DA65     		str	r2, [r3, #92]
 490:../../Drivers/STM32L5xx_HAL_Driver/Src/stm32l5xx_hal_rtc_ex.c **** 
 735              		.loc 1 490 7 view .LVU235
 490:../../Drivers/STM32L5xx_HAL_Driver/Src/stm32l5xx_hal_rtc_ex.c **** 
ARM GAS  C:\Users\carlos\AppData\Local\Temp\ccaMGGVT.s 			page 23


 736              		.loc 1 490 19 is_stmt 0 view .LVU236
 737 0042 0423     		movs	r3, #4
 738 0044 85F82530 		strb	r3, [r5, #37]
 492:../../Drivers/STM32L5xx_HAL_Driver/Src/stm32l5xx_hal_rtc_ex.c ****     }
 739              		.loc 1 492 7 is_stmt 1 view .LVU237
 492:../../Drivers/STM32L5xx_HAL_Driver/Src/stm32l5xx_hal_rtc_ex.c ****     }
 740              		.loc 1 492 14 is_stmt 0 view .LVU238
 741 0048 0120     		movs	r0, #1
 742 004a 03E0     		b	.L42
 743              	.L47:
 501:../../Drivers/STM32L5xx_HAL_Driver/Src/stm32l5xx_hal_rtc_ex.c ****       }
 502:../../Drivers/STM32L5xx_HAL_Driver/Src/stm32l5xx_hal_rtc_ex.c ****     }
 503:../../Drivers/STM32L5xx_HAL_Driver/Src/stm32l5xx_hal_rtc_ex.c ****   }
 504:../../Drivers/STM32L5xx_HAL_Driver/Src/stm32l5xx_hal_rtc_ex.c **** 
 505:../../Drivers/STM32L5xx_HAL_Driver/Src/stm32l5xx_hal_rtc_ex.c ****   /* Change RTC state */
 506:../../Drivers/STM32L5xx_HAL_Driver/Src/stm32l5xx_hal_rtc_ex.c ****   hrtc->State = HAL_RTC_STATE_READY;
 744              		.loc 1 506 3 is_stmt 1 view .LVU239
 745              		.loc 1 506 15 is_stmt 0 view .LVU240
 746 004c 0123     		movs	r3, #1
 747 004e 85F82530 		strb	r3, [r5, #37]
 507:../../Drivers/STM32L5xx_HAL_Driver/Src/stm32l5xx_hal_rtc_ex.c **** 
 508:../../Drivers/STM32L5xx_HAL_Driver/Src/stm32l5xx_hal_rtc_ex.c ****   return HAL_OK;
 748              		.loc 1 508 3 is_stmt 1 view .LVU241
 749              		.loc 1 508 10 is_stmt 0 view .LVU242
 750 0052 0020     		movs	r0, #0
 751              	.L42:
 509:../../Drivers/STM32L5xx_HAL_Driver/Src/stm32l5xx_hal_rtc_ex.c **** }
 752              		.loc 1 509 1 view .LVU243
 753 0054 70BD     		pop	{r4, r5, r6, pc}
 754              	.LVL47:
 755              	.L50:
 756              		.loc 1 509 1 view .LVU244
 757 0056 00BF     		.align	2
 758              	.L49:
 759 0058 00280050 		.word	1342187520
 760              		.cfi_endproc
 761              	.LFE210:
 763              		.section	.text.HAL_RTCEx_SetWakeUpTimer,"ax",%progbits
 764              		.align	1
 765              		.global	HAL_RTCEx_SetWakeUpTimer
 766              		.syntax unified
 767              		.thumb
 768              		.thumb_func
 769              		.fpu fpv4-sp-d16
 771              	HAL_RTCEx_SetWakeUpTimer:
 772              	.LVL48:
 773              	.LFB211:
 510:../../Drivers/STM32L5xx_HAL_Driver/Src/stm32l5xx_hal_rtc_ex.c **** 
 511:../../Drivers/STM32L5xx_HAL_Driver/Src/stm32l5xx_hal_rtc_ex.c **** /**
 512:../../Drivers/STM32L5xx_HAL_Driver/Src/stm32l5xx_hal_rtc_ex.c ****   * @}
 513:../../Drivers/STM32L5xx_HAL_Driver/Src/stm32l5xx_hal_rtc_ex.c ****   */
 514:../../Drivers/STM32L5xx_HAL_Driver/Src/stm32l5xx_hal_rtc_ex.c **** 
 515:../../Drivers/STM32L5xx_HAL_Driver/Src/stm32l5xx_hal_rtc_ex.c **** /** @addtogroup RTCEx_Exported_Functions_Group2
 516:../../Drivers/STM32L5xx_HAL_Driver/Src/stm32l5xx_hal_rtc_ex.c ****   * @brief    RTC Wake-up functions
 517:../../Drivers/STM32L5xx_HAL_Driver/Src/stm32l5xx_hal_rtc_ex.c ****   *
 518:../../Drivers/STM32L5xx_HAL_Driver/Src/stm32l5xx_hal_rtc_ex.c **** @verbatim
 519:../../Drivers/STM32L5xx_HAL_Driver/Src/stm32l5xx_hal_rtc_ex.c ****  ===============================================================================
ARM GAS  C:\Users\carlos\AppData\Local\Temp\ccaMGGVT.s 			page 24


 520:../../Drivers/STM32L5xx_HAL_Driver/Src/stm32l5xx_hal_rtc_ex.c ****                         ##### RTC Wake-up functions #####
 521:../../Drivers/STM32L5xx_HAL_Driver/Src/stm32l5xx_hal_rtc_ex.c ****  ===============================================================================
 522:../../Drivers/STM32L5xx_HAL_Driver/Src/stm32l5xx_hal_rtc_ex.c **** 
 523:../../Drivers/STM32L5xx_HAL_Driver/Src/stm32l5xx_hal_rtc_ex.c ****  [..] This section provides functions allowing to configure Wake-up feature
 524:../../Drivers/STM32L5xx_HAL_Driver/Src/stm32l5xx_hal_rtc_ex.c **** 
 525:../../Drivers/STM32L5xx_HAL_Driver/Src/stm32l5xx_hal_rtc_ex.c **** @endverbatim
 526:../../Drivers/STM32L5xx_HAL_Driver/Src/stm32l5xx_hal_rtc_ex.c ****   * @{
 527:../../Drivers/STM32L5xx_HAL_Driver/Src/stm32l5xx_hal_rtc_ex.c ****   */
 528:../../Drivers/STM32L5xx_HAL_Driver/Src/stm32l5xx_hal_rtc_ex.c **** 
 529:../../Drivers/STM32L5xx_HAL_Driver/Src/stm32l5xx_hal_rtc_ex.c **** /**
 530:../../Drivers/STM32L5xx_HAL_Driver/Src/stm32l5xx_hal_rtc_ex.c ****   * @brief  Set wake up timer.
 531:../../Drivers/STM32L5xx_HAL_Driver/Src/stm32l5xx_hal_rtc_ex.c ****   * @param  hrtc RTC handle
 532:../../Drivers/STM32L5xx_HAL_Driver/Src/stm32l5xx_hal_rtc_ex.c ****   * @param  WakeUpCounter Wake up counter
 533:../../Drivers/STM32L5xx_HAL_Driver/Src/stm32l5xx_hal_rtc_ex.c ****   * @param  WakeUpClock Wake up clock
 534:../../Drivers/STM32L5xx_HAL_Driver/Src/stm32l5xx_hal_rtc_ex.c ****   * @retval HAL status
 535:../../Drivers/STM32L5xx_HAL_Driver/Src/stm32l5xx_hal_rtc_ex.c ****   */
 536:../../Drivers/STM32L5xx_HAL_Driver/Src/stm32l5xx_hal_rtc_ex.c **** HAL_StatusTypeDef HAL_RTCEx_SetWakeUpTimer(RTC_HandleTypeDef *hrtc, uint32_t WakeUpCounter, uint32_
 537:../../Drivers/STM32L5xx_HAL_Driver/Src/stm32l5xx_hal_rtc_ex.c **** {
 774              		.loc 1 537 1 is_stmt 1 view -0
 775              		.cfi_startproc
 776              		@ args = 0, pretend = 0, frame = 0
 777              		@ frame_needed = 0, uses_anonymous_args = 0
 778              		.loc 1 537 1 is_stmt 0 view .LVU246
 779 0000 F8B5     		push	{r3, r4, r5, r6, r7, lr}
 780              	.LCFI3:
 781              		.cfi_def_cfa_offset 24
 782              		.cfi_offset 3, -24
 783              		.cfi_offset 4, -20
 784              		.cfi_offset 5, -16
 785              		.cfi_offset 6, -12
 786              		.cfi_offset 7, -8
 787              		.cfi_offset 14, -4
 538:../../Drivers/STM32L5xx_HAL_Driver/Src/stm32l5xx_hal_rtc_ex.c ****   uint32_t tickstart;
 788              		.loc 1 538 3 is_stmt 1 view .LVU247
 539:../../Drivers/STM32L5xx_HAL_Driver/Src/stm32l5xx_hal_rtc_ex.c **** 
 540:../../Drivers/STM32L5xx_HAL_Driver/Src/stm32l5xx_hal_rtc_ex.c ****   /* Check the parameters */
 541:../../Drivers/STM32L5xx_HAL_Driver/Src/stm32l5xx_hal_rtc_ex.c ****   assert_param(IS_RTC_WAKEUP_CLOCK(WakeUpClock));
 789              		.loc 1 541 3 view .LVU248
 542:../../Drivers/STM32L5xx_HAL_Driver/Src/stm32l5xx_hal_rtc_ex.c ****   assert_param(IS_RTC_WAKEUP_COUNTER(WakeUpCounter));
 790              		.loc 1 542 3 view .LVU249
 543:../../Drivers/STM32L5xx_HAL_Driver/Src/stm32l5xx_hal_rtc_ex.c **** 
 544:../../Drivers/STM32L5xx_HAL_Driver/Src/stm32l5xx_hal_rtc_ex.c ****   /* Process Locked */
 545:../../Drivers/STM32L5xx_HAL_Driver/Src/stm32l5xx_hal_rtc_ex.c ****   __HAL_LOCK(hrtc);
 791              		.loc 1 545 3 view .LVU250
 792              		.loc 1 545 3 view .LVU251
 793 0002 90F82430 		ldrb	r3, [r0, #36]	@ zero_extendqisi2
 794 0006 012B     		cmp	r3, #1
 795 0008 41D0     		beq	.L56
 796 000a 0446     		mov	r4, r0
 797 000c 0D46     		mov	r5, r1
 798 000e 1646     		mov	r6, r2
 799              		.loc 1 545 3 discriminator 2 view .LVU252
 800 0010 0123     		movs	r3, #1
 801 0012 80F82430 		strb	r3, [r0, #36]
 802              		.loc 1 545 3 discriminator 2 view .LVU253
 546:../../Drivers/STM32L5xx_HAL_Driver/Src/stm32l5xx_hal_rtc_ex.c **** 
 547:../../Drivers/STM32L5xx_HAL_Driver/Src/stm32l5xx_hal_rtc_ex.c ****   hrtc->State = HAL_RTC_STATE_BUSY;
ARM GAS  C:\Users\carlos\AppData\Local\Temp\ccaMGGVT.s 			page 25


 803              		.loc 1 547 3 discriminator 2 view .LVU254
 804              		.loc 1 547 15 is_stmt 0 discriminator 2 view .LVU255
 805 0016 0223     		movs	r3, #2
 806 0018 80F82530 		strb	r3, [r0, #37]
 548:../../Drivers/STM32L5xx_HAL_Driver/Src/stm32l5xx_hal_rtc_ex.c **** 
 549:../../Drivers/STM32L5xx_HAL_Driver/Src/stm32l5xx_hal_rtc_ex.c ****   /* Disable the write protection for RTC registers */
 550:../../Drivers/STM32L5xx_HAL_Driver/Src/stm32l5xx_hal_rtc_ex.c ****   __HAL_RTC_WRITEPROTECTION_DISABLE(hrtc);
 807              		.loc 1 550 3 is_stmt 1 discriminator 2 view .LVU256
 808              		.loc 1 550 3 discriminator 2 view .LVU257
 809 001c 1D4B     		ldr	r3, .L59
 810 001e CA22     		movs	r2, #202
 811              	.LVL49:
 812              		.loc 1 550 3 is_stmt 0 discriminator 2 view .LVU258
 813 0020 5A62     		str	r2, [r3, #36]
 814              		.loc 1 550 3 is_stmt 1 discriminator 2 view .LVU259
 815 0022 5322     		movs	r2, #83
 816 0024 5A62     		str	r2, [r3, #36]
 817              		.loc 1 550 3 discriminator 2 view .LVU260
 551:../../Drivers/STM32L5xx_HAL_Driver/Src/stm32l5xx_hal_rtc_ex.c **** 
 552:../../Drivers/STM32L5xx_HAL_Driver/Src/stm32l5xx_hal_rtc_ex.c ****   /* Clear WUTE in RTC_CR to disable the wakeup timer */
 553:../../Drivers/STM32L5xx_HAL_Driver/Src/stm32l5xx_hal_rtc_ex.c ****   CLEAR_BIT(RTC->CR, RTC_CR_WUTE);
 818              		.loc 1 553 3 discriminator 2 view .LVU261
 819 0026 9A69     		ldr	r2, [r3, #24]
 820 0028 22F48062 		bic	r2, r2, #1024
 821 002c 9A61     		str	r2, [r3, #24]
 554:../../Drivers/STM32L5xx_HAL_Driver/Src/stm32l5xx_hal_rtc_ex.c **** 
 555:../../Drivers/STM32L5xx_HAL_Driver/Src/stm32l5xx_hal_rtc_ex.c ****   /* Poll WUTWF until it is set in RTC_ICSR to make sure the access to wakeup autoreload
 556:../../Drivers/STM32L5xx_HAL_Driver/Src/stm32l5xx_hal_rtc_ex.c ****      counter and to WUCKSEL[2:0] bits is allowed. This step must be skipped in
 557:../../Drivers/STM32L5xx_HAL_Driver/Src/stm32l5xx_hal_rtc_ex.c ****      calendar initialization mode. */
 558:../../Drivers/STM32L5xx_HAL_Driver/Src/stm32l5xx_hal_rtc_ex.c ****   if (READ_BIT(RTC->ICSR, RTC_ICSR_INITF) == 0U)
 822              		.loc 1 558 3 discriminator 2 view .LVU262
 823              		.loc 1 558 7 is_stmt 0 discriminator 2 view .LVU263
 824 002e DB68     		ldr	r3, [r3, #12]
 825              		.loc 1 558 6 discriminator 2 view .LVU264
 826 0030 13F0400F 		tst	r3, #64
 827 0034 13D0     		beq	.L58
 828              	.LVL50:
 829              	.L53:
 559:../../Drivers/STM32L5xx_HAL_Driver/Src/stm32l5xx_hal_rtc_ex.c ****   {
 560:../../Drivers/STM32L5xx_HAL_Driver/Src/stm32l5xx_hal_rtc_ex.c ****     tickstart = HAL_GetTick();
 561:../../Drivers/STM32L5xx_HAL_Driver/Src/stm32l5xx_hal_rtc_ex.c ****     while (READ_BIT(RTC->ICSR, RTC_ICSR_WUTWF) == 0U)
 562:../../Drivers/STM32L5xx_HAL_Driver/Src/stm32l5xx_hal_rtc_ex.c ****     {
 563:../../Drivers/STM32L5xx_HAL_Driver/Src/stm32l5xx_hal_rtc_ex.c ****       if ((HAL_GetTick() - tickstart) > RTC_TIMEOUT_VALUE)
 564:../../Drivers/STM32L5xx_HAL_Driver/Src/stm32l5xx_hal_rtc_ex.c ****       {
 565:../../Drivers/STM32L5xx_HAL_Driver/Src/stm32l5xx_hal_rtc_ex.c ****         /* Enable the write protection for RTC registers */
 566:../../Drivers/STM32L5xx_HAL_Driver/Src/stm32l5xx_hal_rtc_ex.c ****         __HAL_RTC_WRITEPROTECTION_ENABLE(hrtc);
 567:../../Drivers/STM32L5xx_HAL_Driver/Src/stm32l5xx_hal_rtc_ex.c **** 
 568:../../Drivers/STM32L5xx_HAL_Driver/Src/stm32l5xx_hal_rtc_ex.c ****         hrtc->State = HAL_RTC_STATE_TIMEOUT;
 569:../../Drivers/STM32L5xx_HAL_Driver/Src/stm32l5xx_hal_rtc_ex.c **** 
 570:../../Drivers/STM32L5xx_HAL_Driver/Src/stm32l5xx_hal_rtc_ex.c ****         /* Process Unlocked */
 571:../../Drivers/STM32L5xx_HAL_Driver/Src/stm32l5xx_hal_rtc_ex.c ****         __HAL_UNLOCK(hrtc);
 572:../../Drivers/STM32L5xx_HAL_Driver/Src/stm32l5xx_hal_rtc_ex.c **** 
 573:../../Drivers/STM32L5xx_HAL_Driver/Src/stm32l5xx_hal_rtc_ex.c ****         return HAL_TIMEOUT;
 574:../../Drivers/STM32L5xx_HAL_Driver/Src/stm32l5xx_hal_rtc_ex.c ****       }
 575:../../Drivers/STM32L5xx_HAL_Driver/Src/stm32l5xx_hal_rtc_ex.c ****     }
 576:../../Drivers/STM32L5xx_HAL_Driver/Src/stm32l5xx_hal_rtc_ex.c ****   }
 577:../../Drivers/STM32L5xx_HAL_Driver/Src/stm32l5xx_hal_rtc_ex.c **** 
ARM GAS  C:\Users\carlos\AppData\Local\Temp\ccaMGGVT.s 			page 26


 578:../../Drivers/STM32L5xx_HAL_Driver/Src/stm32l5xx_hal_rtc_ex.c ****   /* Configure the clock source */
 579:../../Drivers/STM32L5xx_HAL_Driver/Src/stm32l5xx_hal_rtc_ex.c ****   MODIFY_REG(RTC->CR, RTC_CR_WUCKSEL, (uint32_t)WakeUpClock);
 830              		.loc 1 579 3 is_stmt 1 view .LVU265
 831 0036 174B     		ldr	r3, .L59
 832 0038 9A69     		ldr	r2, [r3, #24]
 833 003a 22F00702 		bic	r2, r2, #7
 834 003e 1643     		orrs	r6, r6, r2
 835              	.LVL51:
 836              		.loc 1 579 3 is_stmt 0 view .LVU266
 837 0040 9E61     		str	r6, [r3, #24]
 580:../../Drivers/STM32L5xx_HAL_Driver/Src/stm32l5xx_hal_rtc_ex.c **** 
 581:../../Drivers/STM32L5xx_HAL_Driver/Src/stm32l5xx_hal_rtc_ex.c ****   /* Configure the Wakeup Timer counter */
 582:../../Drivers/STM32L5xx_HAL_Driver/Src/stm32l5xx_hal_rtc_ex.c ****   WRITE_REG(RTC->WUTR, (uint32_t)WakeUpCounter);
 838              		.loc 1 582 3 is_stmt 1 view .LVU267
 839 0042 5D61     		str	r5, [r3, #20]
 583:../../Drivers/STM32L5xx_HAL_Driver/Src/stm32l5xx_hal_rtc_ex.c **** 
 584:../../Drivers/STM32L5xx_HAL_Driver/Src/stm32l5xx_hal_rtc_ex.c ****   /* Enable the Wakeup Timer */
 585:../../Drivers/STM32L5xx_HAL_Driver/Src/stm32l5xx_hal_rtc_ex.c ****   SET_BIT(RTC->CR, RTC_CR_WUTE);
 840              		.loc 1 585 3 view .LVU268
 841 0044 9A69     		ldr	r2, [r3, #24]
 842 0046 42F48062 		orr	r2, r2, #1024
 843 004a 9A61     		str	r2, [r3, #24]
 586:../../Drivers/STM32L5xx_HAL_Driver/Src/stm32l5xx_hal_rtc_ex.c **** 
 587:../../Drivers/STM32L5xx_HAL_Driver/Src/stm32l5xx_hal_rtc_ex.c ****   /* Enable the write protection for RTC registers */
 588:../../Drivers/STM32L5xx_HAL_Driver/Src/stm32l5xx_hal_rtc_ex.c ****   __HAL_RTC_WRITEPROTECTION_ENABLE(hrtc);
 844              		.loc 1 588 3 view .LVU269
 845              		.loc 1 588 3 view .LVU270
 846 004c FF22     		movs	r2, #255
 847 004e 5A62     		str	r2, [r3, #36]
 848              		.loc 1 588 3 view .LVU271
 589:../../Drivers/STM32L5xx_HAL_Driver/Src/stm32l5xx_hal_rtc_ex.c **** 
 590:../../Drivers/STM32L5xx_HAL_Driver/Src/stm32l5xx_hal_rtc_ex.c ****   hrtc->State = HAL_RTC_STATE_READY;
 849              		.loc 1 590 3 view .LVU272
 850              		.loc 1 590 15 is_stmt 0 view .LVU273
 851 0050 0123     		movs	r3, #1
 852 0052 84F82530 		strb	r3, [r4, #37]
 591:../../Drivers/STM32L5xx_HAL_Driver/Src/stm32l5xx_hal_rtc_ex.c **** 
 592:../../Drivers/STM32L5xx_HAL_Driver/Src/stm32l5xx_hal_rtc_ex.c ****   /* Process Unlocked */
 593:../../Drivers/STM32L5xx_HAL_Driver/Src/stm32l5xx_hal_rtc_ex.c ****   __HAL_UNLOCK(hrtc);
 853              		.loc 1 593 3 is_stmt 1 view .LVU274
 854              		.loc 1 593 3 view .LVU275
 855 0056 0020     		movs	r0, #0
 856 0058 84F82400 		strb	r0, [r4, #36]
 857              		.loc 1 593 3 view .LVU276
 594:../../Drivers/STM32L5xx_HAL_Driver/Src/stm32l5xx_hal_rtc_ex.c **** 
 595:../../Drivers/STM32L5xx_HAL_Driver/Src/stm32l5xx_hal_rtc_ex.c ****   return HAL_OK;
 858              		.loc 1 595 3 view .LVU277
 859              	.LVL52:
 860              	.L52:
 596:../../Drivers/STM32L5xx_HAL_Driver/Src/stm32l5xx_hal_rtc_ex.c **** }
 861              		.loc 1 596 1 is_stmt 0 view .LVU278
 862 005c F8BD     		pop	{r3, r4, r5, r6, r7, pc}
 863              	.LVL53:
 864              	.L58:
 560:../../Drivers/STM32L5xx_HAL_Driver/Src/stm32l5xx_hal_rtc_ex.c ****     while (READ_BIT(RTC->ICSR, RTC_ICSR_WUTWF) == 0U)
 865              		.loc 1 560 5 is_stmt 1 view .LVU279
 560:../../Drivers/STM32L5xx_HAL_Driver/Src/stm32l5xx_hal_rtc_ex.c ****     while (READ_BIT(RTC->ICSR, RTC_ICSR_WUTWF) == 0U)
ARM GAS  C:\Users\carlos\AppData\Local\Temp\ccaMGGVT.s 			page 27


 866              		.loc 1 560 17 is_stmt 0 view .LVU280
 867 005e FFF7FEFF 		bl	HAL_GetTick
 868              	.LVL54:
 560:../../Drivers/STM32L5xx_HAL_Driver/Src/stm32l5xx_hal_rtc_ex.c ****     while (READ_BIT(RTC->ICSR, RTC_ICSR_WUTWF) == 0U)
 869              		.loc 1 560 17 view .LVU281
 870 0062 0746     		mov	r7, r0
 871              	.LVL55:
 561:../../Drivers/STM32L5xx_HAL_Driver/Src/stm32l5xx_hal_rtc_ex.c ****     {
 872              		.loc 1 561 5 is_stmt 1 view .LVU282
 873              	.L54:
 561:../../Drivers/STM32L5xx_HAL_Driver/Src/stm32l5xx_hal_rtc_ex.c ****     {
 874              		.loc 1 561 11 view .LVU283
 561:../../Drivers/STM32L5xx_HAL_Driver/Src/stm32l5xx_hal_rtc_ex.c ****     {
 875              		.loc 1 561 12 is_stmt 0 view .LVU284
 876 0064 0B4B     		ldr	r3, .L59
 877 0066 DB68     		ldr	r3, [r3, #12]
 561:../../Drivers/STM32L5xx_HAL_Driver/Src/stm32l5xx_hal_rtc_ex.c ****     {
 878              		.loc 1 561 11 view .LVU285
 879 0068 13F0040F 		tst	r3, #4
 880 006c E3D1     		bne	.L53
 563:../../Drivers/STM32L5xx_HAL_Driver/Src/stm32l5xx_hal_rtc_ex.c ****       {
 881              		.loc 1 563 7 is_stmt 1 view .LVU286
 563:../../Drivers/STM32L5xx_HAL_Driver/Src/stm32l5xx_hal_rtc_ex.c ****       {
 882              		.loc 1 563 12 is_stmt 0 view .LVU287
 883 006e FFF7FEFF 		bl	HAL_GetTick
 884              	.LVL56:
 563:../../Drivers/STM32L5xx_HAL_Driver/Src/stm32l5xx_hal_rtc_ex.c ****       {
 885              		.loc 1 563 26 view .LVU288
 886 0072 C31B     		subs	r3, r0, r7
 563:../../Drivers/STM32L5xx_HAL_Driver/Src/stm32l5xx_hal_rtc_ex.c ****       {
 887              		.loc 1 563 10 view .LVU289
 888 0074 B3F57A7F 		cmp	r3, #1000
 889 0078 F4D9     		bls	.L54
 566:../../Drivers/STM32L5xx_HAL_Driver/Src/stm32l5xx_hal_rtc_ex.c **** 
 890              		.loc 1 566 9 is_stmt 1 view .LVU290
 566:../../Drivers/STM32L5xx_HAL_Driver/Src/stm32l5xx_hal_rtc_ex.c **** 
 891              		.loc 1 566 9 view .LVU291
 892 007a 064B     		ldr	r3, .L59
 893 007c FF22     		movs	r2, #255
 894 007e 5A62     		str	r2, [r3, #36]
 566:../../Drivers/STM32L5xx_HAL_Driver/Src/stm32l5xx_hal_rtc_ex.c **** 
 895              		.loc 1 566 9 view .LVU292
 568:../../Drivers/STM32L5xx_HAL_Driver/Src/stm32l5xx_hal_rtc_ex.c **** 
 896              		.loc 1 568 9 view .LVU293
 568:../../Drivers/STM32L5xx_HAL_Driver/Src/stm32l5xx_hal_rtc_ex.c **** 
 897              		.loc 1 568 21 is_stmt 0 view .LVU294
 898 0080 0320     		movs	r0, #3
 899 0082 84F82500 		strb	r0, [r4, #37]
 571:../../Drivers/STM32L5xx_HAL_Driver/Src/stm32l5xx_hal_rtc_ex.c **** 
 900              		.loc 1 571 9 is_stmt 1 view .LVU295
 571:../../Drivers/STM32L5xx_HAL_Driver/Src/stm32l5xx_hal_rtc_ex.c **** 
 901              		.loc 1 571 9 view .LVU296
 902 0086 0023     		movs	r3, #0
 903 0088 84F82430 		strb	r3, [r4, #36]
 571:../../Drivers/STM32L5xx_HAL_Driver/Src/stm32l5xx_hal_rtc_ex.c **** 
 904              		.loc 1 571 9 view .LVU297
 573:../../Drivers/STM32L5xx_HAL_Driver/Src/stm32l5xx_hal_rtc_ex.c ****       }
ARM GAS  C:\Users\carlos\AppData\Local\Temp\ccaMGGVT.s 			page 28


 905              		.loc 1 573 9 view .LVU298
 573:../../Drivers/STM32L5xx_HAL_Driver/Src/stm32l5xx_hal_rtc_ex.c ****       }
 906              		.loc 1 573 16 is_stmt 0 view .LVU299
 907 008c E6E7     		b	.L52
 908              	.LVL57:
 909              	.L56:
 545:../../Drivers/STM32L5xx_HAL_Driver/Src/stm32l5xx_hal_rtc_ex.c **** 
 910              		.loc 1 545 3 view .LVU300
 911 008e 0220     		movs	r0, #2
 912              	.LVL58:
 545:../../Drivers/STM32L5xx_HAL_Driver/Src/stm32l5xx_hal_rtc_ex.c **** 
 913              		.loc 1 545 3 view .LVU301
 914 0090 E4E7     		b	.L52
 915              	.L60:
 916 0092 00BF     		.align	2
 917              	.L59:
 918 0094 00280050 		.word	1342187520
 919              		.cfi_endproc
 920              	.LFE211:
 922              		.section	.text.HAL_RTCEx_SetWakeUpTimer_IT,"ax",%progbits
 923              		.align	1
 924              		.global	HAL_RTCEx_SetWakeUpTimer_IT
 925              		.syntax unified
 926              		.thumb
 927              		.thumb_func
 928              		.fpu fpv4-sp-d16
 930              	HAL_RTCEx_SetWakeUpTimer_IT:
 931              	.LVL59:
 932              	.LFB212:
 597:../../Drivers/STM32L5xx_HAL_Driver/Src/stm32l5xx_hal_rtc_ex.c **** 
 598:../../Drivers/STM32L5xx_HAL_Driver/Src/stm32l5xx_hal_rtc_ex.c **** /**
 599:../../Drivers/STM32L5xx_HAL_Driver/Src/stm32l5xx_hal_rtc_ex.c ****   * @brief  Set wake up timer with interrupt.
 600:../../Drivers/STM32L5xx_HAL_Driver/Src/stm32l5xx_hal_rtc_ex.c ****   * @param  hrtc RTC handle
 601:../../Drivers/STM32L5xx_HAL_Driver/Src/stm32l5xx_hal_rtc_ex.c ****   * @param  WakeUpCounter Wake up counter
 602:../../Drivers/STM32L5xx_HAL_Driver/Src/stm32l5xx_hal_rtc_ex.c ****   * @param  WakeUpClock Wake up clock
 603:../../Drivers/STM32L5xx_HAL_Driver/Src/stm32l5xx_hal_rtc_ex.c ****   * @param  WakeUpAutoClr Wake up auto clear value (look at WUTOCLR in reference manual)
 604:../../Drivers/STM32L5xx_HAL_Driver/Src/stm32l5xx_hal_rtc_ex.c ****   *                       - No effect if WakeUpAutoClr is set to zero
 605:../../Drivers/STM32L5xx_HAL_Driver/Src/stm32l5xx_hal_rtc_ex.c ****   *                       - This feature is meaningful in case of Low power mode to avoid any RTC s
 606:../../Drivers/STM32L5xx_HAL_Driver/Src/stm32l5xx_hal_rtc_ex.c ****   *                         That is why when WakeUpAutoClr is set, EXTI is configured as EVENT inst
 607:../../Drivers/STM32L5xx_HAL_Driver/Src/stm32l5xx_hal_rtc_ex.c ****   * @retval HAL status
 608:../../Drivers/STM32L5xx_HAL_Driver/Src/stm32l5xx_hal_rtc_ex.c ****   */
 609:../../Drivers/STM32L5xx_HAL_Driver/Src/stm32l5xx_hal_rtc_ex.c **** HAL_StatusTypeDef HAL_RTCEx_SetWakeUpTimer_IT(RTC_HandleTypeDef *hrtc, uint32_t WakeUpCounter, uint
 610:../../Drivers/STM32L5xx_HAL_Driver/Src/stm32l5xx_hal_rtc_ex.c **** {
 933              		.loc 1 610 1 is_stmt 1 view -0
 934              		.cfi_startproc
 935              		@ args = 0, pretend = 0, frame = 0
 936              		@ frame_needed = 0, uses_anonymous_args = 0
 937              		.loc 1 610 1 is_stmt 0 view .LVU303
 938 0000 2DE9F843 		push	{r3, r4, r5, r6, r7, r8, r9, lr}
 939              	.LCFI4:
 940              		.cfi_def_cfa_offset 32
 941              		.cfi_offset 3, -32
 942              		.cfi_offset 4, -28
 943              		.cfi_offset 5, -24
 944              		.cfi_offset 6, -20
 945              		.cfi_offset 7, -16
 946              		.cfi_offset 8, -12
ARM GAS  C:\Users\carlos\AppData\Local\Temp\ccaMGGVT.s 			page 29


 947              		.cfi_offset 9, -8
 948              		.cfi_offset 14, -4
 949 0004 1F46     		mov	r7, r3
 611:../../Drivers/STM32L5xx_HAL_Driver/Src/stm32l5xx_hal_rtc_ex.c ****   uint32_t tickstart;
 950              		.loc 1 611 3 is_stmt 1 view .LVU304
 612:../../Drivers/STM32L5xx_HAL_Driver/Src/stm32l5xx_hal_rtc_ex.c **** 
 613:../../Drivers/STM32L5xx_HAL_Driver/Src/stm32l5xx_hal_rtc_ex.c ****   /* Check the parameters */
 614:../../Drivers/STM32L5xx_HAL_Driver/Src/stm32l5xx_hal_rtc_ex.c ****   assert_param(IS_RTC_WAKEUP_CLOCK(WakeUpClock));
 951              		.loc 1 614 3 view .LVU305
 615:../../Drivers/STM32L5xx_HAL_Driver/Src/stm32l5xx_hal_rtc_ex.c ****   assert_param(IS_RTC_WAKEUP_COUNTER(WakeUpCounter));
 952              		.loc 1 615 3 view .LVU306
 616:../../Drivers/STM32L5xx_HAL_Driver/Src/stm32l5xx_hal_rtc_ex.c ****   /* (0x0000<=WUTOCLR<=WUT) */
 617:../../Drivers/STM32L5xx_HAL_Driver/Src/stm32l5xx_hal_rtc_ex.c ****   assert_param(WakeUpAutoClr <= WakeUpCounter);
 953              		.loc 1 617 3 view .LVU307
 618:../../Drivers/STM32L5xx_HAL_Driver/Src/stm32l5xx_hal_rtc_ex.c **** 
 619:../../Drivers/STM32L5xx_HAL_Driver/Src/stm32l5xx_hal_rtc_ex.c ****   /* Process Locked */
 620:../../Drivers/STM32L5xx_HAL_Driver/Src/stm32l5xx_hal_rtc_ex.c ****   __HAL_LOCK(hrtc);
 954              		.loc 1 620 3 view .LVU308
 955              		.loc 1 620 3 view .LVU309
 956 0006 90F82430 		ldrb	r3, [r0, #36]	@ zero_extendqisi2
 957              	.LVL60:
 958              		.loc 1 620 3 is_stmt 0 view .LVU310
 959 000a 012B     		cmp	r3, #1
 960 000c 59D0     		beq	.L68
 961 000e 0446     		mov	r4, r0
 962 0010 0E46     		mov	r6, r1
 963 0012 9046     		mov	r8, r2
 964              		.loc 1 620 3 is_stmt 1 discriminator 2 view .LVU311
 965 0014 0123     		movs	r3, #1
 966 0016 80F82430 		strb	r3, [r0, #36]
 967              		.loc 1 620 3 discriminator 2 view .LVU312
 621:../../Drivers/STM32L5xx_HAL_Driver/Src/stm32l5xx_hal_rtc_ex.c **** 
 622:../../Drivers/STM32L5xx_HAL_Driver/Src/stm32l5xx_hal_rtc_ex.c ****   hrtc->State = HAL_RTC_STATE_BUSY;
 968              		.loc 1 622 3 discriminator 2 view .LVU313
 969              		.loc 1 622 15 is_stmt 0 discriminator 2 view .LVU314
 970 001a 0223     		movs	r3, #2
 971 001c 80F82530 		strb	r3, [r0, #37]
 623:../../Drivers/STM32L5xx_HAL_Driver/Src/stm32l5xx_hal_rtc_ex.c **** 
 624:../../Drivers/STM32L5xx_HAL_Driver/Src/stm32l5xx_hal_rtc_ex.c ****   /* Disable the write protection for RTC registers */
 625:../../Drivers/STM32L5xx_HAL_Driver/Src/stm32l5xx_hal_rtc_ex.c ****   __HAL_RTC_WRITEPROTECTION_DISABLE(hrtc);
 972              		.loc 1 625 3 is_stmt 1 discriminator 2 view .LVU315
 973              		.loc 1 625 3 discriminator 2 view .LVU316
 974 0020 2948     		ldr	r0, .L71
 975              	.LVL61:
 976              		.loc 1 625 3 is_stmt 0 discriminator 2 view .LVU317
 977 0022 CA23     		movs	r3, #202
 978 0024 4362     		str	r3, [r0, #36]
 979              		.loc 1 625 3 is_stmt 1 discriminator 2 view .LVU318
 980 0026 5323     		movs	r3, #83
 981 0028 4362     		str	r3, [r0, #36]
 982              		.loc 1 625 3 discriminator 2 view .LVU319
 626:../../Drivers/STM32L5xx_HAL_Driver/Src/stm32l5xx_hal_rtc_ex.c **** 
 627:../../Drivers/STM32L5xx_HAL_Driver/Src/stm32l5xx_hal_rtc_ex.c ****   /* Clear WUTE in RTC_CR to disable the wakeup timer */
 628:../../Drivers/STM32L5xx_HAL_Driver/Src/stm32l5xx_hal_rtc_ex.c ****   CLEAR_BIT(RTC->CR, RTC_CR_WUTE);
 983              		.loc 1 628 3 discriminator 2 view .LVU320
 984 002a 8369     		ldr	r3, [r0, #24]
 985 002c 23F48063 		bic	r3, r3, #1024
ARM GAS  C:\Users\carlos\AppData\Local\Temp\ccaMGGVT.s 			page 30


 986 0030 8361     		str	r3, [r0, #24]
 629:../../Drivers/STM32L5xx_HAL_Driver/Src/stm32l5xx_hal_rtc_ex.c **** 
 630:../../Drivers/STM32L5xx_HAL_Driver/Src/stm32l5xx_hal_rtc_ex.c ****   /* Clear flag Wake-Up */
 631:../../Drivers/STM32L5xx_HAL_Driver/Src/stm32l5xx_hal_rtc_ex.c ****   WRITE_REG(RTC->SCR, RTC_SCR_CWUTF);
 987              		.loc 1 631 3 discriminator 2 view .LVU321
 988 0032 0423     		movs	r3, #4
 989 0034 C365     		str	r3, [r0, #92]
 632:../../Drivers/STM32L5xx_HAL_Driver/Src/stm32l5xx_hal_rtc_ex.c **** 
 633:../../Drivers/STM32L5xx_HAL_Driver/Src/stm32l5xx_hal_rtc_ex.c ****   /* Poll WUTWF until it is set in RTC_ICSR to make sure the access to wakeup autoreload
 634:../../Drivers/STM32L5xx_HAL_Driver/Src/stm32l5xx_hal_rtc_ex.c ****      counter and to WUCKSEL[2:0] bits is allowed. This step must be skipped in
 635:../../Drivers/STM32L5xx_HAL_Driver/Src/stm32l5xx_hal_rtc_ex.c ****      calendar initialization mode. */
 636:../../Drivers/STM32L5xx_HAL_Driver/Src/stm32l5xx_hal_rtc_ex.c ****   if (READ_BIT(RTC->ICSR, RTC_ICSR_INITF) == 0U)
 990              		.loc 1 636 3 discriminator 2 view .LVU322
 991              		.loc 1 636 7 is_stmt 0 discriminator 2 view .LVU323
 992 0036 C368     		ldr	r3, [r0, #12]
 993              		.loc 1 636 6 discriminator 2 view .LVU324
 994 0038 13F0400F 		tst	r3, #64
 995 003c 20D0     		beq	.L70
 996              	.LVL62:
 997              	.L63:
 637:../../Drivers/STM32L5xx_HAL_Driver/Src/stm32l5xx_hal_rtc_ex.c ****   {
 638:../../Drivers/STM32L5xx_HAL_Driver/Src/stm32l5xx_hal_rtc_ex.c ****     tickstart = HAL_GetTick();
 639:../../Drivers/STM32L5xx_HAL_Driver/Src/stm32l5xx_hal_rtc_ex.c ****     while (READ_BIT(RTC->ICSR, RTC_ICSR_WUTWF) == 0U)
 640:../../Drivers/STM32L5xx_HAL_Driver/Src/stm32l5xx_hal_rtc_ex.c ****     {
 641:../../Drivers/STM32L5xx_HAL_Driver/Src/stm32l5xx_hal_rtc_ex.c ****       if ((HAL_GetTick() - tickstart) > RTC_TIMEOUT_VALUE)
 642:../../Drivers/STM32L5xx_HAL_Driver/Src/stm32l5xx_hal_rtc_ex.c ****       {
 643:../../Drivers/STM32L5xx_HAL_Driver/Src/stm32l5xx_hal_rtc_ex.c ****         /* Enable the write protection for RTC registers */
 644:../../Drivers/STM32L5xx_HAL_Driver/Src/stm32l5xx_hal_rtc_ex.c ****         __HAL_RTC_WRITEPROTECTION_ENABLE(hrtc);
 645:../../Drivers/STM32L5xx_HAL_Driver/Src/stm32l5xx_hal_rtc_ex.c **** 
 646:../../Drivers/STM32L5xx_HAL_Driver/Src/stm32l5xx_hal_rtc_ex.c ****         hrtc->State = HAL_RTC_STATE_TIMEOUT;
 647:../../Drivers/STM32L5xx_HAL_Driver/Src/stm32l5xx_hal_rtc_ex.c **** 
 648:../../Drivers/STM32L5xx_HAL_Driver/Src/stm32l5xx_hal_rtc_ex.c ****         /* Process Unlocked */
 649:../../Drivers/STM32L5xx_HAL_Driver/Src/stm32l5xx_hal_rtc_ex.c ****         __HAL_UNLOCK(hrtc);
 650:../../Drivers/STM32L5xx_HAL_Driver/Src/stm32l5xx_hal_rtc_ex.c **** 
 651:../../Drivers/STM32L5xx_HAL_Driver/Src/stm32l5xx_hal_rtc_ex.c ****         return HAL_TIMEOUT;
 652:../../Drivers/STM32L5xx_HAL_Driver/Src/stm32l5xx_hal_rtc_ex.c ****       }
 653:../../Drivers/STM32L5xx_HAL_Driver/Src/stm32l5xx_hal_rtc_ex.c ****     }
 654:../../Drivers/STM32L5xx_HAL_Driver/Src/stm32l5xx_hal_rtc_ex.c ****   }
 655:../../Drivers/STM32L5xx_HAL_Driver/Src/stm32l5xx_hal_rtc_ex.c **** 
 656:../../Drivers/STM32L5xx_HAL_Driver/Src/stm32l5xx_hal_rtc_ex.c ****   /* Configure the Wakeup Timer counter and auto clear value */
 657:../../Drivers/STM32L5xx_HAL_Driver/Src/stm32l5xx_hal_rtc_ex.c ****   WRITE_REG(RTC->WUTR, (uint32_t)(WakeUpCounter | (WakeUpAutoClr << RTC_WUTR_WUTOCLR_Pos)));
 998              		.loc 1 657 3 is_stmt 1 view .LVU325
 999 003e 46EA0746 		orr	r6, r6, r7, lsl #16
 1000              	.LVL63:
 1001              		.loc 1 657 3 is_stmt 0 view .LVU326
 1002 0042 214B     		ldr	r3, .L71
 1003 0044 5E61     		str	r6, [r3, #20]
 658:../../Drivers/STM32L5xx_HAL_Driver/Src/stm32l5xx_hal_rtc_ex.c **** 
 659:../../Drivers/STM32L5xx_HAL_Driver/Src/stm32l5xx_hal_rtc_ex.c ****   /* Configure the clock source */
 660:../../Drivers/STM32L5xx_HAL_Driver/Src/stm32l5xx_hal_rtc_ex.c ****   MODIFY_REG(RTC->CR, RTC_CR_WUCKSEL, (uint32_t)WakeUpClock);
 1004              		.loc 1 660 3 is_stmt 1 view .LVU327
 1005 0046 9A69     		ldr	r2, [r3, #24]
 1006 0048 22F00702 		bic	r2, r2, #7
 1007 004c 42EA0802 		orr	r2, r2, r8
 1008 0050 9A61     		str	r2, [r3, #24]
 661:../../Drivers/STM32L5xx_HAL_Driver/Src/stm32l5xx_hal_rtc_ex.c **** 
 662:../../Drivers/STM32L5xx_HAL_Driver/Src/stm32l5xx_hal_rtc_ex.c ****   /* In case of WUT autoclr, the IRQ handler should not be called */
ARM GAS  C:\Users\carlos\AppData\Local\Temp\ccaMGGVT.s 			page 31


 663:../../Drivers/STM32L5xx_HAL_Driver/Src/stm32l5xx_hal_rtc_ex.c ****   if (WakeUpAutoClr != 0U)
 1009              		.loc 1 663 3 view .LVU328
 1010              		.loc 1 663 6 is_stmt 0 view .LVU329
 1011 0052 77B3     		cbz	r7, .L66
 664:../../Drivers/STM32L5xx_HAL_Driver/Src/stm32l5xx_hal_rtc_ex.c ****   {
 665:../../Drivers/STM32L5xx_HAL_Driver/Src/stm32l5xx_hal_rtc_ex.c ****     /* RTC WakeUpTimer EXTI Configuration: Event configuration */
 666:../../Drivers/STM32L5xx_HAL_Driver/Src/stm32l5xx_hal_rtc_ex.c ****     __HAL_RTC_WAKEUPTIMER_EXTI_ENABLE_EVENT();
 1012              		.loc 1 666 5 is_stmt 1 view .LVU330
 1013 0054 1D4A     		ldr	r2, .L71+4
 1014 0056 D2F88430 		ldr	r3, [r2, #132]
 1015 005a 43F48023 		orr	r3, r3, #262144
 1016 005e C2F88430 		str	r3, [r2, #132]
 1017              	.L67:
 667:../../Drivers/STM32L5xx_HAL_Driver/Src/stm32l5xx_hal_rtc_ex.c ****   }
 668:../../Drivers/STM32L5xx_HAL_Driver/Src/stm32l5xx_hal_rtc_ex.c ****   else
 669:../../Drivers/STM32L5xx_HAL_Driver/Src/stm32l5xx_hal_rtc_ex.c ****   {
 670:../../Drivers/STM32L5xx_HAL_Driver/Src/stm32l5xx_hal_rtc_ex.c ****     /* RTC WakeUpTimer EXTI Configuration: Interrupt configuration */
 671:../../Drivers/STM32L5xx_HAL_Driver/Src/stm32l5xx_hal_rtc_ex.c ****     __HAL_RTC_WAKEUPTIMER_EXTI_ENABLE_IT();
 672:../../Drivers/STM32L5xx_HAL_Driver/Src/stm32l5xx_hal_rtc_ex.c ****   }
 673:../../Drivers/STM32L5xx_HAL_Driver/Src/stm32l5xx_hal_rtc_ex.c **** 
 674:../../Drivers/STM32L5xx_HAL_Driver/Src/stm32l5xx_hal_rtc_ex.c ****   /* Configure the Interrupt in the RTC_CR register and Enable the Wakeup Timer*/
 675:../../Drivers/STM32L5xx_HAL_Driver/Src/stm32l5xx_hal_rtc_ex.c ****   SET_BIT(RTC->CR, (RTC_CR_WUTIE | RTC_CR_WUTE));
 1018              		.loc 1 675 3 view .LVU331
 1019 0062 194B     		ldr	r3, .L71
 1020 0064 9A69     		ldr	r2, [r3, #24]
 1021 0066 42F48842 		orr	r2, r2, #17408
 1022 006a 9A61     		str	r2, [r3, #24]
 676:../../Drivers/STM32L5xx_HAL_Driver/Src/stm32l5xx_hal_rtc_ex.c **** 
 677:../../Drivers/STM32L5xx_HAL_Driver/Src/stm32l5xx_hal_rtc_ex.c ****   /* Enable the write protection for RTC registers */
 678:../../Drivers/STM32L5xx_HAL_Driver/Src/stm32l5xx_hal_rtc_ex.c ****   __HAL_RTC_WRITEPROTECTION_ENABLE(hrtc);
 1023              		.loc 1 678 3 view .LVU332
 1024              		.loc 1 678 3 view .LVU333
 1025 006c FF22     		movs	r2, #255
 1026 006e 5A62     		str	r2, [r3, #36]
 1027              		.loc 1 678 3 view .LVU334
 679:../../Drivers/STM32L5xx_HAL_Driver/Src/stm32l5xx_hal_rtc_ex.c **** 
 680:../../Drivers/STM32L5xx_HAL_Driver/Src/stm32l5xx_hal_rtc_ex.c ****   hrtc->State = HAL_RTC_STATE_READY;
 1028              		.loc 1 680 3 view .LVU335
 1029              		.loc 1 680 15 is_stmt 0 view .LVU336
 1030 0070 0123     		movs	r3, #1
 1031 0072 84F82530 		strb	r3, [r4, #37]
 681:../../Drivers/STM32L5xx_HAL_Driver/Src/stm32l5xx_hal_rtc_ex.c **** 
 682:../../Drivers/STM32L5xx_HAL_Driver/Src/stm32l5xx_hal_rtc_ex.c ****   /* Process Unlocked */
 683:../../Drivers/STM32L5xx_HAL_Driver/Src/stm32l5xx_hal_rtc_ex.c ****   __HAL_UNLOCK(hrtc);
 1032              		.loc 1 683 3 is_stmt 1 view .LVU337
 1033              		.loc 1 683 3 view .LVU338
 1034 0076 0020     		movs	r0, #0
 1035 0078 84F82400 		strb	r0, [r4, #36]
 1036              		.loc 1 683 3 view .LVU339
 684:../../Drivers/STM32L5xx_HAL_Driver/Src/stm32l5xx_hal_rtc_ex.c **** 
 685:../../Drivers/STM32L5xx_HAL_Driver/Src/stm32l5xx_hal_rtc_ex.c ****   return HAL_OK;
 1037              		.loc 1 685 3 view .LVU340
 1038              	.LVL64:
 1039              	.L62:
 686:../../Drivers/STM32L5xx_HAL_Driver/Src/stm32l5xx_hal_rtc_ex.c **** }
 1040              		.loc 1 686 1 is_stmt 0 view .LVU341
 1041 007c BDE8F883 		pop	{r3, r4, r5, r6, r7, r8, r9, pc}
ARM GAS  C:\Users\carlos\AppData\Local\Temp\ccaMGGVT.s 			page 32


 1042              	.LVL65:
 1043              	.L70:
 638:../../Drivers/STM32L5xx_HAL_Driver/Src/stm32l5xx_hal_rtc_ex.c ****     while (READ_BIT(RTC->ICSR, RTC_ICSR_WUTWF) == 0U)
 1044              		.loc 1 638 5 is_stmt 1 view .LVU342
 638:../../Drivers/STM32L5xx_HAL_Driver/Src/stm32l5xx_hal_rtc_ex.c ****     while (READ_BIT(RTC->ICSR, RTC_ICSR_WUTWF) == 0U)
 1045              		.loc 1 638 17 is_stmt 0 view .LVU343
 1046 0080 FFF7FEFF 		bl	HAL_GetTick
 1047              	.LVL66:
 638:../../Drivers/STM32L5xx_HAL_Driver/Src/stm32l5xx_hal_rtc_ex.c ****     while (READ_BIT(RTC->ICSR, RTC_ICSR_WUTWF) == 0U)
 1048              		.loc 1 638 17 view .LVU344
 1049 0084 8146     		mov	r9, r0
 1050              	.LVL67:
 639:../../Drivers/STM32L5xx_HAL_Driver/Src/stm32l5xx_hal_rtc_ex.c ****     {
 1051              		.loc 1 639 5 is_stmt 1 view .LVU345
 1052              	.L64:
 639:../../Drivers/STM32L5xx_HAL_Driver/Src/stm32l5xx_hal_rtc_ex.c ****     {
 1053              		.loc 1 639 11 view .LVU346
 639:../../Drivers/STM32L5xx_HAL_Driver/Src/stm32l5xx_hal_rtc_ex.c ****     {
 1054              		.loc 1 639 12 is_stmt 0 view .LVU347
 1055 0086 104B     		ldr	r3, .L71
 1056 0088 DD68     		ldr	r5, [r3, #12]
 639:../../Drivers/STM32L5xx_HAL_Driver/Src/stm32l5xx_hal_rtc_ex.c ****     {
 1057              		.loc 1 639 11 view .LVU348
 1058 008a 15F0040F 		tst	r5, #4
 1059 008e D6D1     		bne	.L63
 641:../../Drivers/STM32L5xx_HAL_Driver/Src/stm32l5xx_hal_rtc_ex.c ****       {
 1060              		.loc 1 641 7 is_stmt 1 view .LVU349
 641:../../Drivers/STM32L5xx_HAL_Driver/Src/stm32l5xx_hal_rtc_ex.c ****       {
 1061              		.loc 1 641 12 is_stmt 0 view .LVU350
 1062 0090 FFF7FEFF 		bl	HAL_GetTick
 1063              	.LVL68:
 641:../../Drivers/STM32L5xx_HAL_Driver/Src/stm32l5xx_hal_rtc_ex.c ****       {
 1064              		.loc 1 641 26 view .LVU351
 1065 0094 A0EB090C 		sub	ip, r0, r9
 641:../../Drivers/STM32L5xx_HAL_Driver/Src/stm32l5xx_hal_rtc_ex.c ****       {
 1066              		.loc 1 641 10 view .LVU352
 1067 0098 BCF57A7F 		cmp	ip, #1000
 1068 009c F3D9     		bls	.L64
 644:../../Drivers/STM32L5xx_HAL_Driver/Src/stm32l5xx_hal_rtc_ex.c **** 
 1069              		.loc 1 644 9 is_stmt 1 view .LVU353
 644:../../Drivers/STM32L5xx_HAL_Driver/Src/stm32l5xx_hal_rtc_ex.c **** 
 1070              		.loc 1 644 9 view .LVU354
 1071 009e 0A4B     		ldr	r3, .L71
 1072 00a0 FF22     		movs	r2, #255
 1073 00a2 5A62     		str	r2, [r3, #36]
 644:../../Drivers/STM32L5xx_HAL_Driver/Src/stm32l5xx_hal_rtc_ex.c **** 
 1074              		.loc 1 644 9 view .LVU355
 646:../../Drivers/STM32L5xx_HAL_Driver/Src/stm32l5xx_hal_rtc_ex.c **** 
 1075              		.loc 1 646 9 view .LVU356
 646:../../Drivers/STM32L5xx_HAL_Driver/Src/stm32l5xx_hal_rtc_ex.c **** 
 1076              		.loc 1 646 21 is_stmt 0 view .LVU357
 1077 00a4 0320     		movs	r0, #3
 1078 00a6 84F82500 		strb	r0, [r4, #37]
 649:../../Drivers/STM32L5xx_HAL_Driver/Src/stm32l5xx_hal_rtc_ex.c **** 
 1079              		.loc 1 649 9 is_stmt 1 view .LVU358
 649:../../Drivers/STM32L5xx_HAL_Driver/Src/stm32l5xx_hal_rtc_ex.c **** 
 1080              		.loc 1 649 9 view .LVU359
ARM GAS  C:\Users\carlos\AppData\Local\Temp\ccaMGGVT.s 			page 33


 1081 00aa 0023     		movs	r3, #0
 1082 00ac 84F82430 		strb	r3, [r4, #36]
 649:../../Drivers/STM32L5xx_HAL_Driver/Src/stm32l5xx_hal_rtc_ex.c **** 
 1083              		.loc 1 649 9 view .LVU360
 651:../../Drivers/STM32L5xx_HAL_Driver/Src/stm32l5xx_hal_rtc_ex.c ****       }
 1084              		.loc 1 651 9 view .LVU361
 651:../../Drivers/STM32L5xx_HAL_Driver/Src/stm32l5xx_hal_rtc_ex.c ****       }
 1085              		.loc 1 651 16 is_stmt 0 view .LVU362
 1086 00b0 E4E7     		b	.L62
 1087              	.LVL69:
 1088              	.L66:
 671:../../Drivers/STM32L5xx_HAL_Driver/Src/stm32l5xx_hal_rtc_ex.c ****   }
 1089              		.loc 1 671 5 is_stmt 1 view .LVU363
 1090 00b2 064A     		ldr	r2, .L71+4
 1091 00b4 D2F88030 		ldr	r3, [r2, #128]
 1092 00b8 43F48023 		orr	r3, r3, #262144
 1093 00bc C2F88030 		str	r3, [r2, #128]
 1094 00c0 CFE7     		b	.L67
 1095              	.LVL70:
 1096              	.L68:
 620:../../Drivers/STM32L5xx_HAL_Driver/Src/stm32l5xx_hal_rtc_ex.c **** 
 1097              		.loc 1 620 3 is_stmt 0 view .LVU364
 1098 00c2 0220     		movs	r0, #2
 1099              	.LVL71:
 620:../../Drivers/STM32L5xx_HAL_Driver/Src/stm32l5xx_hal_rtc_ex.c **** 
 1100              		.loc 1 620 3 view .LVU365
 1101 00c4 DAE7     		b	.L62
 1102              	.L72:
 1103 00c6 00BF     		.align	2
 1104              	.L71:
 1105 00c8 00280050 		.word	1342187520
 1106 00cc 00F40250 		.word	1342370816
 1107              		.cfi_endproc
 1108              	.LFE212:
 1110              		.section	.text.HAL_RTCEx_DeactivateWakeUpTimer,"ax",%progbits
 1111              		.align	1
 1112              		.global	HAL_RTCEx_DeactivateWakeUpTimer
 1113              		.syntax unified
 1114              		.thumb
 1115              		.thumb_func
 1116              		.fpu fpv4-sp-d16
 1118              	HAL_RTCEx_DeactivateWakeUpTimer:
 1119              	.LVL72:
 1120              	.LFB213:
 687:../../Drivers/STM32L5xx_HAL_Driver/Src/stm32l5xx_hal_rtc_ex.c **** 
 688:../../Drivers/STM32L5xx_HAL_Driver/Src/stm32l5xx_hal_rtc_ex.c **** /**
 689:../../Drivers/STM32L5xx_HAL_Driver/Src/stm32l5xx_hal_rtc_ex.c ****   * @brief  Deactivate wake up timer counter.
 690:../../Drivers/STM32L5xx_HAL_Driver/Src/stm32l5xx_hal_rtc_ex.c ****   * @param  hrtc RTC handle
 691:../../Drivers/STM32L5xx_HAL_Driver/Src/stm32l5xx_hal_rtc_ex.c ****   * @retval HAL status
 692:../../Drivers/STM32L5xx_HAL_Driver/Src/stm32l5xx_hal_rtc_ex.c ****   */
 693:../../Drivers/STM32L5xx_HAL_Driver/Src/stm32l5xx_hal_rtc_ex.c **** HAL_StatusTypeDef HAL_RTCEx_DeactivateWakeUpTimer(RTC_HandleTypeDef *hrtc)
 694:../../Drivers/STM32L5xx_HAL_Driver/Src/stm32l5xx_hal_rtc_ex.c **** {
 1121              		.loc 1 694 1 is_stmt 1 view -0
 1122              		.cfi_startproc
 1123              		@ args = 0, pretend = 0, frame = 0
 1124              		@ frame_needed = 0, uses_anonymous_args = 0
 1125              		.loc 1 694 1 is_stmt 0 view .LVU367
ARM GAS  C:\Users\carlos\AppData\Local\Temp\ccaMGGVT.s 			page 34


 1126 0000 38B5     		push	{r3, r4, r5, lr}
 1127              	.LCFI5:
 1128              		.cfi_def_cfa_offset 16
 1129              		.cfi_offset 3, -16
 1130              		.cfi_offset 4, -12
 1131              		.cfi_offset 5, -8
 1132              		.cfi_offset 14, -4
 695:../../Drivers/STM32L5xx_HAL_Driver/Src/stm32l5xx_hal_rtc_ex.c ****   uint32_t tickstart;
 1133              		.loc 1 695 3 is_stmt 1 view .LVU368
 696:../../Drivers/STM32L5xx_HAL_Driver/Src/stm32l5xx_hal_rtc_ex.c **** 
 697:../../Drivers/STM32L5xx_HAL_Driver/Src/stm32l5xx_hal_rtc_ex.c ****   /* Process Locked */
 698:../../Drivers/STM32L5xx_HAL_Driver/Src/stm32l5xx_hal_rtc_ex.c ****   __HAL_LOCK(hrtc);
 1134              		.loc 1 698 3 view .LVU369
 1135              		.loc 1 698 3 view .LVU370
 1136 0002 90F82430 		ldrb	r3, [r0, #36]	@ zero_extendqisi2
 1137 0006 012B     		cmp	r3, #1
 1138 0008 31D0     		beq	.L77
 1139 000a 0546     		mov	r5, r0
 1140              		.loc 1 698 3 discriminator 2 view .LVU371
 1141 000c 0123     		movs	r3, #1
 1142 000e 80F82430 		strb	r3, [r0, #36]
 1143              		.loc 1 698 3 discriminator 2 view .LVU372
 699:../../Drivers/STM32L5xx_HAL_Driver/Src/stm32l5xx_hal_rtc_ex.c **** 
 700:../../Drivers/STM32L5xx_HAL_Driver/Src/stm32l5xx_hal_rtc_ex.c ****   hrtc->State = HAL_RTC_STATE_BUSY;
 1144              		.loc 1 700 3 discriminator 2 view .LVU373
 1145              		.loc 1 700 15 is_stmt 0 discriminator 2 view .LVU374
 1146 0012 0223     		movs	r3, #2
 1147 0014 80F82530 		strb	r3, [r0, #37]
 701:../../Drivers/STM32L5xx_HAL_Driver/Src/stm32l5xx_hal_rtc_ex.c **** 
 702:../../Drivers/STM32L5xx_HAL_Driver/Src/stm32l5xx_hal_rtc_ex.c ****   /* Disable the write protection for RTC registers */
 703:../../Drivers/STM32L5xx_HAL_Driver/Src/stm32l5xx_hal_rtc_ex.c ****   __HAL_RTC_WRITEPROTECTION_DISABLE(hrtc);
 1148              		.loc 1 703 3 is_stmt 1 discriminator 2 view .LVU375
 1149              		.loc 1 703 3 discriminator 2 view .LVU376
 1150 0018 164B     		ldr	r3, .L80
 1151 001a CA22     		movs	r2, #202
 1152 001c 5A62     		str	r2, [r3, #36]
 1153              		.loc 1 703 3 discriminator 2 view .LVU377
 1154 001e 5322     		movs	r2, #83
 1155 0020 5A62     		str	r2, [r3, #36]
 1156              		.loc 1 703 3 discriminator 2 view .LVU378
 704:../../Drivers/STM32L5xx_HAL_Driver/Src/stm32l5xx_hal_rtc_ex.c **** 
 705:../../Drivers/STM32L5xx_HAL_Driver/Src/stm32l5xx_hal_rtc_ex.c ****   /* Disable the Wakeup Timer */
 706:../../Drivers/STM32L5xx_HAL_Driver/Src/stm32l5xx_hal_rtc_ex.c ****   /* In case of interrupt mode is used, the interrupt source must disabled */
 707:../../Drivers/STM32L5xx_HAL_Driver/Src/stm32l5xx_hal_rtc_ex.c ****   CLEAR_BIT(RTC->CR, (RTC_CR_WUTE | RTC_CR_WUTIE));
 1157              		.loc 1 707 3 discriminator 2 view .LVU379
 1158 0022 9A69     		ldr	r2, [r3, #24]
 1159 0024 22F48842 		bic	r2, r2, #17408
 1160 0028 9A61     		str	r2, [r3, #24]
 708:../../Drivers/STM32L5xx_HAL_Driver/Src/stm32l5xx_hal_rtc_ex.c **** 
 709:../../Drivers/STM32L5xx_HAL_Driver/Src/stm32l5xx_hal_rtc_ex.c ****   tickstart = HAL_GetTick();
 1161              		.loc 1 709 3 discriminator 2 view .LVU380
 1162              		.loc 1 709 15 is_stmt 0 discriminator 2 view .LVU381
 1163 002a FFF7FEFF 		bl	HAL_GetTick
 1164              	.LVL73:
 1165              		.loc 1 709 15 discriminator 2 view .LVU382
 1166 002e 0446     		mov	r4, r0
 1167              	.LVL74:
ARM GAS  C:\Users\carlos\AppData\Local\Temp\ccaMGGVT.s 			page 35


 710:../../Drivers/STM32L5xx_HAL_Driver/Src/stm32l5xx_hal_rtc_ex.c ****   /* Wait till RTC WUTWF flag is set and if Time out is reached exit */
 711:../../Drivers/STM32L5xx_HAL_Driver/Src/stm32l5xx_hal_rtc_ex.c ****   while (READ_BIT(RTC->ICSR, RTC_ICSR_WUTWF) == 0U)
 1168              		.loc 1 711 3 is_stmt 1 discriminator 2 view .LVU383
 1169              	.L75:
 1170              		.loc 1 711 9 view .LVU384
 1171              		.loc 1 711 10 is_stmt 0 view .LVU385
 1172 0030 104B     		ldr	r3, .L80
 1173 0032 DB68     		ldr	r3, [r3, #12]
 1174              		.loc 1 711 9 view .LVU386
 1175 0034 13F0040F 		tst	r3, #4
 1176 0038 0FD1     		bne	.L79
 712:../../Drivers/STM32L5xx_HAL_Driver/Src/stm32l5xx_hal_rtc_ex.c ****   {
 713:../../Drivers/STM32L5xx_HAL_Driver/Src/stm32l5xx_hal_rtc_ex.c ****     if ((HAL_GetTick() - tickstart) > RTC_TIMEOUT_VALUE)
 1177              		.loc 1 713 5 is_stmt 1 view .LVU387
 1178              		.loc 1 713 10 is_stmt 0 view .LVU388
 1179 003a FFF7FEFF 		bl	HAL_GetTick
 1180              	.LVL75:
 1181              		.loc 1 713 24 view .LVU389
 1182 003e 031B     		subs	r3, r0, r4
 1183              		.loc 1 713 8 view .LVU390
 1184 0040 B3F57A7F 		cmp	r3, #1000
 1185 0044 F4D9     		bls	.L75
 714:../../Drivers/STM32L5xx_HAL_Driver/Src/stm32l5xx_hal_rtc_ex.c ****     {
 715:../../Drivers/STM32L5xx_HAL_Driver/Src/stm32l5xx_hal_rtc_ex.c ****       /* Enable the write protection for RTC registers */
 716:../../Drivers/STM32L5xx_HAL_Driver/Src/stm32l5xx_hal_rtc_ex.c ****       __HAL_RTC_WRITEPROTECTION_ENABLE(hrtc);
 1186              		.loc 1 716 7 is_stmt 1 view .LVU391
 1187              		.loc 1 716 7 view .LVU392
 1188 0046 0B4B     		ldr	r3, .L80
 1189 0048 FF22     		movs	r2, #255
 1190 004a 5A62     		str	r2, [r3, #36]
 1191              		.loc 1 716 7 view .LVU393
 717:../../Drivers/STM32L5xx_HAL_Driver/Src/stm32l5xx_hal_rtc_ex.c **** 
 718:../../Drivers/STM32L5xx_HAL_Driver/Src/stm32l5xx_hal_rtc_ex.c ****       hrtc->State = HAL_RTC_STATE_TIMEOUT;
 1192              		.loc 1 718 7 view .LVU394
 1193              		.loc 1 718 19 is_stmt 0 view .LVU395
 1194 004c 0320     		movs	r0, #3
 1195 004e 85F82500 		strb	r0, [r5, #37]
 719:../../Drivers/STM32L5xx_HAL_Driver/Src/stm32l5xx_hal_rtc_ex.c **** 
 720:../../Drivers/STM32L5xx_HAL_Driver/Src/stm32l5xx_hal_rtc_ex.c ****       /* Process Unlocked */
 721:../../Drivers/STM32L5xx_HAL_Driver/Src/stm32l5xx_hal_rtc_ex.c ****       __HAL_UNLOCK(hrtc);
 1196              		.loc 1 721 7 is_stmt 1 view .LVU396
 1197              		.loc 1 721 7 view .LVU397
 1198 0052 0023     		movs	r3, #0
 1199 0054 85F82430 		strb	r3, [r5, #36]
 1200              		.loc 1 721 7 view .LVU398
 722:../../Drivers/STM32L5xx_HAL_Driver/Src/stm32l5xx_hal_rtc_ex.c **** 
 723:../../Drivers/STM32L5xx_HAL_Driver/Src/stm32l5xx_hal_rtc_ex.c ****       return HAL_TIMEOUT;
 1201              		.loc 1 723 7 view .LVU399
 1202              		.loc 1 723 14 is_stmt 0 view .LVU400
 1203 0058 08E0     		b	.L74
 1204              	.L79:
 724:../../Drivers/STM32L5xx_HAL_Driver/Src/stm32l5xx_hal_rtc_ex.c ****     }
 725:../../Drivers/STM32L5xx_HAL_Driver/Src/stm32l5xx_hal_rtc_ex.c ****   }
 726:../../Drivers/STM32L5xx_HAL_Driver/Src/stm32l5xx_hal_rtc_ex.c **** 
 727:../../Drivers/STM32L5xx_HAL_Driver/Src/stm32l5xx_hal_rtc_ex.c ****   /* Enable the write protection for RTC registers */
 728:../../Drivers/STM32L5xx_HAL_Driver/Src/stm32l5xx_hal_rtc_ex.c ****   __HAL_RTC_WRITEPROTECTION_ENABLE(hrtc);
 1205              		.loc 1 728 3 is_stmt 1 view .LVU401
ARM GAS  C:\Users\carlos\AppData\Local\Temp\ccaMGGVT.s 			page 36


 1206              		.loc 1 728 3 view .LVU402
 1207 005a 064B     		ldr	r3, .L80
 1208 005c FF22     		movs	r2, #255
 1209 005e 5A62     		str	r2, [r3, #36]
 1210              		.loc 1 728 3 view .LVU403
 729:../../Drivers/STM32L5xx_HAL_Driver/Src/stm32l5xx_hal_rtc_ex.c **** 
 730:../../Drivers/STM32L5xx_HAL_Driver/Src/stm32l5xx_hal_rtc_ex.c ****   hrtc->State = HAL_RTC_STATE_READY;
 1211              		.loc 1 730 3 view .LVU404
 1212              		.loc 1 730 15 is_stmt 0 view .LVU405
 1213 0060 0123     		movs	r3, #1
 1214 0062 85F82530 		strb	r3, [r5, #37]
 731:../../Drivers/STM32L5xx_HAL_Driver/Src/stm32l5xx_hal_rtc_ex.c **** 
 732:../../Drivers/STM32L5xx_HAL_Driver/Src/stm32l5xx_hal_rtc_ex.c ****   /* Process Unlocked */
 733:../../Drivers/STM32L5xx_HAL_Driver/Src/stm32l5xx_hal_rtc_ex.c ****   __HAL_UNLOCK(hrtc);
 1215              		.loc 1 733 3 is_stmt 1 view .LVU406
 1216              		.loc 1 733 3 view .LVU407
 1217 0066 0020     		movs	r0, #0
 1218 0068 85F82400 		strb	r0, [r5, #36]
 1219              		.loc 1 733 3 view .LVU408
 734:../../Drivers/STM32L5xx_HAL_Driver/Src/stm32l5xx_hal_rtc_ex.c **** 
 735:../../Drivers/STM32L5xx_HAL_Driver/Src/stm32l5xx_hal_rtc_ex.c ****   return HAL_OK;
 1220              		.loc 1 735 3 view .LVU409
 1221              	.LVL76:
 1222              	.L74:
 736:../../Drivers/STM32L5xx_HAL_Driver/Src/stm32l5xx_hal_rtc_ex.c **** }
 1223              		.loc 1 736 1 is_stmt 0 view .LVU410
 1224 006c 38BD     		pop	{r3, r4, r5, pc}
 1225              	.LVL77:
 1226              	.L77:
 698:../../Drivers/STM32L5xx_HAL_Driver/Src/stm32l5xx_hal_rtc_ex.c **** 
 1227              		.loc 1 698 3 view .LVU411
 1228 006e 0220     		movs	r0, #2
 1229              	.LVL78:
 698:../../Drivers/STM32L5xx_HAL_Driver/Src/stm32l5xx_hal_rtc_ex.c **** 
 1230              		.loc 1 698 3 view .LVU412
 1231 0070 FCE7     		b	.L74
 1232              	.L81:
 1233 0072 00BF     		.align	2
 1234              	.L80:
 1235 0074 00280050 		.word	1342187520
 1236              		.cfi_endproc
 1237              	.LFE213:
 1239              		.section	.text.HAL_RTCEx_GetWakeUpTimer,"ax",%progbits
 1240              		.align	1
 1241              		.global	HAL_RTCEx_GetWakeUpTimer
 1242              		.syntax unified
 1243              		.thumb
 1244              		.thumb_func
 1245              		.fpu fpv4-sp-d16
 1247              	HAL_RTCEx_GetWakeUpTimer:
 1248              	.LVL79:
 1249              	.LFB214:
 737:../../Drivers/STM32L5xx_HAL_Driver/Src/stm32l5xx_hal_rtc_ex.c **** 
 738:../../Drivers/STM32L5xx_HAL_Driver/Src/stm32l5xx_hal_rtc_ex.c **** /**
 739:../../Drivers/STM32L5xx_HAL_Driver/Src/stm32l5xx_hal_rtc_ex.c ****   * @brief  Get wake up timer counter.
 740:../../Drivers/STM32L5xx_HAL_Driver/Src/stm32l5xx_hal_rtc_ex.c ****   * @param  hrtc RTC handle
 741:../../Drivers/STM32L5xx_HAL_Driver/Src/stm32l5xx_hal_rtc_ex.c ****   * @retval Counter value
ARM GAS  C:\Users\carlos\AppData\Local\Temp\ccaMGGVT.s 			page 37


 742:../../Drivers/STM32L5xx_HAL_Driver/Src/stm32l5xx_hal_rtc_ex.c ****   */
 743:../../Drivers/STM32L5xx_HAL_Driver/Src/stm32l5xx_hal_rtc_ex.c **** uint32_t HAL_RTCEx_GetWakeUpTimer(RTC_HandleTypeDef *hrtc)
 744:../../Drivers/STM32L5xx_HAL_Driver/Src/stm32l5xx_hal_rtc_ex.c **** {
 1250              		.loc 1 744 1 is_stmt 1 view -0
 1251              		.cfi_startproc
 1252              		@ args = 0, pretend = 0, frame = 0
 1253              		@ frame_needed = 0, uses_anonymous_args = 0
 1254              		@ link register save eliminated.
 745:../../Drivers/STM32L5xx_HAL_Driver/Src/stm32l5xx_hal_rtc_ex.c ****   UNUSED(hrtc);
 1255              		.loc 1 745 3 view .LVU414
 746:../../Drivers/STM32L5xx_HAL_Driver/Src/stm32l5xx_hal_rtc_ex.c ****   /* Get the counter value */
 747:../../Drivers/STM32L5xx_HAL_Driver/Src/stm32l5xx_hal_rtc_ex.c ****   return (uint32_t)(READ_BIT(RTC->WUTR, RTC_WUTR_WUT));
 1256              		.loc 1 747 3 view .LVU415
 1257              		.loc 1 747 21 is_stmt 0 view .LVU416
 1258 0000 014B     		ldr	r3, .L83
 1259 0002 5869     		ldr	r0, [r3, #20]
 1260              	.LVL80:
 748:../../Drivers/STM32L5xx_HAL_Driver/Src/stm32l5xx_hal_rtc_ex.c **** }
 1261              		.loc 1 748 1 view .LVU417
 1262 0004 80B2     		uxth	r0, r0
 1263 0006 7047     		bx	lr
 1264              	.L84:
 1265              		.align	2
 1266              	.L83:
 1267 0008 00280050 		.word	1342187520
 1268              		.cfi_endproc
 1269              	.LFE214:
 1271              		.section	.text.HAL_RTCEx_WakeUpTimerEventCallback,"ax",%progbits
 1272              		.align	1
 1273              		.weak	HAL_RTCEx_WakeUpTimerEventCallback
 1274              		.syntax unified
 1275              		.thumb
 1276              		.thumb_func
 1277              		.fpu fpv4-sp-d16
 1279              	HAL_RTCEx_WakeUpTimerEventCallback:
 1280              	.LVL81:
 1281              	.LFB216:
 749:../../Drivers/STM32L5xx_HAL_Driver/Src/stm32l5xx_hal_rtc_ex.c **** 
 750:../../Drivers/STM32L5xx_HAL_Driver/Src/stm32l5xx_hal_rtc_ex.c **** #if defined (__ARM_FEATURE_CMSE) && (__ARM_FEATURE_CMSE == 3U)
 751:../../Drivers/STM32L5xx_HAL_Driver/Src/stm32l5xx_hal_rtc_ex.c **** /**
 752:../../Drivers/STM32L5xx_HAL_Driver/Src/stm32l5xx_hal_rtc_ex.c ****   * @brief  Handle Wake Up Timer secure interrupt request.
 753:../../Drivers/STM32L5xx_HAL_Driver/Src/stm32l5xx_hal_rtc_ex.c ****   * @param  hrtc RTC handle
 754:../../Drivers/STM32L5xx_HAL_Driver/Src/stm32l5xx_hal_rtc_ex.c ****   * @retval None
 755:../../Drivers/STM32L5xx_HAL_Driver/Src/stm32l5xx_hal_rtc_ex.c ****   */
 756:../../Drivers/STM32L5xx_HAL_Driver/Src/stm32l5xx_hal_rtc_ex.c **** void HAL_RTCEx_WakeUpTimerIRQHandler(RTC_HandleTypeDef *hrtc)
 757:../../Drivers/STM32L5xx_HAL_Driver/Src/stm32l5xx_hal_rtc_ex.c **** {
 758:../../Drivers/STM32L5xx_HAL_Driver/Src/stm32l5xx_hal_rtc_ex.c ****   if ((RTC->SMISR & RTC_SMISR_WUTMF) != 0u)
 759:../../Drivers/STM32L5xx_HAL_Driver/Src/stm32l5xx_hal_rtc_ex.c ****   {
 760:../../Drivers/STM32L5xx_HAL_Driver/Src/stm32l5xx_hal_rtc_ex.c ****     /* Immediately clear flags */
 761:../../Drivers/STM32L5xx_HAL_Driver/Src/stm32l5xx_hal_rtc_ex.c ****     WRITE_REG(RTC->SCR, RTC_SCR_CWUTF);
 762:../../Drivers/STM32L5xx_HAL_Driver/Src/stm32l5xx_hal_rtc_ex.c **** #if (USE_HAL_RTC_REGISTER_CALLBACKS == 1)
 763:../../Drivers/STM32L5xx_HAL_Driver/Src/stm32l5xx_hal_rtc_ex.c ****     /* Call wake up timer registered Callback */
 764:../../Drivers/STM32L5xx_HAL_Driver/Src/stm32l5xx_hal_rtc_ex.c ****     hrtc->WakeUpTimerEventCallback(hrtc);
 765:../../Drivers/STM32L5xx_HAL_Driver/Src/stm32l5xx_hal_rtc_ex.c **** #else
 766:../../Drivers/STM32L5xx_HAL_Driver/Src/stm32l5xx_hal_rtc_ex.c ****     HAL_RTCEx_WakeUpTimerEventCallback(hrtc);
 767:../../Drivers/STM32L5xx_HAL_Driver/Src/stm32l5xx_hal_rtc_ex.c **** #endif
 768:../../Drivers/STM32L5xx_HAL_Driver/Src/stm32l5xx_hal_rtc_ex.c ****   }
ARM GAS  C:\Users\carlos\AppData\Local\Temp\ccaMGGVT.s 			page 38


 769:../../Drivers/STM32L5xx_HAL_Driver/Src/stm32l5xx_hal_rtc_ex.c **** 
 770:../../Drivers/STM32L5xx_HAL_Driver/Src/stm32l5xx_hal_rtc_ex.c ****   /* Change RTC state */
 771:../../Drivers/STM32L5xx_HAL_Driver/Src/stm32l5xx_hal_rtc_ex.c ****   hrtc->State = HAL_RTC_STATE_READY;
 772:../../Drivers/STM32L5xx_HAL_Driver/Src/stm32l5xx_hal_rtc_ex.c **** }
 773:../../Drivers/STM32L5xx_HAL_Driver/Src/stm32l5xx_hal_rtc_ex.c **** 
 774:../../Drivers/STM32L5xx_HAL_Driver/Src/stm32l5xx_hal_rtc_ex.c **** #else /* #if defined (__ARM_FEATURE_CMSE) && (__ARM_FEATURE_CMSE == 3U) */
 775:../../Drivers/STM32L5xx_HAL_Driver/Src/stm32l5xx_hal_rtc_ex.c **** 
 776:../../Drivers/STM32L5xx_HAL_Driver/Src/stm32l5xx_hal_rtc_ex.c **** /**
 777:../../Drivers/STM32L5xx_HAL_Driver/Src/stm32l5xx_hal_rtc_ex.c ****   * @brief  Handle Wake Up Timer non-secure interrupt request.
 778:../../Drivers/STM32L5xx_HAL_Driver/Src/stm32l5xx_hal_rtc_ex.c ****   * @param  hrtc RTC handle
 779:../../Drivers/STM32L5xx_HAL_Driver/Src/stm32l5xx_hal_rtc_ex.c ****   * @retval None
 780:../../Drivers/STM32L5xx_HAL_Driver/Src/stm32l5xx_hal_rtc_ex.c ****   */
 781:../../Drivers/STM32L5xx_HAL_Driver/Src/stm32l5xx_hal_rtc_ex.c **** void HAL_RTCEx_WakeUpTimerIRQHandler(RTC_HandleTypeDef *hrtc)
 782:../../Drivers/STM32L5xx_HAL_Driver/Src/stm32l5xx_hal_rtc_ex.c **** {
 783:../../Drivers/STM32L5xx_HAL_Driver/Src/stm32l5xx_hal_rtc_ex.c ****   /* Get the pending status of the WAKEUPTIMER Interrupt */
 784:../../Drivers/STM32L5xx_HAL_Driver/Src/stm32l5xx_hal_rtc_ex.c ****   if (READ_BIT(RTC->MISR, RTC_MISR_WUTMF) != 0U)
 785:../../Drivers/STM32L5xx_HAL_Driver/Src/stm32l5xx_hal_rtc_ex.c ****   {
 786:../../Drivers/STM32L5xx_HAL_Driver/Src/stm32l5xx_hal_rtc_ex.c ****     /* Clear the WAKEUPTIMER interrupt pending bit */
 787:../../Drivers/STM32L5xx_HAL_Driver/Src/stm32l5xx_hal_rtc_ex.c ****     WRITE_REG(RTC->SCR, RTC_SCR_CWUTF);
 788:../../Drivers/STM32L5xx_HAL_Driver/Src/stm32l5xx_hal_rtc_ex.c **** 
 789:../../Drivers/STM32L5xx_HAL_Driver/Src/stm32l5xx_hal_rtc_ex.c **** #if (USE_HAL_RTC_REGISTER_CALLBACKS == 1)
 790:../../Drivers/STM32L5xx_HAL_Driver/Src/stm32l5xx_hal_rtc_ex.c ****     /* Call WakeUpTimerEvent registered Callback */
 791:../../Drivers/STM32L5xx_HAL_Driver/Src/stm32l5xx_hal_rtc_ex.c ****     hrtc->WakeUpTimerEventCallback(hrtc);
 792:../../Drivers/STM32L5xx_HAL_Driver/Src/stm32l5xx_hal_rtc_ex.c **** #else
 793:../../Drivers/STM32L5xx_HAL_Driver/Src/stm32l5xx_hal_rtc_ex.c ****     /* WAKEUPTIMER callback */
 794:../../Drivers/STM32L5xx_HAL_Driver/Src/stm32l5xx_hal_rtc_ex.c ****     HAL_RTCEx_WakeUpTimerEventCallback(hrtc);
 795:../../Drivers/STM32L5xx_HAL_Driver/Src/stm32l5xx_hal_rtc_ex.c **** #endif /* USE_HAL_RTC_REGISTER_CALLBACKS */
 796:../../Drivers/STM32L5xx_HAL_Driver/Src/stm32l5xx_hal_rtc_ex.c ****   }
 797:../../Drivers/STM32L5xx_HAL_Driver/Src/stm32l5xx_hal_rtc_ex.c **** 
 798:../../Drivers/STM32L5xx_HAL_Driver/Src/stm32l5xx_hal_rtc_ex.c ****   /* Change RTC state */
 799:../../Drivers/STM32L5xx_HAL_Driver/Src/stm32l5xx_hal_rtc_ex.c ****   hrtc->State = HAL_RTC_STATE_READY;
 800:../../Drivers/STM32L5xx_HAL_Driver/Src/stm32l5xx_hal_rtc_ex.c **** }
 801:../../Drivers/STM32L5xx_HAL_Driver/Src/stm32l5xx_hal_rtc_ex.c **** #endif /* #if defined (__ARM_FEATURE_CMSE) && (__ARM_FEATURE_CMSE == 3U) */
 802:../../Drivers/STM32L5xx_HAL_Driver/Src/stm32l5xx_hal_rtc_ex.c **** 
 803:../../Drivers/STM32L5xx_HAL_Driver/Src/stm32l5xx_hal_rtc_ex.c **** /**
 804:../../Drivers/STM32L5xx_HAL_Driver/Src/stm32l5xx_hal_rtc_ex.c ****   * @brief  Wake Up Timer callback.
 805:../../Drivers/STM32L5xx_HAL_Driver/Src/stm32l5xx_hal_rtc_ex.c ****   * @param  hrtc RTC handle
 806:../../Drivers/STM32L5xx_HAL_Driver/Src/stm32l5xx_hal_rtc_ex.c ****   * @retval None
 807:../../Drivers/STM32L5xx_HAL_Driver/Src/stm32l5xx_hal_rtc_ex.c ****   */
 808:../../Drivers/STM32L5xx_HAL_Driver/Src/stm32l5xx_hal_rtc_ex.c **** __weak void HAL_RTCEx_WakeUpTimerEventCallback(RTC_HandleTypeDef *hrtc)
 809:../../Drivers/STM32L5xx_HAL_Driver/Src/stm32l5xx_hal_rtc_ex.c **** {
 1282              		.loc 1 809 1 is_stmt 1 view -0
 1283              		.cfi_startproc
 1284              		@ args = 0, pretend = 0, frame = 0
 1285              		@ frame_needed = 0, uses_anonymous_args = 0
 1286              		@ link register save eliminated.
 810:../../Drivers/STM32L5xx_HAL_Driver/Src/stm32l5xx_hal_rtc_ex.c ****   /* Prevent unused argument(s) compilation warning */
 811:../../Drivers/STM32L5xx_HAL_Driver/Src/stm32l5xx_hal_rtc_ex.c ****   UNUSED(hrtc);
 1287              		.loc 1 811 3 view .LVU419
 812:../../Drivers/STM32L5xx_HAL_Driver/Src/stm32l5xx_hal_rtc_ex.c **** 
 813:../../Drivers/STM32L5xx_HAL_Driver/Src/stm32l5xx_hal_rtc_ex.c ****   /* NOTE : This function should not be modified, when the callback is needed,
 814:../../Drivers/STM32L5xx_HAL_Driver/Src/stm32l5xx_hal_rtc_ex.c ****             the HAL_RTCEx_WakeUpTimerEventCallback could be implemented in the user file
 815:../../Drivers/STM32L5xx_HAL_Driver/Src/stm32l5xx_hal_rtc_ex.c ****    */
 816:../../Drivers/STM32L5xx_HAL_Driver/Src/stm32l5xx_hal_rtc_ex.c **** }
 1288              		.loc 1 816 1 is_stmt 0 view .LVU420
 1289 0000 7047     		bx	lr
 1290              		.cfi_endproc
ARM GAS  C:\Users\carlos\AppData\Local\Temp\ccaMGGVT.s 			page 39


 1291              	.LFE216:
 1293              		.section	.text.HAL_RTCEx_WakeUpTimerIRQHandler,"ax",%progbits
 1294              		.align	1
 1295              		.global	HAL_RTCEx_WakeUpTimerIRQHandler
 1296              		.syntax unified
 1297              		.thumb
 1298              		.thumb_func
 1299              		.fpu fpv4-sp-d16
 1301              	HAL_RTCEx_WakeUpTimerIRQHandler:
 1302              	.LVL82:
 1303              	.LFB215:
 757:../../Drivers/STM32L5xx_HAL_Driver/Src/stm32l5xx_hal_rtc_ex.c ****   if ((RTC->SMISR & RTC_SMISR_WUTMF) != 0u)
 1304              		.loc 1 757 1 is_stmt 1 view -0
 1305              		.cfi_startproc
 1306              		@ args = 0, pretend = 0, frame = 0
 1307              		@ frame_needed = 0, uses_anonymous_args = 0
 757:../../Drivers/STM32L5xx_HAL_Driver/Src/stm32l5xx_hal_rtc_ex.c ****   if ((RTC->SMISR & RTC_SMISR_WUTMF) != 0u)
 1308              		.loc 1 757 1 is_stmt 0 view .LVU422
 1309 0000 10B5     		push	{r4, lr}
 1310              	.LCFI6:
 1311              		.cfi_def_cfa_offset 8
 1312              		.cfi_offset 4, -8
 1313              		.cfi_offset 14, -4
 1314 0002 0446     		mov	r4, r0
 758:../../Drivers/STM32L5xx_HAL_Driver/Src/stm32l5xx_hal_rtc_ex.c ****   {
 1315              		.loc 1 758 3 is_stmt 1 view .LVU423
 758:../../Drivers/STM32L5xx_HAL_Driver/Src/stm32l5xx_hal_rtc_ex.c ****   {
 1316              		.loc 1 758 11 is_stmt 0 view .LVU424
 1317 0004 074B     		ldr	r3, .L90
 1318 0006 9B6D     		ldr	r3, [r3, #88]
 758:../../Drivers/STM32L5xx_HAL_Driver/Src/stm32l5xx_hal_rtc_ex.c ****   {
 1319              		.loc 1 758 6 view .LVU425
 1320 0008 13F0040F 		tst	r3, #4
 1321 000c 03D1     		bne	.L89
 1322              	.LVL83:
 1323              	.L87:
 771:../../Drivers/STM32L5xx_HAL_Driver/Src/stm32l5xx_hal_rtc_ex.c **** }
 1324              		.loc 1 771 3 is_stmt 1 view .LVU426
 771:../../Drivers/STM32L5xx_HAL_Driver/Src/stm32l5xx_hal_rtc_ex.c **** }
 1325              		.loc 1 771 15 is_stmt 0 view .LVU427
 1326 000e 0123     		movs	r3, #1
 1327 0010 84F82530 		strb	r3, [r4, #37]
 772:../../Drivers/STM32L5xx_HAL_Driver/Src/stm32l5xx_hal_rtc_ex.c **** 
 1328              		.loc 1 772 1 view .LVU428
 1329 0014 10BD     		pop	{r4, pc}
 1330              	.LVL84:
 1331              	.L89:
 761:../../Drivers/STM32L5xx_HAL_Driver/Src/stm32l5xx_hal_rtc_ex.c **** #if (USE_HAL_RTC_REGISTER_CALLBACKS == 1)
 1332              		.loc 1 761 5 is_stmt 1 view .LVU429
 1333 0016 034B     		ldr	r3, .L90
 1334 0018 0422     		movs	r2, #4
 1335 001a DA65     		str	r2, [r3, #92]
 766:../../Drivers/STM32L5xx_HAL_Driver/Src/stm32l5xx_hal_rtc_ex.c **** #endif
 1336              		.loc 1 766 5 view .LVU430
 1337 001c FFF7FEFF 		bl	HAL_RTCEx_WakeUpTimerEventCallback
 1338              	.LVL85:
 766:../../Drivers/STM32L5xx_HAL_Driver/Src/stm32l5xx_hal_rtc_ex.c **** #endif
ARM GAS  C:\Users\carlos\AppData\Local\Temp\ccaMGGVT.s 			page 40


 1339              		.loc 1 766 5 is_stmt 0 view .LVU431
 1340 0020 F5E7     		b	.L87
 1341              	.L91:
 1342 0022 00BF     		.align	2
 1343              	.L90:
 1344 0024 00280050 		.word	1342187520
 1345              		.cfi_endproc
 1346              	.LFE215:
 1348              		.section	.text.HAL_RTCEx_PollForWakeUpTimerEvent,"ax",%progbits
 1349              		.align	1
 1350              		.global	HAL_RTCEx_PollForWakeUpTimerEvent
 1351              		.syntax unified
 1352              		.thumb
 1353              		.thumb_func
 1354              		.fpu fpv4-sp-d16
 1356              	HAL_RTCEx_PollForWakeUpTimerEvent:
 1357              	.LVL86:
 1358              	.LFB217:
 817:../../Drivers/STM32L5xx_HAL_Driver/Src/stm32l5xx_hal_rtc_ex.c **** 
 818:../../Drivers/STM32L5xx_HAL_Driver/Src/stm32l5xx_hal_rtc_ex.c **** /**
 819:../../Drivers/STM32L5xx_HAL_Driver/Src/stm32l5xx_hal_rtc_ex.c ****   * @brief  Handle Wake Up Timer Polling.
 820:../../Drivers/STM32L5xx_HAL_Driver/Src/stm32l5xx_hal_rtc_ex.c ****   * @param  hrtc RTC handle
 821:../../Drivers/STM32L5xx_HAL_Driver/Src/stm32l5xx_hal_rtc_ex.c ****   * @param  Timeout Timeout duration
 822:../../Drivers/STM32L5xx_HAL_Driver/Src/stm32l5xx_hal_rtc_ex.c ****   * @retval HAL status
 823:../../Drivers/STM32L5xx_HAL_Driver/Src/stm32l5xx_hal_rtc_ex.c ****   */
 824:../../Drivers/STM32L5xx_HAL_Driver/Src/stm32l5xx_hal_rtc_ex.c **** HAL_StatusTypeDef HAL_RTCEx_PollForWakeUpTimerEvent(RTC_HandleTypeDef *hrtc, uint32_t Timeout)
 825:../../Drivers/STM32L5xx_HAL_Driver/Src/stm32l5xx_hal_rtc_ex.c **** {
 1359              		.loc 1 825 1 is_stmt 1 view -0
 1360              		.cfi_startproc
 1361              		@ args = 0, pretend = 0, frame = 0
 1362              		@ frame_needed = 0, uses_anonymous_args = 0
 1363              		.loc 1 825 1 is_stmt 0 view .LVU433
 1364 0000 70B5     		push	{r4, r5, r6, lr}
 1365              	.LCFI7:
 1366              		.cfi_def_cfa_offset 16
 1367              		.cfi_offset 4, -16
 1368              		.cfi_offset 5, -12
 1369              		.cfi_offset 6, -8
 1370              		.cfi_offset 14, -4
 1371 0002 0546     		mov	r5, r0
 1372 0004 0C46     		mov	r4, r1
 826:../../Drivers/STM32L5xx_HAL_Driver/Src/stm32l5xx_hal_rtc_ex.c ****   uint32_t tickstart = HAL_GetTick();
 1373              		.loc 1 826 3 is_stmt 1 view .LVU434
 1374              		.loc 1 826 24 is_stmt 0 view .LVU435
 1375 0006 FFF7FEFF 		bl	HAL_GetTick
 1376              	.LVL87:
 1377              		.loc 1 826 24 view .LVU436
 1378 000a 0646     		mov	r6, r0
 1379              	.LVL88:
 827:../../Drivers/STM32L5xx_HAL_Driver/Src/stm32l5xx_hal_rtc_ex.c **** 
 828:../../Drivers/STM32L5xx_HAL_Driver/Src/stm32l5xx_hal_rtc_ex.c ****   while (READ_BIT(RTC->SR, RTC_SR_WUTF) == 0U)
 1380              		.loc 1 828 3 is_stmt 1 view .LVU437
 1381              	.L94:
 1382              		.loc 1 828 9 view .LVU438
 1383              		.loc 1 828 10 is_stmt 0 view .LVU439
 1384 000c 0D4B     		ldr	r3, .L100
 1385 000e 1B6D     		ldr	r3, [r3, #80]
ARM GAS  C:\Users\carlos\AppData\Local\Temp\ccaMGGVT.s 			page 41


 1386              		.loc 1 828 9 view .LVU440
 1387 0010 13F0040F 		tst	r3, #4
 1388 0014 0DD1     		bne	.L99
 829:../../Drivers/STM32L5xx_HAL_Driver/Src/stm32l5xx_hal_rtc_ex.c ****   {
 830:../../Drivers/STM32L5xx_HAL_Driver/Src/stm32l5xx_hal_rtc_ex.c ****     if (Timeout != HAL_MAX_DELAY)
 1389              		.loc 1 830 5 is_stmt 1 view .LVU441
 1390              		.loc 1 830 8 is_stmt 0 view .LVU442
 1391 0016 B4F1FF3F 		cmp	r4, #-1
 1392 001a F7D0     		beq	.L94
 831:../../Drivers/STM32L5xx_HAL_Driver/Src/stm32l5xx_hal_rtc_ex.c ****     {
 832:../../Drivers/STM32L5xx_HAL_Driver/Src/stm32l5xx_hal_rtc_ex.c ****       if (((HAL_GetTick() - tickstart) > Timeout) || (Timeout == 0U))
 1393              		.loc 1 832 7 is_stmt 1 view .LVU443
 1394              		.loc 1 832 13 is_stmt 0 view .LVU444
 1395 001c FFF7FEFF 		bl	HAL_GetTick
 1396              	.LVL89:
 1397              		.loc 1 832 27 view .LVU445
 1398 0020 801B     		subs	r0, r0, r6
 1399              		.loc 1 832 10 view .LVU446
 1400 0022 A042     		cmp	r0, r4
 1401 0024 01D8     		bhi	.L95
 1402              		.loc 1 832 51 discriminator 1 view .LVU447
 1403 0026 002C     		cmp	r4, #0
 1404 0028 F0D1     		bne	.L94
 1405              	.L95:
 833:../../Drivers/STM32L5xx_HAL_Driver/Src/stm32l5xx_hal_rtc_ex.c ****       {
 834:../../Drivers/STM32L5xx_HAL_Driver/Src/stm32l5xx_hal_rtc_ex.c ****         hrtc->State = HAL_RTC_STATE_TIMEOUT;
 1406              		.loc 1 834 9 is_stmt 1 view .LVU448
 1407              		.loc 1 834 21 is_stmt 0 view .LVU449
 1408 002a 0320     		movs	r0, #3
 1409 002c 85F82500 		strb	r0, [r5, #37]
 835:../../Drivers/STM32L5xx_HAL_Driver/Src/stm32l5xx_hal_rtc_ex.c ****         return HAL_TIMEOUT;
 1410              		.loc 1 835 9 is_stmt 1 view .LVU450
 1411              		.loc 1 835 16 is_stmt 0 view .LVU451
 1412 0030 06E0     		b	.L96
 1413              	.L99:
 836:../../Drivers/STM32L5xx_HAL_Driver/Src/stm32l5xx_hal_rtc_ex.c ****       }
 837:../../Drivers/STM32L5xx_HAL_Driver/Src/stm32l5xx_hal_rtc_ex.c ****     }
 838:../../Drivers/STM32L5xx_HAL_Driver/Src/stm32l5xx_hal_rtc_ex.c ****   }
 839:../../Drivers/STM32L5xx_HAL_Driver/Src/stm32l5xx_hal_rtc_ex.c **** 
 840:../../Drivers/STM32L5xx_HAL_Driver/Src/stm32l5xx_hal_rtc_ex.c ****   /* Clear the WAKEUPTIMER Flag */
 841:../../Drivers/STM32L5xx_HAL_Driver/Src/stm32l5xx_hal_rtc_ex.c ****   WRITE_REG(RTC->SCR, RTC_SCR_CWUTF);
 1414              		.loc 1 841 3 is_stmt 1 view .LVU452
 1415 0032 044B     		ldr	r3, .L100
 1416 0034 0422     		movs	r2, #4
 1417 0036 DA65     		str	r2, [r3, #92]
 842:../../Drivers/STM32L5xx_HAL_Driver/Src/stm32l5xx_hal_rtc_ex.c **** 
 843:../../Drivers/STM32L5xx_HAL_Driver/Src/stm32l5xx_hal_rtc_ex.c ****   /* Change RTC state */
 844:../../Drivers/STM32L5xx_HAL_Driver/Src/stm32l5xx_hal_rtc_ex.c ****   hrtc->State = HAL_RTC_STATE_READY;
 1418              		.loc 1 844 3 view .LVU453
 1419              		.loc 1 844 15 is_stmt 0 view .LVU454
 1420 0038 0123     		movs	r3, #1
 1421 003a 85F82530 		strb	r3, [r5, #37]
 845:../../Drivers/STM32L5xx_HAL_Driver/Src/stm32l5xx_hal_rtc_ex.c **** 
 846:../../Drivers/STM32L5xx_HAL_Driver/Src/stm32l5xx_hal_rtc_ex.c ****   return HAL_OK;
 1422              		.loc 1 846 3 is_stmt 1 view .LVU455
 1423              		.loc 1 846 10 is_stmt 0 view .LVU456
 1424 003e 0020     		movs	r0, #0
ARM GAS  C:\Users\carlos\AppData\Local\Temp\ccaMGGVT.s 			page 42


 1425              	.L96:
 847:../../Drivers/STM32L5xx_HAL_Driver/Src/stm32l5xx_hal_rtc_ex.c **** }
 1426              		.loc 1 847 1 view .LVU457
 1427 0040 70BD     		pop	{r4, r5, r6, pc}
 1428              	.LVL90:
 1429              	.L101:
 1430              		.loc 1 847 1 view .LVU458
 1431 0042 00BF     		.align	2
 1432              	.L100:
 1433 0044 00280050 		.word	1342187520
 1434              		.cfi_endproc
 1435              	.LFE217:
 1437              		.section	.text.HAL_RTCEx_SetSmoothCalib,"ax",%progbits
 1438              		.align	1
 1439              		.global	HAL_RTCEx_SetSmoothCalib
 1440              		.syntax unified
 1441              		.thumb
 1442              		.thumb_func
 1443              		.fpu fpv4-sp-d16
 1445              	HAL_RTCEx_SetSmoothCalib:
 1446              	.LVL91:
 1447              	.LFB218:
 848:../../Drivers/STM32L5xx_HAL_Driver/Src/stm32l5xx_hal_rtc_ex.c **** 
 849:../../Drivers/STM32L5xx_HAL_Driver/Src/stm32l5xx_hal_rtc_ex.c **** /**
 850:../../Drivers/STM32L5xx_HAL_Driver/Src/stm32l5xx_hal_rtc_ex.c ****   * @}
 851:../../Drivers/STM32L5xx_HAL_Driver/Src/stm32l5xx_hal_rtc_ex.c ****   */
 852:../../Drivers/STM32L5xx_HAL_Driver/Src/stm32l5xx_hal_rtc_ex.c **** 
 853:../../Drivers/STM32L5xx_HAL_Driver/Src/stm32l5xx_hal_rtc_ex.c **** /** @addtogroup RTCEx_Exported_Functions_Group3
 854:../../Drivers/STM32L5xx_HAL_Driver/Src/stm32l5xx_hal_rtc_ex.c ****   * @brief    Extended Peripheral Control functions
 855:../../Drivers/STM32L5xx_HAL_Driver/Src/stm32l5xx_hal_rtc_ex.c ****   *
 856:../../Drivers/STM32L5xx_HAL_Driver/Src/stm32l5xx_hal_rtc_ex.c **** @verbatim
 857:../../Drivers/STM32L5xx_HAL_Driver/Src/stm32l5xx_hal_rtc_ex.c ****  ===============================================================================
 858:../../Drivers/STM32L5xx_HAL_Driver/Src/stm32l5xx_hal_rtc_ex.c ****               ##### Extended Peripheral Control functions #####
 859:../../Drivers/STM32L5xx_HAL_Driver/Src/stm32l5xx_hal_rtc_ex.c ****  ===============================================================================
 860:../../Drivers/STM32L5xx_HAL_Driver/Src/stm32l5xx_hal_rtc_ex.c ****     [..]
 861:../../Drivers/STM32L5xx_HAL_Driver/Src/stm32l5xx_hal_rtc_ex.c ****     This subsection provides functions allowing to
 862:../../Drivers/STM32L5xx_HAL_Driver/Src/stm32l5xx_hal_rtc_ex.c ****       (+) Write a data in a specified RTC Backup data register
 863:../../Drivers/STM32L5xx_HAL_Driver/Src/stm32l5xx_hal_rtc_ex.c ****       (+) Read a data in a specified RTC Backup data register
 864:../../Drivers/STM32L5xx_HAL_Driver/Src/stm32l5xx_hal_rtc_ex.c ****       (+) Set the Coarse calibration parameters.
 865:../../Drivers/STM32L5xx_HAL_Driver/Src/stm32l5xx_hal_rtc_ex.c ****       (+) Deactivate the Coarse calibration parameters
 866:../../Drivers/STM32L5xx_HAL_Driver/Src/stm32l5xx_hal_rtc_ex.c ****       (+) Set the Smooth calibration parameters.
 867:../../Drivers/STM32L5xx_HAL_Driver/Src/stm32l5xx_hal_rtc_ex.c ****       (+) Set Low Power calibration parameter.
 868:../../Drivers/STM32L5xx_HAL_Driver/Src/stm32l5xx_hal_rtc_ex.c ****       (+) Configure the Synchronization Shift Control Settings.
 869:../../Drivers/STM32L5xx_HAL_Driver/Src/stm32l5xx_hal_rtc_ex.c ****       (+) Configure the Calibration Pinout (RTC_CALIB) Selection (1Hz or 512Hz).
 870:../../Drivers/STM32L5xx_HAL_Driver/Src/stm32l5xx_hal_rtc_ex.c ****       (+) Deactivate the Calibration Pinout (RTC_CALIB) Selection (1Hz or 512Hz).
 871:../../Drivers/STM32L5xx_HAL_Driver/Src/stm32l5xx_hal_rtc_ex.c ****       (+) Enable the RTC reference clock detection.
 872:../../Drivers/STM32L5xx_HAL_Driver/Src/stm32l5xx_hal_rtc_ex.c ****       (+) Disable the RTC reference clock detection.
 873:../../Drivers/STM32L5xx_HAL_Driver/Src/stm32l5xx_hal_rtc_ex.c ****       (+) Enable the Bypass Shadow feature.
 874:../../Drivers/STM32L5xx_HAL_Driver/Src/stm32l5xx_hal_rtc_ex.c ****       (+) Disable the Bypass Shadow feature.
 875:../../Drivers/STM32L5xx_HAL_Driver/Src/stm32l5xx_hal_rtc_ex.c **** 
 876:../../Drivers/STM32L5xx_HAL_Driver/Src/stm32l5xx_hal_rtc_ex.c **** @endverbatim
 877:../../Drivers/STM32L5xx_HAL_Driver/Src/stm32l5xx_hal_rtc_ex.c ****   * @{
 878:../../Drivers/STM32L5xx_HAL_Driver/Src/stm32l5xx_hal_rtc_ex.c ****   */
 879:../../Drivers/STM32L5xx_HAL_Driver/Src/stm32l5xx_hal_rtc_ex.c **** 
 880:../../Drivers/STM32L5xx_HAL_Driver/Src/stm32l5xx_hal_rtc_ex.c **** /**
 881:../../Drivers/STM32L5xx_HAL_Driver/Src/stm32l5xx_hal_rtc_ex.c ****   * @brief  Set the Smooth calibration parameters.
 882:../../Drivers/STM32L5xx_HAL_Driver/Src/stm32l5xx_hal_rtc_ex.c ****   * @note   To deactivate the smooth calibration, the field SmoothCalibPlusPulses
ARM GAS  C:\Users\carlos\AppData\Local\Temp\ccaMGGVT.s 			page 43


 883:../../Drivers/STM32L5xx_HAL_Driver/Src/stm32l5xx_hal_rtc_ex.c ****   *         must be equal to SMOOTHCALIB_PLUSPULSES_RESET and the field
 884:../../Drivers/STM32L5xx_HAL_Driver/Src/stm32l5xx_hal_rtc_ex.c ****   *         SmoothCalibMinusPulsesValue must be equal to 0.
 885:../../Drivers/STM32L5xx_HAL_Driver/Src/stm32l5xx_hal_rtc_ex.c ****   * @param  hrtc RTC handle
 886:../../Drivers/STM32L5xx_HAL_Driver/Src/stm32l5xx_hal_rtc_ex.c ****   * @param  SmoothCalibPeriod  Select the Smooth Calibration Period.
 887:../../Drivers/STM32L5xx_HAL_Driver/Src/stm32l5xx_hal_rtc_ex.c ****   *          This parameter can be can be one of the following values :
 888:../../Drivers/STM32L5xx_HAL_Driver/Src/stm32l5xx_hal_rtc_ex.c ****   *             @arg RTC_SMOOTHCALIB_PERIOD_32SEC: The smooth calibration period is 32s.
 889:../../Drivers/STM32L5xx_HAL_Driver/Src/stm32l5xx_hal_rtc_ex.c ****   *             @arg RTC_SMOOTHCALIB_PERIOD_16SEC: The smooth calibration period is 16s.
 890:../../Drivers/STM32L5xx_HAL_Driver/Src/stm32l5xx_hal_rtc_ex.c ****   *             @arg RTC_SMOOTHCALIB_PERIOD_8SEC: The smooth calibration period is 8s.
 891:../../Drivers/STM32L5xx_HAL_Driver/Src/stm32l5xx_hal_rtc_ex.c ****   * @param  SmoothCalibPlusPulses  Select to Set or reset the CALP bit.
 892:../../Drivers/STM32L5xx_HAL_Driver/Src/stm32l5xx_hal_rtc_ex.c ****   *          This parameter can be one of the following values:
 893:../../Drivers/STM32L5xx_HAL_Driver/Src/stm32l5xx_hal_rtc_ex.c ****   *             @arg RTC_SMOOTHCALIB_PLUSPULSES_SET: Add one RTCCLK pulse every 2*11 pulses.
 894:../../Drivers/STM32L5xx_HAL_Driver/Src/stm32l5xx_hal_rtc_ex.c ****   *             @arg RTC_SMOOTHCALIB_PLUSPULSES_RESET: No RTCCLK pulses are added.
 895:../../Drivers/STM32L5xx_HAL_Driver/Src/stm32l5xx_hal_rtc_ex.c ****   * @param  SmoothCalibMinusPulsesValue  Select the value of CALM[8:0] bits.
 896:../../Drivers/STM32L5xx_HAL_Driver/Src/stm32l5xx_hal_rtc_ex.c ****   *          This parameter can be one any value from 0 to 0x000001FF.
 897:../../Drivers/STM32L5xx_HAL_Driver/Src/stm32l5xx_hal_rtc_ex.c ****   * @retval HAL status
 898:../../Drivers/STM32L5xx_HAL_Driver/Src/stm32l5xx_hal_rtc_ex.c ****   */
 899:../../Drivers/STM32L5xx_HAL_Driver/Src/stm32l5xx_hal_rtc_ex.c **** HAL_StatusTypeDef HAL_RTCEx_SetSmoothCalib(RTC_HandleTypeDef *hrtc, uint32_t SmoothCalibPeriod, uin
 900:../../Drivers/STM32L5xx_HAL_Driver/Src/stm32l5xx_hal_rtc_ex.c **** {
 1448              		.loc 1 900 1 is_stmt 1 view -0
 1449              		.cfi_startproc
 1450              		@ args = 0, pretend = 0, frame = 0
 1451              		@ frame_needed = 0, uses_anonymous_args = 0
 1452              		.loc 1 900 1 is_stmt 0 view .LVU460
 1453 0000 2DE9F041 		push	{r4, r5, r6, r7, r8, lr}
 1454              	.LCFI8:
 1455              		.cfi_def_cfa_offset 24
 1456              		.cfi_offset 4, -24
 1457              		.cfi_offset 5, -20
 1458              		.cfi_offset 6, -16
 1459              		.cfi_offset 7, -12
 1460              		.cfi_offset 8, -8
 1461              		.cfi_offset 14, -4
 1462 0004 1E46     		mov	r6, r3
 901:../../Drivers/STM32L5xx_HAL_Driver/Src/stm32l5xx_hal_rtc_ex.c ****   uint32_t tickstart;
 1463              		.loc 1 901 3 is_stmt 1 view .LVU461
 902:../../Drivers/STM32L5xx_HAL_Driver/Src/stm32l5xx_hal_rtc_ex.c **** 
 903:../../Drivers/STM32L5xx_HAL_Driver/Src/stm32l5xx_hal_rtc_ex.c ****   /* Check the parameters */
 904:../../Drivers/STM32L5xx_HAL_Driver/Src/stm32l5xx_hal_rtc_ex.c ****   assert_param(IS_RTC_SMOOTH_CALIB_PERIOD(SmoothCalibPeriod));
 1464              		.loc 1 904 3 view .LVU462
 905:../../Drivers/STM32L5xx_HAL_Driver/Src/stm32l5xx_hal_rtc_ex.c ****   assert_param(IS_RTC_SMOOTH_CALIB_PLUS(SmoothCalibPlusPulses));
 1465              		.loc 1 905 3 view .LVU463
 906:../../Drivers/STM32L5xx_HAL_Driver/Src/stm32l5xx_hal_rtc_ex.c ****   assert_param(IS_RTC_SMOOTH_CALIB_MINUS(SmoothCalibMinusPulsesValue));
 1466              		.loc 1 906 3 view .LVU464
 907:../../Drivers/STM32L5xx_HAL_Driver/Src/stm32l5xx_hal_rtc_ex.c **** 
 908:../../Drivers/STM32L5xx_HAL_Driver/Src/stm32l5xx_hal_rtc_ex.c ****   /* Process Locked */
 909:../../Drivers/STM32L5xx_HAL_Driver/Src/stm32l5xx_hal_rtc_ex.c ****   __HAL_LOCK(hrtc);
 1467              		.loc 1 909 3 view .LVU465
 1468              		.loc 1 909 3 view .LVU466
 1469 0006 90F82430 		ldrb	r3, [r0, #36]	@ zero_extendqisi2
 1470              	.LVL92:
 1471              		.loc 1 909 3 is_stmt 0 view .LVU467
 1472 000a 012B     		cmp	r3, #1
 1473 000c 3ED0     		beq	.L107
 1474 000e 0446     		mov	r4, r0
 1475 0010 0D46     		mov	r5, r1
 1476 0012 1746     		mov	r7, r2
 1477              		.loc 1 909 3 is_stmt 1 discriminator 2 view .LVU468
ARM GAS  C:\Users\carlos\AppData\Local\Temp\ccaMGGVT.s 			page 44


 1478 0014 0123     		movs	r3, #1
 1479 0016 80F82430 		strb	r3, [r0, #36]
 1480              		.loc 1 909 3 discriminator 2 view .LVU469
 910:../../Drivers/STM32L5xx_HAL_Driver/Src/stm32l5xx_hal_rtc_ex.c **** 
 911:../../Drivers/STM32L5xx_HAL_Driver/Src/stm32l5xx_hal_rtc_ex.c ****   hrtc->State = HAL_RTC_STATE_BUSY;
 1481              		.loc 1 911 3 discriminator 2 view .LVU470
 1482              		.loc 1 911 15 is_stmt 0 discriminator 2 view .LVU471
 1483 001a 0223     		movs	r3, #2
 1484 001c 80F82530 		strb	r3, [r0, #37]
 912:../../Drivers/STM32L5xx_HAL_Driver/Src/stm32l5xx_hal_rtc_ex.c **** 
 913:../../Drivers/STM32L5xx_HAL_Driver/Src/stm32l5xx_hal_rtc_ex.c ****   /* Disable the write protection for RTC registers */
 914:../../Drivers/STM32L5xx_HAL_Driver/Src/stm32l5xx_hal_rtc_ex.c ****   __HAL_RTC_WRITEPROTECTION_DISABLE(hrtc);
 1485              		.loc 1 914 3 is_stmt 1 discriminator 2 view .LVU472
 1486              		.loc 1 914 3 discriminator 2 view .LVU473
 1487 0020 1B4B     		ldr	r3, .L110
 1488 0022 CA22     		movs	r2, #202
 1489              	.LVL93:
 1490              		.loc 1 914 3 is_stmt 0 discriminator 2 view .LVU474
 1491 0024 5A62     		str	r2, [r3, #36]
 1492              		.loc 1 914 3 is_stmt 1 discriminator 2 view .LVU475
 1493 0026 5322     		movs	r2, #83
 1494 0028 5A62     		str	r2, [r3, #36]
 1495              		.loc 1 914 3 discriminator 2 view .LVU476
 915:../../Drivers/STM32L5xx_HAL_Driver/Src/stm32l5xx_hal_rtc_ex.c **** 
 916:../../Drivers/STM32L5xx_HAL_Driver/Src/stm32l5xx_hal_rtc_ex.c ****   /* check if a calibration is pending*/
 917:../../Drivers/STM32L5xx_HAL_Driver/Src/stm32l5xx_hal_rtc_ex.c ****   if (READ_BIT(RTC->ICSR, RTC_ICSR_RECALPF) != 0U)
 1496              		.loc 1 917 3 discriminator 2 view .LVU477
 1497              		.loc 1 917 7 is_stmt 0 discriminator 2 view .LVU478
 1498 002a DB68     		ldr	r3, [r3, #12]
 1499              		.loc 1 917 6 discriminator 2 view .LVU479
 1500 002c 13F4803F 		tst	r3, #65536
 1501 0030 13D1     		bne	.L109
 1502              	.LVL94:
 1503              	.L104:
 918:../../Drivers/STM32L5xx_HAL_Driver/Src/stm32l5xx_hal_rtc_ex.c ****   {
 919:../../Drivers/STM32L5xx_HAL_Driver/Src/stm32l5xx_hal_rtc_ex.c ****     tickstart = HAL_GetTick();
 920:../../Drivers/STM32L5xx_HAL_Driver/Src/stm32l5xx_hal_rtc_ex.c **** 
 921:../../Drivers/STM32L5xx_HAL_Driver/Src/stm32l5xx_hal_rtc_ex.c ****     /* check if a calibration is pending*/
 922:../../Drivers/STM32L5xx_HAL_Driver/Src/stm32l5xx_hal_rtc_ex.c ****     while (READ_BIT(RTC->ICSR, RTC_ICSR_RECALPF) != 0U)
 923:../../Drivers/STM32L5xx_HAL_Driver/Src/stm32l5xx_hal_rtc_ex.c ****     {
 924:../../Drivers/STM32L5xx_HAL_Driver/Src/stm32l5xx_hal_rtc_ex.c ****       if ((HAL_GetTick() - tickstart) > RTC_TIMEOUT_VALUE)
 925:../../Drivers/STM32L5xx_HAL_Driver/Src/stm32l5xx_hal_rtc_ex.c ****       {
 926:../../Drivers/STM32L5xx_HAL_Driver/Src/stm32l5xx_hal_rtc_ex.c ****         /* Enable the write protection for RTC registers */
 927:../../Drivers/STM32L5xx_HAL_Driver/Src/stm32l5xx_hal_rtc_ex.c ****         __HAL_RTC_WRITEPROTECTION_ENABLE(hrtc);
 928:../../Drivers/STM32L5xx_HAL_Driver/Src/stm32l5xx_hal_rtc_ex.c **** 
 929:../../Drivers/STM32L5xx_HAL_Driver/Src/stm32l5xx_hal_rtc_ex.c ****         /* Change RTC state */
 930:../../Drivers/STM32L5xx_HAL_Driver/Src/stm32l5xx_hal_rtc_ex.c ****         hrtc->State = HAL_RTC_STATE_TIMEOUT;
 931:../../Drivers/STM32L5xx_HAL_Driver/Src/stm32l5xx_hal_rtc_ex.c **** 
 932:../../Drivers/STM32L5xx_HAL_Driver/Src/stm32l5xx_hal_rtc_ex.c ****         /* Process Unlocked */
 933:../../Drivers/STM32L5xx_HAL_Driver/Src/stm32l5xx_hal_rtc_ex.c ****         __HAL_UNLOCK(hrtc);
 934:../../Drivers/STM32L5xx_HAL_Driver/Src/stm32l5xx_hal_rtc_ex.c **** 
 935:../../Drivers/STM32L5xx_HAL_Driver/Src/stm32l5xx_hal_rtc_ex.c ****         return HAL_TIMEOUT;
 936:../../Drivers/STM32L5xx_HAL_Driver/Src/stm32l5xx_hal_rtc_ex.c ****       }
 937:../../Drivers/STM32L5xx_HAL_Driver/Src/stm32l5xx_hal_rtc_ex.c ****     }
 938:../../Drivers/STM32L5xx_HAL_Driver/Src/stm32l5xx_hal_rtc_ex.c ****   }
 939:../../Drivers/STM32L5xx_HAL_Driver/Src/stm32l5xx_hal_rtc_ex.c **** 
 940:../../Drivers/STM32L5xx_HAL_Driver/Src/stm32l5xx_hal_rtc_ex.c ****   /* Configure the Smooth calibration settings */
ARM GAS  C:\Users\carlos\AppData\Local\Temp\ccaMGGVT.s 			page 45


 941:../../Drivers/STM32L5xx_HAL_Driver/Src/stm32l5xx_hal_rtc_ex.c ****   MODIFY_REG(RTC->CALR, (RTC_CALR_CALP | RTC_CALR_CALW8 | RTC_CALR_CALW16 | RTC_CALR_CALM), (uint32
 1504              		.loc 1 941 3 is_stmt 1 view .LVU480
 1505 0032 174B     		ldr	r3, .L110
 1506 0034 986A     		ldr	r0, [r3, #40]
 1507 0036 20F46140 		bic	r0, r0, #57600
 1508 003a 20F0FF00 		bic	r0, r0, #255
 1509 003e 3D43     		orrs	r5, r5, r7
 1510              	.LVL95:
 1511              		.loc 1 941 3 is_stmt 0 view .LVU481
 1512 0040 2E43     		orrs	r6, r6, r5
 1513              	.LVL96:
 1514              		.loc 1 941 3 view .LVU482
 1515 0042 3043     		orrs	r0, r0, r6
 1516 0044 9862     		str	r0, [r3, #40]
 942:../../Drivers/STM32L5xx_HAL_Driver/Src/stm32l5xx_hal_rtc_ex.c **** 
 943:../../Drivers/STM32L5xx_HAL_Driver/Src/stm32l5xx_hal_rtc_ex.c ****   /* Enable the write protection for RTC registers */
 944:../../Drivers/STM32L5xx_HAL_Driver/Src/stm32l5xx_hal_rtc_ex.c ****   __HAL_RTC_WRITEPROTECTION_ENABLE(hrtc);
 1517              		.loc 1 944 3 is_stmt 1 view .LVU483
 1518              		.loc 1 944 3 view .LVU484
 1519 0046 FF22     		movs	r2, #255
 1520 0048 5A62     		str	r2, [r3, #36]
 1521              		.loc 1 944 3 view .LVU485
 945:../../Drivers/STM32L5xx_HAL_Driver/Src/stm32l5xx_hal_rtc_ex.c **** 
 946:../../Drivers/STM32L5xx_HAL_Driver/Src/stm32l5xx_hal_rtc_ex.c ****   /* Change RTC state */
 947:../../Drivers/STM32L5xx_HAL_Driver/Src/stm32l5xx_hal_rtc_ex.c ****   hrtc->State = HAL_RTC_STATE_READY;
 1522              		.loc 1 947 3 view .LVU486
 1523              		.loc 1 947 15 is_stmt 0 view .LVU487
 1524 004a 0123     		movs	r3, #1
 1525 004c 84F82530 		strb	r3, [r4, #37]
 948:../../Drivers/STM32L5xx_HAL_Driver/Src/stm32l5xx_hal_rtc_ex.c **** 
 949:../../Drivers/STM32L5xx_HAL_Driver/Src/stm32l5xx_hal_rtc_ex.c ****   /* Process Unlocked */
 950:../../Drivers/STM32L5xx_HAL_Driver/Src/stm32l5xx_hal_rtc_ex.c ****   __HAL_UNLOCK(hrtc);
 1526              		.loc 1 950 3 is_stmt 1 view .LVU488
 1527              		.loc 1 950 3 view .LVU489
 1528 0050 0020     		movs	r0, #0
 1529 0052 84F82400 		strb	r0, [r4, #36]
 1530              		.loc 1 950 3 view .LVU490
 951:../../Drivers/STM32L5xx_HAL_Driver/Src/stm32l5xx_hal_rtc_ex.c **** 
 952:../../Drivers/STM32L5xx_HAL_Driver/Src/stm32l5xx_hal_rtc_ex.c ****   return HAL_OK;
 1531              		.loc 1 952 3 view .LVU491
 1532              	.LVL97:
 1533              	.L103:
 953:../../Drivers/STM32L5xx_HAL_Driver/Src/stm32l5xx_hal_rtc_ex.c **** }
 1534              		.loc 1 953 1 is_stmt 0 view .LVU492
 1535 0056 BDE8F081 		pop	{r4, r5, r6, r7, r8, pc}
 1536              	.LVL98:
 1537              	.L109:
 919:../../Drivers/STM32L5xx_HAL_Driver/Src/stm32l5xx_hal_rtc_ex.c **** 
 1538              		.loc 1 919 5 is_stmt 1 view .LVU493
 919:../../Drivers/STM32L5xx_HAL_Driver/Src/stm32l5xx_hal_rtc_ex.c **** 
 1539              		.loc 1 919 17 is_stmt 0 view .LVU494
 1540 005a FFF7FEFF 		bl	HAL_GetTick
 1541              	.LVL99:
 919:../../Drivers/STM32L5xx_HAL_Driver/Src/stm32l5xx_hal_rtc_ex.c **** 
 1542              		.loc 1 919 17 view .LVU495
 1543 005e 8046     		mov	r8, r0
 1544              	.LVL100:
ARM GAS  C:\Users\carlos\AppData\Local\Temp\ccaMGGVT.s 			page 46


 922:../../Drivers/STM32L5xx_HAL_Driver/Src/stm32l5xx_hal_rtc_ex.c ****     {
 1545              		.loc 1 922 5 is_stmt 1 view .LVU496
 1546              	.L105:
 922:../../Drivers/STM32L5xx_HAL_Driver/Src/stm32l5xx_hal_rtc_ex.c ****     {
 1547              		.loc 1 922 11 view .LVU497
 922:../../Drivers/STM32L5xx_HAL_Driver/Src/stm32l5xx_hal_rtc_ex.c ****     {
 1548              		.loc 1 922 12 is_stmt 0 view .LVU498
 1549 0060 0B4B     		ldr	r3, .L110
 1550 0062 DB68     		ldr	r3, [r3, #12]
 922:../../Drivers/STM32L5xx_HAL_Driver/Src/stm32l5xx_hal_rtc_ex.c ****     {
 1551              		.loc 1 922 11 view .LVU499
 1552 0064 13F4803F 		tst	r3, #65536
 1553 0068 E3D0     		beq	.L104
 924:../../Drivers/STM32L5xx_HAL_Driver/Src/stm32l5xx_hal_rtc_ex.c ****       {
 1554              		.loc 1 924 7 is_stmt 1 view .LVU500
 924:../../Drivers/STM32L5xx_HAL_Driver/Src/stm32l5xx_hal_rtc_ex.c ****       {
 1555              		.loc 1 924 12 is_stmt 0 view .LVU501
 1556 006a FFF7FEFF 		bl	HAL_GetTick
 1557              	.LVL101:
 924:../../Drivers/STM32L5xx_HAL_Driver/Src/stm32l5xx_hal_rtc_ex.c ****       {
 1558              		.loc 1 924 26 view .LVU502
 1559 006e A0EB080C 		sub	ip, r0, r8
 924:../../Drivers/STM32L5xx_HAL_Driver/Src/stm32l5xx_hal_rtc_ex.c ****       {
 1560              		.loc 1 924 10 view .LVU503
 1561 0072 BCF57A7F 		cmp	ip, #1000
 1562 0076 F3D9     		bls	.L105
 927:../../Drivers/STM32L5xx_HAL_Driver/Src/stm32l5xx_hal_rtc_ex.c **** 
 1563              		.loc 1 927 9 is_stmt 1 view .LVU504
 927:../../Drivers/STM32L5xx_HAL_Driver/Src/stm32l5xx_hal_rtc_ex.c **** 
 1564              		.loc 1 927 9 view .LVU505
 1565 0078 054B     		ldr	r3, .L110
 1566 007a FF22     		movs	r2, #255
 1567 007c 5A62     		str	r2, [r3, #36]
 927:../../Drivers/STM32L5xx_HAL_Driver/Src/stm32l5xx_hal_rtc_ex.c **** 
 1568              		.loc 1 927 9 view .LVU506
 930:../../Drivers/STM32L5xx_HAL_Driver/Src/stm32l5xx_hal_rtc_ex.c **** 
 1569              		.loc 1 930 9 view .LVU507
 930:../../Drivers/STM32L5xx_HAL_Driver/Src/stm32l5xx_hal_rtc_ex.c **** 
 1570              		.loc 1 930 21 is_stmt 0 view .LVU508
 1571 007e 0320     		movs	r0, #3
 1572 0080 84F82500 		strb	r0, [r4, #37]
 933:../../Drivers/STM32L5xx_HAL_Driver/Src/stm32l5xx_hal_rtc_ex.c **** 
 1573              		.loc 1 933 9 is_stmt 1 view .LVU509
 933:../../Drivers/STM32L5xx_HAL_Driver/Src/stm32l5xx_hal_rtc_ex.c **** 
 1574              		.loc 1 933 9 view .LVU510
 1575 0084 0023     		movs	r3, #0
 1576 0086 84F82430 		strb	r3, [r4, #36]
 933:../../Drivers/STM32L5xx_HAL_Driver/Src/stm32l5xx_hal_rtc_ex.c **** 
 1577              		.loc 1 933 9 view .LVU511
 935:../../Drivers/STM32L5xx_HAL_Driver/Src/stm32l5xx_hal_rtc_ex.c ****       }
 1578              		.loc 1 935 9 view .LVU512
 935:../../Drivers/STM32L5xx_HAL_Driver/Src/stm32l5xx_hal_rtc_ex.c ****       }
 1579              		.loc 1 935 16 is_stmt 0 view .LVU513
 1580 008a E4E7     		b	.L103
 1581              	.LVL102:
 1582              	.L107:
 909:../../Drivers/STM32L5xx_HAL_Driver/Src/stm32l5xx_hal_rtc_ex.c **** 
ARM GAS  C:\Users\carlos\AppData\Local\Temp\ccaMGGVT.s 			page 47


 1583              		.loc 1 909 3 view .LVU514
 1584 008c 0220     		movs	r0, #2
 1585              	.LVL103:
 909:../../Drivers/STM32L5xx_HAL_Driver/Src/stm32l5xx_hal_rtc_ex.c **** 
 1586              		.loc 1 909 3 view .LVU515
 1587 008e E2E7     		b	.L103
 1588              	.L111:
 1589              		.align	2
 1590              	.L110:
 1591 0090 00280050 		.word	1342187520
 1592              		.cfi_endproc
 1593              	.LFE218:
 1595              		.section	.text.HAL_RTCEx_SetLowPowerCalib,"ax",%progbits
 1596              		.align	1
 1597              		.global	HAL_RTCEx_SetLowPowerCalib
 1598              		.syntax unified
 1599              		.thumb
 1600              		.thumb_func
 1601              		.fpu fpv4-sp-d16
 1603              	HAL_RTCEx_SetLowPowerCalib:
 1604              	.LVL104:
 1605              	.LFB219:
 954:../../Drivers/STM32L5xx_HAL_Driver/Src/stm32l5xx_hal_rtc_ex.c **** 
 955:../../Drivers/STM32L5xx_HAL_Driver/Src/stm32l5xx_hal_rtc_ex.c **** /**
 956:../../Drivers/STM32L5xx_HAL_Driver/Src/stm32l5xx_hal_rtc_ex.c ****   * @brief  Select the low power Calibration mode.
 957:../../Drivers/STM32L5xx_HAL_Driver/Src/stm32l5xx_hal_rtc_ex.c ****   * @param  hrtc: RTC handle
 958:../../Drivers/STM32L5xx_HAL_Driver/Src/stm32l5xx_hal_rtc_ex.c ****   * @param  LowPowerCalib: Low power Calibration mode.
 959:../../Drivers/STM32L5xx_HAL_Driver/Src/stm32l5xx_hal_rtc_ex.c ****   *          This parameter can be can be one of the following values :
 960:../../Drivers/STM32L5xx_HAL_Driver/Src/stm32l5xx_hal_rtc_ex.c ****   *             @arg RTC_LPCAL_SET: Low power mode.
 961:../../Drivers/STM32L5xx_HAL_Driver/Src/stm32l5xx_hal_rtc_ex.c ****   *             @arg RTC_LPCAL_RESET: High consumption mode.
 962:../../Drivers/STM32L5xx_HAL_Driver/Src/stm32l5xx_hal_rtc_ex.c ****   * @retval HAL status
 963:../../Drivers/STM32L5xx_HAL_Driver/Src/stm32l5xx_hal_rtc_ex.c ****   */
 964:../../Drivers/STM32L5xx_HAL_Driver/Src/stm32l5xx_hal_rtc_ex.c **** HAL_StatusTypeDef HAL_RTCEx_SetLowPowerCalib(RTC_HandleTypeDef *hrtc, uint32_t LowPowerCalib)
 965:../../Drivers/STM32L5xx_HAL_Driver/Src/stm32l5xx_hal_rtc_ex.c **** {
 1606              		.loc 1 965 1 is_stmt 1 view -0
 1607              		.cfi_startproc
 1608              		@ args = 0, pretend = 0, frame = 0
 1609              		@ frame_needed = 0, uses_anonymous_args = 0
 1610              		@ link register save eliminated.
 966:../../Drivers/STM32L5xx_HAL_Driver/Src/stm32l5xx_hal_rtc_ex.c ****   /* Check the parameters */
 967:../../Drivers/STM32L5xx_HAL_Driver/Src/stm32l5xx_hal_rtc_ex.c ****   assert_param(IS_RTC_LOW_POWER_CALIB(LowPowerCalib));
 1611              		.loc 1 967 3 view .LVU517
 968:../../Drivers/STM32L5xx_HAL_Driver/Src/stm32l5xx_hal_rtc_ex.c **** 
 969:../../Drivers/STM32L5xx_HAL_Driver/Src/stm32l5xx_hal_rtc_ex.c ****   /* Process Locked */
 970:../../Drivers/STM32L5xx_HAL_Driver/Src/stm32l5xx_hal_rtc_ex.c ****   __HAL_LOCK(hrtc);
 1612              		.loc 1 970 3 view .LVU518
 1613              		.loc 1 970 3 view .LVU519
 1614 0000 90F82430 		ldrb	r3, [r0, #36]	@ zero_extendqisi2
 1615 0004 012B     		cmp	r3, #1
 1616 0006 19D0     		beq	.L114
 1617              		.loc 1 970 3 discriminator 2 view .LVU520
 1618 0008 4FF0010C 		mov	ip, #1
 1619 000c 80F824C0 		strb	ip, [r0, #36]
 1620              		.loc 1 970 3 discriminator 2 view .LVU521
 971:../../Drivers/STM32L5xx_HAL_Driver/Src/stm32l5xx_hal_rtc_ex.c **** 
 972:../../Drivers/STM32L5xx_HAL_Driver/Src/stm32l5xx_hal_rtc_ex.c ****   hrtc->State = HAL_RTC_STATE_BUSY;
 1621              		.loc 1 972 3 discriminator 2 view .LVU522
ARM GAS  C:\Users\carlos\AppData\Local\Temp\ccaMGGVT.s 			page 48


 1622              		.loc 1 972 15 is_stmt 0 discriminator 2 view .LVU523
 1623 0010 0223     		movs	r3, #2
 1624 0012 80F82530 		strb	r3, [r0, #37]
 973:../../Drivers/STM32L5xx_HAL_Driver/Src/stm32l5xx_hal_rtc_ex.c **** 
 974:../../Drivers/STM32L5xx_HAL_Driver/Src/stm32l5xx_hal_rtc_ex.c ****   /* Disable the write protection for RTC registers */
 975:../../Drivers/STM32L5xx_HAL_Driver/Src/stm32l5xx_hal_rtc_ex.c ****   __HAL_RTC_WRITEPROTECTION_DISABLE(hrtc);
 1625              		.loc 1 975 3 is_stmt 1 discriminator 2 view .LVU524
 1626              		.loc 1 975 3 discriminator 2 view .LVU525
 1627 0016 0A4B     		ldr	r3, .L115
 1628 0018 CA22     		movs	r2, #202
 1629 001a 5A62     		str	r2, [r3, #36]
 1630              		.loc 1 975 3 discriminator 2 view .LVU526
 1631 001c 5322     		movs	r2, #83
 1632 001e 5A62     		str	r2, [r3, #36]
 1633              		.loc 1 975 3 discriminator 2 view .LVU527
 976:../../Drivers/STM32L5xx_HAL_Driver/Src/stm32l5xx_hal_rtc_ex.c **** 
 977:../../Drivers/STM32L5xx_HAL_Driver/Src/stm32l5xx_hal_rtc_ex.c ****   /* Configure the Smooth calibration settings */
 978:../../Drivers/STM32L5xx_HAL_Driver/Src/stm32l5xx_hal_rtc_ex.c ****   MODIFY_REG(RTC->CALR, RTC_CALR_LPCAL, LowPowerCalib);
 1634              		.loc 1 978 3 discriminator 2 view .LVU528
 1635 0020 9A6A     		ldr	r2, [r3, #40]
 1636 0022 22F48052 		bic	r2, r2, #4096
 1637 0026 1143     		orrs	r1, r1, r2
 1638              	.LVL105:
 1639              		.loc 1 978 3 is_stmt 0 discriminator 2 view .LVU529
 1640 0028 9962     		str	r1, [r3, #40]
 979:../../Drivers/STM32L5xx_HAL_Driver/Src/stm32l5xx_hal_rtc_ex.c **** 
 980:../../Drivers/STM32L5xx_HAL_Driver/Src/stm32l5xx_hal_rtc_ex.c ****   /* Enable the write protection for RTC registers */
 981:../../Drivers/STM32L5xx_HAL_Driver/Src/stm32l5xx_hal_rtc_ex.c ****   __HAL_RTC_WRITEPROTECTION_ENABLE(hrtc);
 1641              		.loc 1 981 3 is_stmt 1 discriminator 2 view .LVU530
 1642              		.loc 1 981 3 discriminator 2 view .LVU531
 1643 002a FF22     		movs	r2, #255
 1644 002c 5A62     		str	r2, [r3, #36]
 1645              		.loc 1 981 3 discriminator 2 view .LVU532
 982:../../Drivers/STM32L5xx_HAL_Driver/Src/stm32l5xx_hal_rtc_ex.c **** 
 983:../../Drivers/STM32L5xx_HAL_Driver/Src/stm32l5xx_hal_rtc_ex.c ****   /* Change RTC state */
 984:../../Drivers/STM32L5xx_HAL_Driver/Src/stm32l5xx_hal_rtc_ex.c ****   hrtc->State = HAL_RTC_STATE_READY;
 1646              		.loc 1 984 3 discriminator 2 view .LVU533
 1647              		.loc 1 984 15 is_stmt 0 discriminator 2 view .LVU534
 1648 002e 80F825C0 		strb	ip, [r0, #37]
 985:../../Drivers/STM32L5xx_HAL_Driver/Src/stm32l5xx_hal_rtc_ex.c **** 
 986:../../Drivers/STM32L5xx_HAL_Driver/Src/stm32l5xx_hal_rtc_ex.c ****   /* Process Unlocked */
 987:../../Drivers/STM32L5xx_HAL_Driver/Src/stm32l5xx_hal_rtc_ex.c ****   __HAL_UNLOCK(hrtc);
 1649              		.loc 1 987 3 is_stmt 1 discriminator 2 view .LVU535
 1650              		.loc 1 987 3 discriminator 2 view .LVU536
 1651 0032 0023     		movs	r3, #0
 1652 0034 80F82430 		strb	r3, [r0, #36]
 1653              		.loc 1 987 3 discriminator 2 view .LVU537
 988:../../Drivers/STM32L5xx_HAL_Driver/Src/stm32l5xx_hal_rtc_ex.c **** 
 989:../../Drivers/STM32L5xx_HAL_Driver/Src/stm32l5xx_hal_rtc_ex.c ****   return HAL_OK;
 1654              		.loc 1 989 3 discriminator 2 view .LVU538
 1655              		.loc 1 989 10 is_stmt 0 discriminator 2 view .LVU539
 1656 0038 1846     		mov	r0, r3
 1657              	.LVL106:
 1658              		.loc 1 989 10 discriminator 2 view .LVU540
 1659 003a 7047     		bx	lr
 1660              	.LVL107:
 1661              	.L114:
ARM GAS  C:\Users\carlos\AppData\Local\Temp\ccaMGGVT.s 			page 49


 970:../../Drivers/STM32L5xx_HAL_Driver/Src/stm32l5xx_hal_rtc_ex.c **** 
 1662              		.loc 1 970 3 view .LVU541
 1663 003c 0220     		movs	r0, #2
 1664              	.LVL108:
 990:../../Drivers/STM32L5xx_HAL_Driver/Src/stm32l5xx_hal_rtc_ex.c **** }
 1665              		.loc 1 990 1 view .LVU542
 1666 003e 7047     		bx	lr
 1667              	.L116:
 1668              		.align	2
 1669              	.L115:
 1670 0040 00280050 		.word	1342187520
 1671              		.cfi_endproc
 1672              	.LFE219:
 1674              		.section	.text.HAL_RTCEx_SetSynchroShift,"ax",%progbits
 1675              		.align	1
 1676              		.global	HAL_RTCEx_SetSynchroShift
 1677              		.syntax unified
 1678              		.thumb
 1679              		.thumb_func
 1680              		.fpu fpv4-sp-d16
 1682              	HAL_RTCEx_SetSynchroShift:
 1683              	.LVL109:
 1684              	.LFB220:
 991:../../Drivers/STM32L5xx_HAL_Driver/Src/stm32l5xx_hal_rtc_ex.c **** 
 992:../../Drivers/STM32L5xx_HAL_Driver/Src/stm32l5xx_hal_rtc_ex.c **** /**
 993:../../Drivers/STM32L5xx_HAL_Driver/Src/stm32l5xx_hal_rtc_ex.c ****   * @brief  Configure the Synchronization Shift Control Settings.
 994:../../Drivers/STM32L5xx_HAL_Driver/Src/stm32l5xx_hal_rtc_ex.c ****   * @note   When REFCKON is set, firmware must not write to Shift control register.
 995:../../Drivers/STM32L5xx_HAL_Driver/Src/stm32l5xx_hal_rtc_ex.c ****   * @param  hrtc RTC handle
 996:../../Drivers/STM32L5xx_HAL_Driver/Src/stm32l5xx_hal_rtc_ex.c ****   * @param  ShiftAdd1S Select to add or not 1 second to the time calendar.
 997:../../Drivers/STM32L5xx_HAL_Driver/Src/stm32l5xx_hal_rtc_ex.c ****   *          This parameter can be one of the following values:
 998:../../Drivers/STM32L5xx_HAL_Driver/Src/stm32l5xx_hal_rtc_ex.c ****   *             @arg RTC_SHIFTADD1S_SET: Add one second to the clock calendar.
 999:../../Drivers/STM32L5xx_HAL_Driver/Src/stm32l5xx_hal_rtc_ex.c ****   *             @arg RTC_SHIFTADD1S_RESET: No effect.
1000:../../Drivers/STM32L5xx_HAL_Driver/Src/stm32l5xx_hal_rtc_ex.c ****   * @param  ShiftSubFS Select the number of Second Fractions to substitute.
1001:../../Drivers/STM32L5xx_HAL_Driver/Src/stm32l5xx_hal_rtc_ex.c ****   *          This parameter can be one any value from 0 to 0x7FFF.
1002:../../Drivers/STM32L5xx_HAL_Driver/Src/stm32l5xx_hal_rtc_ex.c ****   * @retval HAL status
1003:../../Drivers/STM32L5xx_HAL_Driver/Src/stm32l5xx_hal_rtc_ex.c ****   */
1004:../../Drivers/STM32L5xx_HAL_Driver/Src/stm32l5xx_hal_rtc_ex.c **** HAL_StatusTypeDef HAL_RTCEx_SetSynchroShift(RTC_HandleTypeDef *hrtc, uint32_t ShiftAdd1S, uint32_t 
1005:../../Drivers/STM32L5xx_HAL_Driver/Src/stm32l5xx_hal_rtc_ex.c **** {
 1685              		.loc 1 1005 1 is_stmt 1 view -0
 1686              		.cfi_startproc
 1687              		@ args = 0, pretend = 0, frame = 0
 1688              		@ frame_needed = 0, uses_anonymous_args = 0
 1689              		.loc 1 1005 1 is_stmt 0 view .LVU544
 1690 0000 F8B5     		push	{r3, r4, r5, r6, r7, lr}
 1691              	.LCFI9:
 1692              		.cfi_def_cfa_offset 24
 1693              		.cfi_offset 3, -24
 1694              		.cfi_offset 4, -20
 1695              		.cfi_offset 5, -16
 1696              		.cfi_offset 6, -12
 1697              		.cfi_offset 7, -8
 1698              		.cfi_offset 14, -4
1006:../../Drivers/STM32L5xx_HAL_Driver/Src/stm32l5xx_hal_rtc_ex.c ****   uint32_t tickstart;
 1699              		.loc 1 1006 3 is_stmt 1 view .LVU545
1007:../../Drivers/STM32L5xx_HAL_Driver/Src/stm32l5xx_hal_rtc_ex.c **** 
1008:../../Drivers/STM32L5xx_HAL_Driver/Src/stm32l5xx_hal_rtc_ex.c ****   /* Check the parameters */
1009:../../Drivers/STM32L5xx_HAL_Driver/Src/stm32l5xx_hal_rtc_ex.c ****   assert_param(IS_RTC_SHIFT_ADD1S(ShiftAdd1S));
ARM GAS  C:\Users\carlos\AppData\Local\Temp\ccaMGGVT.s 			page 50


 1700              		.loc 1 1009 3 view .LVU546
1010:../../Drivers/STM32L5xx_HAL_Driver/Src/stm32l5xx_hal_rtc_ex.c ****   assert_param(IS_RTC_SHIFT_SUBFS(ShiftSubFS));
 1701              		.loc 1 1010 3 view .LVU547
1011:../../Drivers/STM32L5xx_HAL_Driver/Src/stm32l5xx_hal_rtc_ex.c **** 
1012:../../Drivers/STM32L5xx_HAL_Driver/Src/stm32l5xx_hal_rtc_ex.c ****   /* Process Locked */
1013:../../Drivers/STM32L5xx_HAL_Driver/Src/stm32l5xx_hal_rtc_ex.c ****   __HAL_LOCK(hrtc);
 1702              		.loc 1 1013 3 view .LVU548
 1703              		.loc 1 1013 3 view .LVU549
 1704 0002 90F82430 		ldrb	r3, [r0, #36]	@ zero_extendqisi2
 1705 0006 012B     		cmp	r3, #1
 1706 0008 5CD0     		beq	.L123
 1707 000a 0546     		mov	r5, r0
 1708 000c 0F46     		mov	r7, r1
 1709 000e 1646     		mov	r6, r2
 1710              		.loc 1 1013 3 discriminator 2 view .LVU550
 1711 0010 0123     		movs	r3, #1
 1712 0012 80F82430 		strb	r3, [r0, #36]
 1713              		.loc 1 1013 3 discriminator 2 view .LVU551
1014:../../Drivers/STM32L5xx_HAL_Driver/Src/stm32l5xx_hal_rtc_ex.c **** 
1015:../../Drivers/STM32L5xx_HAL_Driver/Src/stm32l5xx_hal_rtc_ex.c ****   hrtc->State = HAL_RTC_STATE_BUSY;
 1714              		.loc 1 1015 3 discriminator 2 view .LVU552
 1715              		.loc 1 1015 15 is_stmt 0 discriminator 2 view .LVU553
 1716 0016 0223     		movs	r3, #2
 1717 0018 80F82530 		strb	r3, [r0, #37]
1016:../../Drivers/STM32L5xx_HAL_Driver/Src/stm32l5xx_hal_rtc_ex.c **** 
1017:../../Drivers/STM32L5xx_HAL_Driver/Src/stm32l5xx_hal_rtc_ex.c ****   /* Disable the write protection for RTC registers */
1018:../../Drivers/STM32L5xx_HAL_Driver/Src/stm32l5xx_hal_rtc_ex.c ****   __HAL_RTC_WRITEPROTECTION_DISABLE(hrtc);
 1718              		.loc 1 1018 3 is_stmt 1 discriminator 2 view .LVU554
 1719              		.loc 1 1018 3 discriminator 2 view .LVU555
 1720 001c 2A4B     		ldr	r3, .L127
 1721 001e CA22     		movs	r2, #202
 1722              	.LVL110:
 1723              		.loc 1 1018 3 is_stmt 0 discriminator 2 view .LVU556
 1724 0020 5A62     		str	r2, [r3, #36]
 1725              		.loc 1 1018 3 is_stmt 1 discriminator 2 view .LVU557
 1726 0022 5322     		movs	r2, #83
 1727 0024 5A62     		str	r2, [r3, #36]
 1728              		.loc 1 1018 3 discriminator 2 view .LVU558
1019:../../Drivers/STM32L5xx_HAL_Driver/Src/stm32l5xx_hal_rtc_ex.c **** 
1020:../../Drivers/STM32L5xx_HAL_Driver/Src/stm32l5xx_hal_rtc_ex.c ****   tickstart = HAL_GetTick();
 1729              		.loc 1 1020 3 discriminator 2 view .LVU559
 1730              		.loc 1 1020 15 is_stmt 0 discriminator 2 view .LVU560
 1731 0026 FFF7FEFF 		bl	HAL_GetTick
 1732              	.LVL111:
 1733              		.loc 1 1020 15 discriminator 2 view .LVU561
 1734 002a 0446     		mov	r4, r0
 1735              	.LVL112:
1021:../../Drivers/STM32L5xx_HAL_Driver/Src/stm32l5xx_hal_rtc_ex.c **** 
1022:../../Drivers/STM32L5xx_HAL_Driver/Src/stm32l5xx_hal_rtc_ex.c ****   /* Wait until the shift is completed*/
1023:../../Drivers/STM32L5xx_HAL_Driver/Src/stm32l5xx_hal_rtc_ex.c ****   while (READ_BIT(RTC->ICSR, RTC_ICSR_SHPF) != 0U)
 1736              		.loc 1 1023 3 is_stmt 1 discriminator 2 view .LVU562
 1737              	.L119:
 1738              		.loc 1 1023 9 view .LVU563
 1739              		.loc 1 1023 10 is_stmt 0 view .LVU564
 1740 002c 264B     		ldr	r3, .L127
 1741 002e DB68     		ldr	r3, [r3, #12]
 1742              		.loc 1 1023 9 view .LVU565
ARM GAS  C:\Users\carlos\AppData\Local\Temp\ccaMGGVT.s 			page 51


 1743 0030 13F0080F 		tst	r3, #8
 1744 0034 0FD0     		beq	.L125
1024:../../Drivers/STM32L5xx_HAL_Driver/Src/stm32l5xx_hal_rtc_ex.c ****   {
1025:../../Drivers/STM32L5xx_HAL_Driver/Src/stm32l5xx_hal_rtc_ex.c ****     if ((HAL_GetTick() - tickstart) > RTC_TIMEOUT_VALUE)
 1745              		.loc 1 1025 5 is_stmt 1 view .LVU566
 1746              		.loc 1 1025 10 is_stmt 0 view .LVU567
 1747 0036 FFF7FEFF 		bl	HAL_GetTick
 1748              	.LVL113:
 1749              		.loc 1 1025 24 view .LVU568
 1750 003a 031B     		subs	r3, r0, r4
 1751              		.loc 1 1025 8 view .LVU569
 1752 003c B3F57A7F 		cmp	r3, #1000
 1753 0040 F4D9     		bls	.L119
1026:../../Drivers/STM32L5xx_HAL_Driver/Src/stm32l5xx_hal_rtc_ex.c ****     {
1027:../../Drivers/STM32L5xx_HAL_Driver/Src/stm32l5xx_hal_rtc_ex.c ****       /* Enable the write protection for RTC registers */
1028:../../Drivers/STM32L5xx_HAL_Driver/Src/stm32l5xx_hal_rtc_ex.c ****       __HAL_RTC_WRITEPROTECTION_ENABLE(hrtc);
 1754              		.loc 1 1028 7 is_stmt 1 view .LVU570
 1755              		.loc 1 1028 7 view .LVU571
 1756 0042 214B     		ldr	r3, .L127
 1757 0044 FF22     		movs	r2, #255
 1758 0046 5A62     		str	r2, [r3, #36]
 1759              		.loc 1 1028 7 view .LVU572
1029:../../Drivers/STM32L5xx_HAL_Driver/Src/stm32l5xx_hal_rtc_ex.c **** 
1030:../../Drivers/STM32L5xx_HAL_Driver/Src/stm32l5xx_hal_rtc_ex.c ****       hrtc->State = HAL_RTC_STATE_TIMEOUT;
 1760              		.loc 1 1030 7 view .LVU573
 1761              		.loc 1 1030 19 is_stmt 0 view .LVU574
 1762 0048 0320     		movs	r0, #3
 1763 004a 85F82500 		strb	r0, [r5, #37]
1031:../../Drivers/STM32L5xx_HAL_Driver/Src/stm32l5xx_hal_rtc_ex.c **** 
1032:../../Drivers/STM32L5xx_HAL_Driver/Src/stm32l5xx_hal_rtc_ex.c ****       /* Process Unlocked */
1033:../../Drivers/STM32L5xx_HAL_Driver/Src/stm32l5xx_hal_rtc_ex.c ****       __HAL_UNLOCK(hrtc);
 1764              		.loc 1 1033 7 is_stmt 1 view .LVU575
 1765              		.loc 1 1033 7 view .LVU576
 1766 004e 0023     		movs	r3, #0
 1767 0050 85F82430 		strb	r3, [r5, #36]
 1768              		.loc 1 1033 7 view .LVU577
1034:../../Drivers/STM32L5xx_HAL_Driver/Src/stm32l5xx_hal_rtc_ex.c **** 
1035:../../Drivers/STM32L5xx_HAL_Driver/Src/stm32l5xx_hal_rtc_ex.c ****       return HAL_TIMEOUT;
 1769              		.loc 1 1035 7 view .LVU578
 1770              	.LVL114:
 1771              	.L118:
1036:../../Drivers/STM32L5xx_HAL_Driver/Src/stm32l5xx_hal_rtc_ex.c ****     }
1037:../../Drivers/STM32L5xx_HAL_Driver/Src/stm32l5xx_hal_rtc_ex.c ****   }
1038:../../Drivers/STM32L5xx_HAL_Driver/Src/stm32l5xx_hal_rtc_ex.c **** 
1039:../../Drivers/STM32L5xx_HAL_Driver/Src/stm32l5xx_hal_rtc_ex.c ****   /* Check if the reference clock detection is disabled */
1040:../../Drivers/STM32L5xx_HAL_Driver/Src/stm32l5xx_hal_rtc_ex.c ****   if (READ_BIT(RTC->CR, RTC_CR_REFCKON) == 0U)
1041:../../Drivers/STM32L5xx_HAL_Driver/Src/stm32l5xx_hal_rtc_ex.c ****   {
1042:../../Drivers/STM32L5xx_HAL_Driver/Src/stm32l5xx_hal_rtc_ex.c ****     /* Configure the Shift settings */
1043:../../Drivers/STM32L5xx_HAL_Driver/Src/stm32l5xx_hal_rtc_ex.c ****     MODIFY_REG(RTC->SHIFTR, RTC_SHIFTR_SUBFS, (uint32_t)(ShiftSubFS) | (uint32_t)(ShiftAdd1S));
1044:../../Drivers/STM32L5xx_HAL_Driver/Src/stm32l5xx_hal_rtc_ex.c **** 
1045:../../Drivers/STM32L5xx_HAL_Driver/Src/stm32l5xx_hal_rtc_ex.c ****     /* If  RTC_CR_BYPSHAD bit = 0, wait for synchro else this check is not needed */
1046:../../Drivers/STM32L5xx_HAL_Driver/Src/stm32l5xx_hal_rtc_ex.c ****     if (READ_BIT(RTC->CR, RTC_CR_BYPSHAD) == 0U)
1047:../../Drivers/STM32L5xx_HAL_Driver/Src/stm32l5xx_hal_rtc_ex.c ****     {
1048:../../Drivers/STM32L5xx_HAL_Driver/Src/stm32l5xx_hal_rtc_ex.c ****       if (HAL_RTC_WaitForSynchro(hrtc) != HAL_OK)
1049:../../Drivers/STM32L5xx_HAL_Driver/Src/stm32l5xx_hal_rtc_ex.c ****       {
1050:../../Drivers/STM32L5xx_HAL_Driver/Src/stm32l5xx_hal_rtc_ex.c ****         /* Enable the write protection for RTC registers */
1051:../../Drivers/STM32L5xx_HAL_Driver/Src/stm32l5xx_hal_rtc_ex.c ****         __HAL_RTC_WRITEPROTECTION_ENABLE(hrtc);
ARM GAS  C:\Users\carlos\AppData\Local\Temp\ccaMGGVT.s 			page 52


1052:../../Drivers/STM32L5xx_HAL_Driver/Src/stm32l5xx_hal_rtc_ex.c **** 
1053:../../Drivers/STM32L5xx_HAL_Driver/Src/stm32l5xx_hal_rtc_ex.c ****         hrtc->State = HAL_RTC_STATE_ERROR;
1054:../../Drivers/STM32L5xx_HAL_Driver/Src/stm32l5xx_hal_rtc_ex.c **** 
1055:../../Drivers/STM32L5xx_HAL_Driver/Src/stm32l5xx_hal_rtc_ex.c ****         /* Process Unlocked */
1056:../../Drivers/STM32L5xx_HAL_Driver/Src/stm32l5xx_hal_rtc_ex.c ****         __HAL_UNLOCK(hrtc);
1057:../../Drivers/STM32L5xx_HAL_Driver/Src/stm32l5xx_hal_rtc_ex.c **** 
1058:../../Drivers/STM32L5xx_HAL_Driver/Src/stm32l5xx_hal_rtc_ex.c ****         return HAL_ERROR;
1059:../../Drivers/STM32L5xx_HAL_Driver/Src/stm32l5xx_hal_rtc_ex.c ****       }
1060:../../Drivers/STM32L5xx_HAL_Driver/Src/stm32l5xx_hal_rtc_ex.c ****     }
1061:../../Drivers/STM32L5xx_HAL_Driver/Src/stm32l5xx_hal_rtc_ex.c ****   }
1062:../../Drivers/STM32L5xx_HAL_Driver/Src/stm32l5xx_hal_rtc_ex.c ****   else
1063:../../Drivers/STM32L5xx_HAL_Driver/Src/stm32l5xx_hal_rtc_ex.c ****   {
1064:../../Drivers/STM32L5xx_HAL_Driver/Src/stm32l5xx_hal_rtc_ex.c ****     /* Enable the write protection for RTC registers */
1065:../../Drivers/STM32L5xx_HAL_Driver/Src/stm32l5xx_hal_rtc_ex.c ****     __HAL_RTC_WRITEPROTECTION_ENABLE(hrtc);
1066:../../Drivers/STM32L5xx_HAL_Driver/Src/stm32l5xx_hal_rtc_ex.c **** 
1067:../../Drivers/STM32L5xx_HAL_Driver/Src/stm32l5xx_hal_rtc_ex.c ****     /* Change RTC state */
1068:../../Drivers/STM32L5xx_HAL_Driver/Src/stm32l5xx_hal_rtc_ex.c ****     hrtc->State = HAL_RTC_STATE_ERROR;
1069:../../Drivers/STM32L5xx_HAL_Driver/Src/stm32l5xx_hal_rtc_ex.c **** 
1070:../../Drivers/STM32L5xx_HAL_Driver/Src/stm32l5xx_hal_rtc_ex.c ****     /* Process Unlocked */
1071:../../Drivers/STM32L5xx_HAL_Driver/Src/stm32l5xx_hal_rtc_ex.c ****     __HAL_UNLOCK(hrtc);
1072:../../Drivers/STM32L5xx_HAL_Driver/Src/stm32l5xx_hal_rtc_ex.c **** 
1073:../../Drivers/STM32L5xx_HAL_Driver/Src/stm32l5xx_hal_rtc_ex.c ****     return HAL_ERROR;
1074:../../Drivers/STM32L5xx_HAL_Driver/Src/stm32l5xx_hal_rtc_ex.c ****   }
1075:../../Drivers/STM32L5xx_HAL_Driver/Src/stm32l5xx_hal_rtc_ex.c **** 
1076:../../Drivers/STM32L5xx_HAL_Driver/Src/stm32l5xx_hal_rtc_ex.c ****   /* Enable the write protection for RTC registers */
1077:../../Drivers/STM32L5xx_HAL_Driver/Src/stm32l5xx_hal_rtc_ex.c ****   __HAL_RTC_WRITEPROTECTION_ENABLE(hrtc);
1078:../../Drivers/STM32L5xx_HAL_Driver/Src/stm32l5xx_hal_rtc_ex.c **** 
1079:../../Drivers/STM32L5xx_HAL_Driver/Src/stm32l5xx_hal_rtc_ex.c ****   /* Change RTC state */
1080:../../Drivers/STM32L5xx_HAL_Driver/Src/stm32l5xx_hal_rtc_ex.c ****   hrtc->State = HAL_RTC_STATE_READY;
1081:../../Drivers/STM32L5xx_HAL_Driver/Src/stm32l5xx_hal_rtc_ex.c **** 
1082:../../Drivers/STM32L5xx_HAL_Driver/Src/stm32l5xx_hal_rtc_ex.c ****   /* Process Unlocked */
1083:../../Drivers/STM32L5xx_HAL_Driver/Src/stm32l5xx_hal_rtc_ex.c ****   __HAL_UNLOCK(hrtc);
1084:../../Drivers/STM32L5xx_HAL_Driver/Src/stm32l5xx_hal_rtc_ex.c **** 
1085:../../Drivers/STM32L5xx_HAL_Driver/Src/stm32l5xx_hal_rtc_ex.c ****   return HAL_OK;
1086:../../Drivers/STM32L5xx_HAL_Driver/Src/stm32l5xx_hal_rtc_ex.c **** }
 1772              		.loc 1 1086 1 is_stmt 0 view .LVU579
 1773 0054 F8BD     		pop	{r3, r4, r5, r6, r7, pc}
 1774              	.LVL115:
 1775              	.L125:
1040:../../Drivers/STM32L5xx_HAL_Driver/Src/stm32l5xx_hal_rtc_ex.c ****   {
 1776              		.loc 1 1040 3 is_stmt 1 view .LVU580
1040:../../Drivers/STM32L5xx_HAL_Driver/Src/stm32l5xx_hal_rtc_ex.c ****   {
 1777              		.loc 1 1040 7 is_stmt 0 view .LVU581
 1778 0056 1C4B     		ldr	r3, .L127
 1779 0058 9B69     		ldr	r3, [r3, #24]
1040:../../Drivers/STM32L5xx_HAL_Driver/Src/stm32l5xx_hal_rtc_ex.c ****   {
 1780              		.loc 1 1040 6 view .LVU582
 1781 005a 13F0100F 		tst	r3, #16
 1782 005e 26D1     		bne	.L121
1043:../../Drivers/STM32L5xx_HAL_Driver/Src/stm32l5xx_hal_rtc_ex.c **** 
 1783              		.loc 1 1043 5 is_stmt 1 view .LVU583
 1784 0060 194A     		ldr	r2, .L127
 1785 0062 D36A     		ldr	r3, [r2, #44]
 1786 0064 23F4FF43 		bic	r3, r3, #32640
 1787 0068 23F07F03 		bic	r3, r3, #127
 1788 006c 3E43     		orrs	r6, r6, r7
 1789              	.LVL116:
ARM GAS  C:\Users\carlos\AppData\Local\Temp\ccaMGGVT.s 			page 53


1043:../../Drivers/STM32L5xx_HAL_Driver/Src/stm32l5xx_hal_rtc_ex.c **** 
 1790              		.loc 1 1043 5 is_stmt 0 view .LVU584
 1791 006e 3343     		orrs	r3, r3, r6
 1792 0070 D362     		str	r3, [r2, #44]
1046:../../Drivers/STM32L5xx_HAL_Driver/Src/stm32l5xx_hal_rtc_ex.c ****     {
 1793              		.loc 1 1046 5 is_stmt 1 view .LVU585
1046:../../Drivers/STM32L5xx_HAL_Driver/Src/stm32l5xx_hal_rtc_ex.c ****     {
 1794              		.loc 1 1046 9 is_stmt 0 view .LVU586
 1795 0072 9369     		ldr	r3, [r2, #24]
1046:../../Drivers/STM32L5xx_HAL_Driver/Src/stm32l5xx_hal_rtc_ex.c ****     {
 1796              		.loc 1 1046 8 view .LVU587
 1797 0074 13F0200F 		tst	r3, #32
 1798 0078 09D0     		beq	.L126
 1799              	.L122:
1077:../../Drivers/STM32L5xx_HAL_Driver/Src/stm32l5xx_hal_rtc_ex.c **** 
 1800              		.loc 1 1077 3 is_stmt 1 view .LVU588
1077:../../Drivers/STM32L5xx_HAL_Driver/Src/stm32l5xx_hal_rtc_ex.c **** 
 1801              		.loc 1 1077 3 view .LVU589
 1802 007a 134B     		ldr	r3, .L127
 1803 007c FF22     		movs	r2, #255
 1804 007e 5A62     		str	r2, [r3, #36]
1077:../../Drivers/STM32L5xx_HAL_Driver/Src/stm32l5xx_hal_rtc_ex.c **** 
 1805              		.loc 1 1077 3 view .LVU590
1080:../../Drivers/STM32L5xx_HAL_Driver/Src/stm32l5xx_hal_rtc_ex.c **** 
 1806              		.loc 1 1080 3 view .LVU591
1080:../../Drivers/STM32L5xx_HAL_Driver/Src/stm32l5xx_hal_rtc_ex.c **** 
 1807              		.loc 1 1080 15 is_stmt 0 view .LVU592
 1808 0080 0123     		movs	r3, #1
 1809 0082 85F82530 		strb	r3, [r5, #37]
1083:../../Drivers/STM32L5xx_HAL_Driver/Src/stm32l5xx_hal_rtc_ex.c **** 
 1810              		.loc 1 1083 3 is_stmt 1 view .LVU593
1083:../../Drivers/STM32L5xx_HAL_Driver/Src/stm32l5xx_hal_rtc_ex.c **** 
 1811              		.loc 1 1083 3 view .LVU594
 1812 0086 0020     		movs	r0, #0
 1813 0088 85F82400 		strb	r0, [r5, #36]
1083:../../Drivers/STM32L5xx_HAL_Driver/Src/stm32l5xx_hal_rtc_ex.c **** 
 1814              		.loc 1 1083 3 view .LVU595
1085:../../Drivers/STM32L5xx_HAL_Driver/Src/stm32l5xx_hal_rtc_ex.c **** }
 1815              		.loc 1 1085 3 view .LVU596
1085:../../Drivers/STM32L5xx_HAL_Driver/Src/stm32l5xx_hal_rtc_ex.c **** }
 1816              		.loc 1 1085 10 is_stmt 0 view .LVU597
 1817 008c E2E7     		b	.L118
 1818              	.L126:
1048:../../Drivers/STM32L5xx_HAL_Driver/Src/stm32l5xx_hal_rtc_ex.c ****       {
 1819              		.loc 1 1048 7 is_stmt 1 view .LVU598
1048:../../Drivers/STM32L5xx_HAL_Driver/Src/stm32l5xx_hal_rtc_ex.c ****       {
 1820              		.loc 1 1048 11 is_stmt 0 view .LVU599
 1821 008e 2846     		mov	r0, r5
 1822 0090 FFF7FEFF 		bl	HAL_RTC_WaitForSynchro
 1823              	.LVL117:
1048:../../Drivers/STM32L5xx_HAL_Driver/Src/stm32l5xx_hal_rtc_ex.c ****       {
 1824              		.loc 1 1048 10 view .LVU600
 1825 0094 0028     		cmp	r0, #0
 1826 0096 F0D0     		beq	.L122
1051:../../Drivers/STM32L5xx_HAL_Driver/Src/stm32l5xx_hal_rtc_ex.c **** 
 1827              		.loc 1 1051 9 is_stmt 1 view .LVU601
1051:../../Drivers/STM32L5xx_HAL_Driver/Src/stm32l5xx_hal_rtc_ex.c **** 
ARM GAS  C:\Users\carlos\AppData\Local\Temp\ccaMGGVT.s 			page 54


 1828              		.loc 1 1051 9 view .LVU602
 1829 0098 0B4B     		ldr	r3, .L127
 1830 009a FF22     		movs	r2, #255
 1831 009c 5A62     		str	r2, [r3, #36]
1051:../../Drivers/STM32L5xx_HAL_Driver/Src/stm32l5xx_hal_rtc_ex.c **** 
 1832              		.loc 1 1051 9 view .LVU603
1053:../../Drivers/STM32L5xx_HAL_Driver/Src/stm32l5xx_hal_rtc_ex.c **** 
 1833              		.loc 1 1053 9 view .LVU604
1053:../../Drivers/STM32L5xx_HAL_Driver/Src/stm32l5xx_hal_rtc_ex.c **** 
 1834              		.loc 1 1053 21 is_stmt 0 view .LVU605
 1835 009e 0423     		movs	r3, #4
 1836 00a0 85F82530 		strb	r3, [r5, #37]
1056:../../Drivers/STM32L5xx_HAL_Driver/Src/stm32l5xx_hal_rtc_ex.c **** 
 1837              		.loc 1 1056 9 is_stmt 1 view .LVU606
1056:../../Drivers/STM32L5xx_HAL_Driver/Src/stm32l5xx_hal_rtc_ex.c **** 
 1838              		.loc 1 1056 9 view .LVU607
 1839 00a4 0023     		movs	r3, #0
 1840 00a6 85F82430 		strb	r3, [r5, #36]
1056:../../Drivers/STM32L5xx_HAL_Driver/Src/stm32l5xx_hal_rtc_ex.c **** 
 1841              		.loc 1 1056 9 view .LVU608
1058:../../Drivers/STM32L5xx_HAL_Driver/Src/stm32l5xx_hal_rtc_ex.c ****       }
 1842              		.loc 1 1058 9 view .LVU609
1058:../../Drivers/STM32L5xx_HAL_Driver/Src/stm32l5xx_hal_rtc_ex.c ****       }
 1843              		.loc 1 1058 16 is_stmt 0 view .LVU610
 1844 00aa 0120     		movs	r0, #1
 1845 00ac D2E7     		b	.L118
 1846              	.LVL118:
 1847              	.L121:
1065:../../Drivers/STM32L5xx_HAL_Driver/Src/stm32l5xx_hal_rtc_ex.c **** 
 1848              		.loc 1 1065 5 is_stmt 1 view .LVU611
1065:../../Drivers/STM32L5xx_HAL_Driver/Src/stm32l5xx_hal_rtc_ex.c **** 
 1849              		.loc 1 1065 5 view .LVU612
 1850 00ae 064B     		ldr	r3, .L127
 1851 00b0 FF22     		movs	r2, #255
 1852 00b2 5A62     		str	r2, [r3, #36]
1065:../../Drivers/STM32L5xx_HAL_Driver/Src/stm32l5xx_hal_rtc_ex.c **** 
 1853              		.loc 1 1065 5 view .LVU613
1068:../../Drivers/STM32L5xx_HAL_Driver/Src/stm32l5xx_hal_rtc_ex.c **** 
 1854              		.loc 1 1068 5 view .LVU614
1068:../../Drivers/STM32L5xx_HAL_Driver/Src/stm32l5xx_hal_rtc_ex.c **** 
 1855              		.loc 1 1068 17 is_stmt 0 view .LVU615
 1856 00b4 0423     		movs	r3, #4
 1857 00b6 85F82530 		strb	r3, [r5, #37]
1071:../../Drivers/STM32L5xx_HAL_Driver/Src/stm32l5xx_hal_rtc_ex.c **** 
 1858              		.loc 1 1071 5 is_stmt 1 view .LVU616
1071:../../Drivers/STM32L5xx_HAL_Driver/Src/stm32l5xx_hal_rtc_ex.c **** 
 1859              		.loc 1 1071 5 view .LVU617
 1860 00ba 0023     		movs	r3, #0
 1861 00bc 85F82430 		strb	r3, [r5, #36]
1071:../../Drivers/STM32L5xx_HAL_Driver/Src/stm32l5xx_hal_rtc_ex.c **** 
 1862              		.loc 1 1071 5 view .LVU618
1073:../../Drivers/STM32L5xx_HAL_Driver/Src/stm32l5xx_hal_rtc_ex.c ****   }
 1863              		.loc 1 1073 5 view .LVU619
1073:../../Drivers/STM32L5xx_HAL_Driver/Src/stm32l5xx_hal_rtc_ex.c ****   }
 1864              		.loc 1 1073 12 is_stmt 0 view .LVU620
 1865 00c0 0120     		movs	r0, #1
 1866 00c2 C7E7     		b	.L118
ARM GAS  C:\Users\carlos\AppData\Local\Temp\ccaMGGVT.s 			page 55


 1867              	.LVL119:
 1868              	.L123:
1013:../../Drivers/STM32L5xx_HAL_Driver/Src/stm32l5xx_hal_rtc_ex.c **** 
 1869              		.loc 1 1013 3 view .LVU621
 1870 00c4 0220     		movs	r0, #2
 1871              	.LVL120:
1013:../../Drivers/STM32L5xx_HAL_Driver/Src/stm32l5xx_hal_rtc_ex.c **** 
 1872              		.loc 1 1013 3 view .LVU622
 1873 00c6 C5E7     		b	.L118
 1874              	.L128:
 1875              		.align	2
 1876              	.L127:
 1877 00c8 00280050 		.word	1342187520
 1878              		.cfi_endproc
 1879              	.LFE220:
 1881              		.section	.text.HAL_RTCEx_SetCalibrationOutPut,"ax",%progbits
 1882              		.align	1
 1883              		.global	HAL_RTCEx_SetCalibrationOutPut
 1884              		.syntax unified
 1885              		.thumb
 1886              		.thumb_func
 1887              		.fpu fpv4-sp-d16
 1889              	HAL_RTCEx_SetCalibrationOutPut:
 1890              	.LVL121:
 1891              	.LFB221:
1087:../../Drivers/STM32L5xx_HAL_Driver/Src/stm32l5xx_hal_rtc_ex.c **** 
1088:../../Drivers/STM32L5xx_HAL_Driver/Src/stm32l5xx_hal_rtc_ex.c **** /**
1089:../../Drivers/STM32L5xx_HAL_Driver/Src/stm32l5xx_hal_rtc_ex.c ****   * @brief  Configure the Calibration Pinout (RTC_CALIB) Selection (1Hz or 512Hz).
1090:../../Drivers/STM32L5xx_HAL_Driver/Src/stm32l5xx_hal_rtc_ex.c ****   * @param  hrtc RTC handle
1091:../../Drivers/STM32L5xx_HAL_Driver/Src/stm32l5xx_hal_rtc_ex.c ****   * @param  CalibOutput Select the Calibration output Selection .
1092:../../Drivers/STM32L5xx_HAL_Driver/Src/stm32l5xx_hal_rtc_ex.c ****   *          This parameter can be one of the following values:
1093:../../Drivers/STM32L5xx_HAL_Driver/Src/stm32l5xx_hal_rtc_ex.c ****   *             @arg RTC_CALIBOUTPUT_512HZ: A signal has a regular waveform at 512Hz.
1094:../../Drivers/STM32L5xx_HAL_Driver/Src/stm32l5xx_hal_rtc_ex.c ****   *             @arg RTC_CALIBOUTPUT_1HZ: A signal has a regular waveform at 1Hz.
1095:../../Drivers/STM32L5xx_HAL_Driver/Src/stm32l5xx_hal_rtc_ex.c ****   * @retval HAL status
1096:../../Drivers/STM32L5xx_HAL_Driver/Src/stm32l5xx_hal_rtc_ex.c ****   */
1097:../../Drivers/STM32L5xx_HAL_Driver/Src/stm32l5xx_hal_rtc_ex.c **** HAL_StatusTypeDef HAL_RTCEx_SetCalibrationOutPut(RTC_HandleTypeDef *hrtc, uint32_t CalibOutput)
1098:../../Drivers/STM32L5xx_HAL_Driver/Src/stm32l5xx_hal_rtc_ex.c **** {
 1892              		.loc 1 1098 1 is_stmt 1 view -0
 1893              		.cfi_startproc
 1894              		@ args = 0, pretend = 0, frame = 0
 1895              		@ frame_needed = 0, uses_anonymous_args = 0
 1896              		@ link register save eliminated.
1099:../../Drivers/STM32L5xx_HAL_Driver/Src/stm32l5xx_hal_rtc_ex.c ****   /* Check the parameters */
1100:../../Drivers/STM32L5xx_HAL_Driver/Src/stm32l5xx_hal_rtc_ex.c ****   assert_param(IS_RTC_CALIB_OUTPUT(CalibOutput));
 1897              		.loc 1 1100 3 view .LVU624
1101:../../Drivers/STM32L5xx_HAL_Driver/Src/stm32l5xx_hal_rtc_ex.c **** 
1102:../../Drivers/STM32L5xx_HAL_Driver/Src/stm32l5xx_hal_rtc_ex.c ****   /* Process Locked */
1103:../../Drivers/STM32L5xx_HAL_Driver/Src/stm32l5xx_hal_rtc_ex.c ****   __HAL_LOCK(hrtc);
 1898              		.loc 1 1103 3 view .LVU625
 1899              		.loc 1 1103 3 view .LVU626
 1900 0000 90F82430 		ldrb	r3, [r0, #36]	@ zero_extendqisi2
 1901 0004 012B     		cmp	r3, #1
 1902 0006 1DD0     		beq	.L131
 1903              		.loc 1 1103 3 discriminator 2 view .LVU627
 1904 0008 4FF0010C 		mov	ip, #1
 1905 000c 80F824C0 		strb	ip, [r0, #36]
 1906              		.loc 1 1103 3 discriminator 2 view .LVU628
ARM GAS  C:\Users\carlos\AppData\Local\Temp\ccaMGGVT.s 			page 56


1104:../../Drivers/STM32L5xx_HAL_Driver/Src/stm32l5xx_hal_rtc_ex.c **** 
1105:../../Drivers/STM32L5xx_HAL_Driver/Src/stm32l5xx_hal_rtc_ex.c ****   hrtc->State = HAL_RTC_STATE_BUSY;
 1907              		.loc 1 1105 3 discriminator 2 view .LVU629
 1908              		.loc 1 1105 15 is_stmt 0 discriminator 2 view .LVU630
 1909 0010 0223     		movs	r3, #2
 1910 0012 80F82530 		strb	r3, [r0, #37]
1106:../../Drivers/STM32L5xx_HAL_Driver/Src/stm32l5xx_hal_rtc_ex.c **** 
1107:../../Drivers/STM32L5xx_HAL_Driver/Src/stm32l5xx_hal_rtc_ex.c ****   /* Disable the write protection for RTC registers */
1108:../../Drivers/STM32L5xx_HAL_Driver/Src/stm32l5xx_hal_rtc_ex.c ****   __HAL_RTC_WRITEPROTECTION_DISABLE(hrtc);
 1911              		.loc 1 1108 3 is_stmt 1 discriminator 2 view .LVU631
 1912              		.loc 1 1108 3 discriminator 2 view .LVU632
 1913 0016 0C4B     		ldr	r3, .L132
 1914 0018 CA22     		movs	r2, #202
 1915 001a 5A62     		str	r2, [r3, #36]
 1916              		.loc 1 1108 3 discriminator 2 view .LVU633
 1917 001c 5322     		movs	r2, #83
 1918 001e 5A62     		str	r2, [r3, #36]
 1919              		.loc 1 1108 3 discriminator 2 view .LVU634
1109:../../Drivers/STM32L5xx_HAL_Driver/Src/stm32l5xx_hal_rtc_ex.c **** 
1110:../../Drivers/STM32L5xx_HAL_Driver/Src/stm32l5xx_hal_rtc_ex.c ****   /* Configure the RTC_CR register */
1111:../../Drivers/STM32L5xx_HAL_Driver/Src/stm32l5xx_hal_rtc_ex.c ****   MODIFY_REG(RTC->CR, RTC_CR_COSEL, CalibOutput);
 1920              		.loc 1 1111 3 discriminator 2 view .LVU635
 1921 0020 9A69     		ldr	r2, [r3, #24]
 1922 0022 22F40022 		bic	r2, r2, #524288
 1923 0026 1143     		orrs	r1, r1, r2
 1924              	.LVL122:
 1925              		.loc 1 1111 3 is_stmt 0 discriminator 2 view .LVU636
 1926 0028 9961     		str	r1, [r3, #24]
1112:../../Drivers/STM32L5xx_HAL_Driver/Src/stm32l5xx_hal_rtc_ex.c **** 
1113:../../Drivers/STM32L5xx_HAL_Driver/Src/stm32l5xx_hal_rtc_ex.c ****   /* Enable calibration output */
1114:../../Drivers/STM32L5xx_HAL_Driver/Src/stm32l5xx_hal_rtc_ex.c ****   SET_BIT(RTC->CR, RTC_CR_COE);
 1927              		.loc 1 1114 3 is_stmt 1 discriminator 2 view .LVU637
 1928 002a 9A69     		ldr	r2, [r3, #24]
 1929 002c 42F40002 		orr	r2, r2, #8388608
 1930 0030 9A61     		str	r2, [r3, #24]
1115:../../Drivers/STM32L5xx_HAL_Driver/Src/stm32l5xx_hal_rtc_ex.c **** 
1116:../../Drivers/STM32L5xx_HAL_Driver/Src/stm32l5xx_hal_rtc_ex.c ****   /* Enable the write protection for RTC registers */
1117:../../Drivers/STM32L5xx_HAL_Driver/Src/stm32l5xx_hal_rtc_ex.c ****   __HAL_RTC_WRITEPROTECTION_ENABLE(hrtc);
 1931              		.loc 1 1117 3 discriminator 2 view .LVU638
 1932              		.loc 1 1117 3 discriminator 2 view .LVU639
 1933 0032 FF22     		movs	r2, #255
 1934 0034 5A62     		str	r2, [r3, #36]
 1935              		.loc 1 1117 3 discriminator 2 view .LVU640
1118:../../Drivers/STM32L5xx_HAL_Driver/Src/stm32l5xx_hal_rtc_ex.c **** 
1119:../../Drivers/STM32L5xx_HAL_Driver/Src/stm32l5xx_hal_rtc_ex.c ****   /* Change RTC state */
1120:../../Drivers/STM32L5xx_HAL_Driver/Src/stm32l5xx_hal_rtc_ex.c ****   hrtc->State = HAL_RTC_STATE_READY;
 1936              		.loc 1 1120 3 discriminator 2 view .LVU641
 1937              		.loc 1 1120 15 is_stmt 0 discriminator 2 view .LVU642
 1938 0036 80F825C0 		strb	ip, [r0, #37]
1121:../../Drivers/STM32L5xx_HAL_Driver/Src/stm32l5xx_hal_rtc_ex.c **** 
1122:../../Drivers/STM32L5xx_HAL_Driver/Src/stm32l5xx_hal_rtc_ex.c ****   /* Process Unlocked */
1123:../../Drivers/STM32L5xx_HAL_Driver/Src/stm32l5xx_hal_rtc_ex.c ****   __HAL_UNLOCK(hrtc);
 1939              		.loc 1 1123 3 is_stmt 1 discriminator 2 view .LVU643
 1940              		.loc 1 1123 3 discriminator 2 view .LVU644
 1941 003a 0023     		movs	r3, #0
 1942 003c 80F82430 		strb	r3, [r0, #36]
 1943              		.loc 1 1123 3 discriminator 2 view .LVU645
ARM GAS  C:\Users\carlos\AppData\Local\Temp\ccaMGGVT.s 			page 57


1124:../../Drivers/STM32L5xx_HAL_Driver/Src/stm32l5xx_hal_rtc_ex.c **** 
1125:../../Drivers/STM32L5xx_HAL_Driver/Src/stm32l5xx_hal_rtc_ex.c ****   return HAL_OK;
 1944              		.loc 1 1125 3 discriminator 2 view .LVU646
 1945              		.loc 1 1125 10 is_stmt 0 discriminator 2 view .LVU647
 1946 0040 1846     		mov	r0, r3
 1947              	.LVL123:
 1948              		.loc 1 1125 10 discriminator 2 view .LVU648
 1949 0042 7047     		bx	lr
 1950              	.LVL124:
 1951              	.L131:
1103:../../Drivers/STM32L5xx_HAL_Driver/Src/stm32l5xx_hal_rtc_ex.c **** 
 1952              		.loc 1 1103 3 view .LVU649
 1953 0044 0220     		movs	r0, #2
 1954              	.LVL125:
1126:../../Drivers/STM32L5xx_HAL_Driver/Src/stm32l5xx_hal_rtc_ex.c **** }
 1955              		.loc 1 1126 1 view .LVU650
 1956 0046 7047     		bx	lr
 1957              	.L133:
 1958              		.align	2
 1959              	.L132:
 1960 0048 00280050 		.word	1342187520
 1961              		.cfi_endproc
 1962              	.LFE221:
 1964              		.section	.text.HAL_RTCEx_DeactivateCalibrationOutPut,"ax",%progbits
 1965              		.align	1
 1966              		.global	HAL_RTCEx_DeactivateCalibrationOutPut
 1967              		.syntax unified
 1968              		.thumb
 1969              		.thumb_func
 1970              		.fpu fpv4-sp-d16
 1972              	HAL_RTCEx_DeactivateCalibrationOutPut:
 1973              	.LVL126:
 1974              	.LFB222:
1127:../../Drivers/STM32L5xx_HAL_Driver/Src/stm32l5xx_hal_rtc_ex.c **** 
1128:../../Drivers/STM32L5xx_HAL_Driver/Src/stm32l5xx_hal_rtc_ex.c **** /**
1129:../../Drivers/STM32L5xx_HAL_Driver/Src/stm32l5xx_hal_rtc_ex.c ****   * @brief  Deactivate the Calibration Pinout (RTC_CALIB) Selection (1Hz or 512Hz).
1130:../../Drivers/STM32L5xx_HAL_Driver/Src/stm32l5xx_hal_rtc_ex.c ****   * @param  hrtc RTC handle
1131:../../Drivers/STM32L5xx_HAL_Driver/Src/stm32l5xx_hal_rtc_ex.c ****   * @retval HAL status
1132:../../Drivers/STM32L5xx_HAL_Driver/Src/stm32l5xx_hal_rtc_ex.c ****   */
1133:../../Drivers/STM32L5xx_HAL_Driver/Src/stm32l5xx_hal_rtc_ex.c **** HAL_StatusTypeDef HAL_RTCEx_DeactivateCalibrationOutPut(RTC_HandleTypeDef *hrtc)
1134:../../Drivers/STM32L5xx_HAL_Driver/Src/stm32l5xx_hal_rtc_ex.c **** {
 1975              		.loc 1 1134 1 is_stmt 1 view -0
 1976              		.cfi_startproc
 1977              		@ args = 0, pretend = 0, frame = 0
 1978              		@ frame_needed = 0, uses_anonymous_args = 0
 1979              		@ link register save eliminated.
1135:../../Drivers/STM32L5xx_HAL_Driver/Src/stm32l5xx_hal_rtc_ex.c ****   /* Process Locked */
1136:../../Drivers/STM32L5xx_HAL_Driver/Src/stm32l5xx_hal_rtc_ex.c ****   __HAL_LOCK(hrtc);
 1980              		.loc 1 1136 3 view .LVU652
 1981              		.loc 1 1136 3 view .LVU653
 1982 0000 90F82430 		ldrb	r3, [r0, #36]	@ zero_extendqisi2
 1983 0004 012B     		cmp	r3, #1
 1984 0006 17D0     		beq	.L136
 1985              		.loc 1 1136 3 discriminator 2 view .LVU654
 1986 0008 0121     		movs	r1, #1
 1987 000a 80F82410 		strb	r1, [r0, #36]
 1988              		.loc 1 1136 3 discriminator 2 view .LVU655
ARM GAS  C:\Users\carlos\AppData\Local\Temp\ccaMGGVT.s 			page 58


1137:../../Drivers/STM32L5xx_HAL_Driver/Src/stm32l5xx_hal_rtc_ex.c **** 
1138:../../Drivers/STM32L5xx_HAL_Driver/Src/stm32l5xx_hal_rtc_ex.c ****   hrtc->State = HAL_RTC_STATE_BUSY;
 1989              		.loc 1 1138 3 discriminator 2 view .LVU656
 1990              		.loc 1 1138 15 is_stmt 0 discriminator 2 view .LVU657
 1991 000e 0223     		movs	r3, #2
 1992 0010 80F82530 		strb	r3, [r0, #37]
1139:../../Drivers/STM32L5xx_HAL_Driver/Src/stm32l5xx_hal_rtc_ex.c **** 
1140:../../Drivers/STM32L5xx_HAL_Driver/Src/stm32l5xx_hal_rtc_ex.c ****   /* Disable the write protection for RTC registers */
1141:../../Drivers/STM32L5xx_HAL_Driver/Src/stm32l5xx_hal_rtc_ex.c ****   __HAL_RTC_WRITEPROTECTION_DISABLE(hrtc);
 1993              		.loc 1 1141 3 is_stmt 1 discriminator 2 view .LVU658
 1994              		.loc 1 1141 3 discriminator 2 view .LVU659
 1995 0014 094B     		ldr	r3, .L137
 1996 0016 CA22     		movs	r2, #202
 1997 0018 5A62     		str	r2, [r3, #36]
 1998              		.loc 1 1141 3 discriminator 2 view .LVU660
 1999 001a 5322     		movs	r2, #83
 2000 001c 5A62     		str	r2, [r3, #36]
 2001              		.loc 1 1141 3 discriminator 2 view .LVU661
1142:../../Drivers/STM32L5xx_HAL_Driver/Src/stm32l5xx_hal_rtc_ex.c **** 
1143:../../Drivers/STM32L5xx_HAL_Driver/Src/stm32l5xx_hal_rtc_ex.c ****   /* Disable calibration output */
1144:../../Drivers/STM32L5xx_HAL_Driver/Src/stm32l5xx_hal_rtc_ex.c ****   CLEAR_BIT(RTC->CR, RTC_CR_COE);
 2002              		.loc 1 1144 3 discriminator 2 view .LVU662
 2003 001e 9A69     		ldr	r2, [r3, #24]
 2004 0020 22F40002 		bic	r2, r2, #8388608
 2005 0024 9A61     		str	r2, [r3, #24]
1145:../../Drivers/STM32L5xx_HAL_Driver/Src/stm32l5xx_hal_rtc_ex.c **** 
1146:../../Drivers/STM32L5xx_HAL_Driver/Src/stm32l5xx_hal_rtc_ex.c ****   /* Enable the write protection for RTC registers */
1147:../../Drivers/STM32L5xx_HAL_Driver/Src/stm32l5xx_hal_rtc_ex.c ****   __HAL_RTC_WRITEPROTECTION_ENABLE(hrtc);
 2006              		.loc 1 1147 3 discriminator 2 view .LVU663
 2007              		.loc 1 1147 3 discriminator 2 view .LVU664
 2008 0026 FF22     		movs	r2, #255
 2009 0028 5A62     		str	r2, [r3, #36]
 2010              		.loc 1 1147 3 discriminator 2 view .LVU665
1148:../../Drivers/STM32L5xx_HAL_Driver/Src/stm32l5xx_hal_rtc_ex.c **** 
1149:../../Drivers/STM32L5xx_HAL_Driver/Src/stm32l5xx_hal_rtc_ex.c ****   /* Change RTC state */
1150:../../Drivers/STM32L5xx_HAL_Driver/Src/stm32l5xx_hal_rtc_ex.c ****   hrtc->State = HAL_RTC_STATE_READY;
 2011              		.loc 1 1150 3 discriminator 2 view .LVU666
 2012              		.loc 1 1150 15 is_stmt 0 discriminator 2 view .LVU667
 2013 002a 80F82510 		strb	r1, [r0, #37]
1151:../../Drivers/STM32L5xx_HAL_Driver/Src/stm32l5xx_hal_rtc_ex.c **** 
1152:../../Drivers/STM32L5xx_HAL_Driver/Src/stm32l5xx_hal_rtc_ex.c ****   /* Process Unlocked */
1153:../../Drivers/STM32L5xx_HAL_Driver/Src/stm32l5xx_hal_rtc_ex.c ****   __HAL_UNLOCK(hrtc);
 2014              		.loc 1 1153 3 is_stmt 1 discriminator 2 view .LVU668
 2015              		.loc 1 1153 3 discriminator 2 view .LVU669
 2016 002e 0023     		movs	r3, #0
 2017 0030 80F82430 		strb	r3, [r0, #36]
 2018              		.loc 1 1153 3 discriminator 2 view .LVU670
1154:../../Drivers/STM32L5xx_HAL_Driver/Src/stm32l5xx_hal_rtc_ex.c **** 
1155:../../Drivers/STM32L5xx_HAL_Driver/Src/stm32l5xx_hal_rtc_ex.c ****   return HAL_OK;
 2019              		.loc 1 1155 3 discriminator 2 view .LVU671
 2020              		.loc 1 1155 10 is_stmt 0 discriminator 2 view .LVU672
 2021 0034 1846     		mov	r0, r3
 2022              	.LVL127:
 2023              		.loc 1 1155 10 discriminator 2 view .LVU673
 2024 0036 7047     		bx	lr
 2025              	.LVL128:
 2026              	.L136:
ARM GAS  C:\Users\carlos\AppData\Local\Temp\ccaMGGVT.s 			page 59


1136:../../Drivers/STM32L5xx_HAL_Driver/Src/stm32l5xx_hal_rtc_ex.c **** 
 2027              		.loc 1 1136 3 view .LVU674
 2028 0038 0220     		movs	r0, #2
 2029              	.LVL129:
1156:../../Drivers/STM32L5xx_HAL_Driver/Src/stm32l5xx_hal_rtc_ex.c **** }
 2030              		.loc 1 1156 1 view .LVU675
 2031 003a 7047     		bx	lr
 2032              	.L138:
 2033              		.align	2
 2034              	.L137:
 2035 003c 00280050 		.word	1342187520
 2036              		.cfi_endproc
 2037              	.LFE222:
 2039              		.section	.text.HAL_RTCEx_SetRefClock,"ax",%progbits
 2040              		.align	1
 2041              		.global	HAL_RTCEx_SetRefClock
 2042              		.syntax unified
 2043              		.thumb
 2044              		.thumb_func
 2045              		.fpu fpv4-sp-d16
 2047              	HAL_RTCEx_SetRefClock:
 2048              	.LVL130:
 2049              	.LFB223:
1157:../../Drivers/STM32L5xx_HAL_Driver/Src/stm32l5xx_hal_rtc_ex.c **** 
1158:../../Drivers/STM32L5xx_HAL_Driver/Src/stm32l5xx_hal_rtc_ex.c **** /**
1159:../../Drivers/STM32L5xx_HAL_Driver/Src/stm32l5xx_hal_rtc_ex.c ****   * @brief  Enable the RTC reference clock detection.
1160:../../Drivers/STM32L5xx_HAL_Driver/Src/stm32l5xx_hal_rtc_ex.c ****   * @param  hrtc RTC handle
1161:../../Drivers/STM32L5xx_HAL_Driver/Src/stm32l5xx_hal_rtc_ex.c ****   * @retval HAL status
1162:../../Drivers/STM32L5xx_HAL_Driver/Src/stm32l5xx_hal_rtc_ex.c ****   */
1163:../../Drivers/STM32L5xx_HAL_Driver/Src/stm32l5xx_hal_rtc_ex.c **** HAL_StatusTypeDef HAL_RTCEx_SetRefClock(RTC_HandleTypeDef *hrtc)
1164:../../Drivers/STM32L5xx_HAL_Driver/Src/stm32l5xx_hal_rtc_ex.c **** {
 2050              		.loc 1 1164 1 is_stmt 1 view -0
 2051              		.cfi_startproc
 2052              		@ args = 0, pretend = 0, frame = 0
 2053              		@ frame_needed = 0, uses_anonymous_args = 0
1165:../../Drivers/STM32L5xx_HAL_Driver/Src/stm32l5xx_hal_rtc_ex.c ****   HAL_StatusTypeDef status;
 2054              		.loc 1 1165 3 view .LVU677
1166:../../Drivers/STM32L5xx_HAL_Driver/Src/stm32l5xx_hal_rtc_ex.c **** 
1167:../../Drivers/STM32L5xx_HAL_Driver/Src/stm32l5xx_hal_rtc_ex.c ****   /* Process Locked */
1168:../../Drivers/STM32L5xx_HAL_Driver/Src/stm32l5xx_hal_rtc_ex.c ****   __HAL_LOCK(hrtc);
 2055              		.loc 1 1168 3 view .LVU678
 2056              		.loc 1 1168 3 view .LVU679
 2057 0000 90F82430 		ldrb	r3, [r0, #36]	@ zero_extendqisi2
 2058 0004 012B     		cmp	r3, #1
 2059 0006 23D0     		beq	.L143
1164:../../Drivers/STM32L5xx_HAL_Driver/Src/stm32l5xx_hal_rtc_ex.c ****   HAL_StatusTypeDef status;
 2060              		.loc 1 1164 1 is_stmt 0 discriminator 2 view .LVU680
 2061 0008 10B5     		push	{r4, lr}
 2062              	.LCFI10:
 2063              		.cfi_def_cfa_offset 8
 2064              		.cfi_offset 4, -8
 2065              		.cfi_offset 14, -4
 2066 000a 0446     		mov	r4, r0
 2067              		.loc 1 1168 3 is_stmt 1 discriminator 2 view .LVU681
 2068 000c 0123     		movs	r3, #1
 2069 000e 80F82430 		strb	r3, [r0, #36]
 2070              		.loc 1 1168 3 discriminator 2 view .LVU682
ARM GAS  C:\Users\carlos\AppData\Local\Temp\ccaMGGVT.s 			page 60


1169:../../Drivers/STM32L5xx_HAL_Driver/Src/stm32l5xx_hal_rtc_ex.c **** 
1170:../../Drivers/STM32L5xx_HAL_Driver/Src/stm32l5xx_hal_rtc_ex.c ****   hrtc->State = HAL_RTC_STATE_BUSY;
 2071              		.loc 1 1170 3 discriminator 2 view .LVU683
 2072              		.loc 1 1170 15 is_stmt 0 discriminator 2 view .LVU684
 2073 0012 0223     		movs	r3, #2
 2074 0014 80F82530 		strb	r3, [r0, #37]
1171:../../Drivers/STM32L5xx_HAL_Driver/Src/stm32l5xx_hal_rtc_ex.c **** 
1172:../../Drivers/STM32L5xx_HAL_Driver/Src/stm32l5xx_hal_rtc_ex.c ****   /* Disable the write protection for RTC registers */
1173:../../Drivers/STM32L5xx_HAL_Driver/Src/stm32l5xx_hal_rtc_ex.c ****   __HAL_RTC_WRITEPROTECTION_DISABLE(hrtc);
 2075              		.loc 1 1173 3 is_stmt 1 discriminator 2 view .LVU685
 2076              		.loc 1 1173 3 discriminator 2 view .LVU686
 2077 0018 0E4B     		ldr	r3, .L149
 2078 001a CA22     		movs	r2, #202
 2079 001c 5A62     		str	r2, [r3, #36]
 2080              		.loc 1 1173 3 discriminator 2 view .LVU687
 2081 001e 5322     		movs	r2, #83
 2082 0020 5A62     		str	r2, [r3, #36]
 2083              		.loc 1 1173 3 discriminator 2 view .LVU688
1174:../../Drivers/STM32L5xx_HAL_Driver/Src/stm32l5xx_hal_rtc_ex.c **** 
1175:../../Drivers/STM32L5xx_HAL_Driver/Src/stm32l5xx_hal_rtc_ex.c ****   /* Enter Initialization mode */
1176:../../Drivers/STM32L5xx_HAL_Driver/Src/stm32l5xx_hal_rtc_ex.c ****   status = RTC_EnterInitMode(hrtc);
 2084              		.loc 1 1176 3 discriminator 2 view .LVU689
 2085              		.loc 1 1176 12 is_stmt 0 discriminator 2 view .LVU690
 2086 0022 FFF7FEFF 		bl	RTC_EnterInitMode
 2087              	.LVL131:
1177:../../Drivers/STM32L5xx_HAL_Driver/Src/stm32l5xx_hal_rtc_ex.c ****   if (status == HAL_OK)
 2088              		.loc 1 1177 3 is_stmt 1 discriminator 2 view .LVU691
 2089              		.loc 1 1177 6 is_stmt 0 discriminator 2 view .LVU692
 2090 0026 50B1     		cbz	r0, .L148
 2091              	.L141:
1178:../../Drivers/STM32L5xx_HAL_Driver/Src/stm32l5xx_hal_rtc_ex.c ****   {
1179:../../Drivers/STM32L5xx_HAL_Driver/Src/stm32l5xx_hal_rtc_ex.c ****     /* Enable clockref detection */
1180:../../Drivers/STM32L5xx_HAL_Driver/Src/stm32l5xx_hal_rtc_ex.c ****     SET_BIT(RTC->CR, RTC_CR_REFCKON);
1181:../../Drivers/STM32L5xx_HAL_Driver/Src/stm32l5xx_hal_rtc_ex.c **** 
1182:../../Drivers/STM32L5xx_HAL_Driver/Src/stm32l5xx_hal_rtc_ex.c ****     /* Exit Initialization mode */
1183:../../Drivers/STM32L5xx_HAL_Driver/Src/stm32l5xx_hal_rtc_ex.c ****     status = RTC_ExitInitMode(hrtc);
1184:../../Drivers/STM32L5xx_HAL_Driver/Src/stm32l5xx_hal_rtc_ex.c ****   }
1185:../../Drivers/STM32L5xx_HAL_Driver/Src/stm32l5xx_hal_rtc_ex.c **** 
1186:../../Drivers/STM32L5xx_HAL_Driver/Src/stm32l5xx_hal_rtc_ex.c ****   /* Enable the write protection for RTC registers */
1187:../../Drivers/STM32L5xx_HAL_Driver/Src/stm32l5xx_hal_rtc_ex.c ****   __HAL_RTC_WRITEPROTECTION_ENABLE(hrtc);
 2092              		.loc 1 1187 3 is_stmt 1 view .LVU693
 2093              		.loc 1 1187 3 view .LVU694
 2094 0028 0A4B     		ldr	r3, .L149
 2095 002a FF22     		movs	r2, #255
 2096 002c 5A62     		str	r2, [r3, #36]
 2097              		.loc 1 1187 3 view .LVU695
1188:../../Drivers/STM32L5xx_HAL_Driver/Src/stm32l5xx_hal_rtc_ex.c **** 
1189:../../Drivers/STM32L5xx_HAL_Driver/Src/stm32l5xx_hal_rtc_ex.c ****   if (status == HAL_OK)
 2098              		.loc 1 1189 3 view .LVU696
 2099              		.loc 1 1189 6 is_stmt 0 view .LVU697
 2100 002e 10B9     		cbnz	r0, .L142
1190:../../Drivers/STM32L5xx_HAL_Driver/Src/stm32l5xx_hal_rtc_ex.c ****   {
1191:../../Drivers/STM32L5xx_HAL_Driver/Src/stm32l5xx_hal_rtc_ex.c ****     hrtc->State = HAL_RTC_STATE_READY;
 2101              		.loc 1 1191 5 is_stmt 1 view .LVU698
 2102              		.loc 1 1191 17 is_stmt 0 view .LVU699
 2103 0030 0123     		movs	r3, #1
 2104 0032 84F82530 		strb	r3, [r4, #37]
ARM GAS  C:\Users\carlos\AppData\Local\Temp\ccaMGGVT.s 			page 61


 2105              	.L142:
1192:../../Drivers/STM32L5xx_HAL_Driver/Src/stm32l5xx_hal_rtc_ex.c ****   }
1193:../../Drivers/STM32L5xx_HAL_Driver/Src/stm32l5xx_hal_rtc_ex.c **** 
1194:../../Drivers/STM32L5xx_HAL_Driver/Src/stm32l5xx_hal_rtc_ex.c ****   /* Process Unlocked */
1195:../../Drivers/STM32L5xx_HAL_Driver/Src/stm32l5xx_hal_rtc_ex.c ****   __HAL_UNLOCK(hrtc);
 2106              		.loc 1 1195 3 is_stmt 1 view .LVU700
 2107              		.loc 1 1195 3 view .LVU701
 2108 0036 0023     		movs	r3, #0
 2109 0038 84F82430 		strb	r3, [r4, #36]
 2110              		.loc 1 1195 3 view .LVU702
1196:../../Drivers/STM32L5xx_HAL_Driver/Src/stm32l5xx_hal_rtc_ex.c **** 
1197:../../Drivers/STM32L5xx_HAL_Driver/Src/stm32l5xx_hal_rtc_ex.c ****   return status;
 2111              		.loc 1 1197 3 view .LVU703
1198:../../Drivers/STM32L5xx_HAL_Driver/Src/stm32l5xx_hal_rtc_ex.c **** }
 2112              		.loc 1 1198 1 is_stmt 0 view .LVU704
 2113 003c 10BD     		pop	{r4, pc}
 2114              	.LVL132:
 2115              	.L148:
1180:../../Drivers/STM32L5xx_HAL_Driver/Src/stm32l5xx_hal_rtc_ex.c **** 
 2116              		.loc 1 1180 5 is_stmt 1 view .LVU705
 2117 003e 054A     		ldr	r2, .L149
 2118 0040 9369     		ldr	r3, [r2, #24]
 2119 0042 43F01003 		orr	r3, r3, #16
 2120 0046 9361     		str	r3, [r2, #24]
1183:../../Drivers/STM32L5xx_HAL_Driver/Src/stm32l5xx_hal_rtc_ex.c ****   }
 2121              		.loc 1 1183 5 view .LVU706
1183:../../Drivers/STM32L5xx_HAL_Driver/Src/stm32l5xx_hal_rtc_ex.c ****   }
 2122              		.loc 1 1183 14 is_stmt 0 view .LVU707
 2123 0048 2046     		mov	r0, r4
 2124              	.LVL133:
1183:../../Drivers/STM32L5xx_HAL_Driver/Src/stm32l5xx_hal_rtc_ex.c ****   }
 2125              		.loc 1 1183 14 view .LVU708
 2126 004a FFF7FEFF 		bl	RTC_ExitInitMode
 2127              	.LVL134:
1183:../../Drivers/STM32L5xx_HAL_Driver/Src/stm32l5xx_hal_rtc_ex.c ****   }
 2128              		.loc 1 1183 14 view .LVU709
 2129 004e EBE7     		b	.L141
 2130              	.LVL135:
 2131              	.L143:
 2132              	.LCFI11:
 2133              		.cfi_def_cfa_offset 0
 2134              		.cfi_restore 4
 2135              		.cfi_restore 14
1168:../../Drivers/STM32L5xx_HAL_Driver/Src/stm32l5xx_hal_rtc_ex.c **** 
 2136              		.loc 1 1168 3 view .LVU710
 2137 0050 0220     		movs	r0, #2
 2138              	.LVL136:
 2139              		.loc 1 1198 1 view .LVU711
 2140 0052 7047     		bx	lr
 2141              	.L150:
 2142              		.align	2
 2143              	.L149:
 2144 0054 00280050 		.word	1342187520
 2145              		.cfi_endproc
 2146              	.LFE223:
 2148              		.section	.text.HAL_RTCEx_DeactivateRefClock,"ax",%progbits
 2149              		.align	1
ARM GAS  C:\Users\carlos\AppData\Local\Temp\ccaMGGVT.s 			page 62


 2150              		.global	HAL_RTCEx_DeactivateRefClock
 2151              		.syntax unified
 2152              		.thumb
 2153              		.thumb_func
 2154              		.fpu fpv4-sp-d16
 2156              	HAL_RTCEx_DeactivateRefClock:
 2157              	.LVL137:
 2158              	.LFB224:
1199:../../Drivers/STM32L5xx_HAL_Driver/Src/stm32l5xx_hal_rtc_ex.c **** 
1200:../../Drivers/STM32L5xx_HAL_Driver/Src/stm32l5xx_hal_rtc_ex.c **** /**
1201:../../Drivers/STM32L5xx_HAL_Driver/Src/stm32l5xx_hal_rtc_ex.c ****   * @brief  Disable the RTC reference clock detection.
1202:../../Drivers/STM32L5xx_HAL_Driver/Src/stm32l5xx_hal_rtc_ex.c ****   * @param  hrtc RTC handle
1203:../../Drivers/STM32L5xx_HAL_Driver/Src/stm32l5xx_hal_rtc_ex.c ****   * @retval HAL status
1204:../../Drivers/STM32L5xx_HAL_Driver/Src/stm32l5xx_hal_rtc_ex.c ****   */
1205:../../Drivers/STM32L5xx_HAL_Driver/Src/stm32l5xx_hal_rtc_ex.c **** HAL_StatusTypeDef HAL_RTCEx_DeactivateRefClock(RTC_HandleTypeDef *hrtc)
1206:../../Drivers/STM32L5xx_HAL_Driver/Src/stm32l5xx_hal_rtc_ex.c **** {
 2159              		.loc 1 1206 1 is_stmt 1 view -0
 2160              		.cfi_startproc
 2161              		@ args = 0, pretend = 0, frame = 0
 2162              		@ frame_needed = 0, uses_anonymous_args = 0
1207:../../Drivers/STM32L5xx_HAL_Driver/Src/stm32l5xx_hal_rtc_ex.c ****   HAL_StatusTypeDef status;
 2163              		.loc 1 1207 3 view .LVU713
1208:../../Drivers/STM32L5xx_HAL_Driver/Src/stm32l5xx_hal_rtc_ex.c **** 
1209:../../Drivers/STM32L5xx_HAL_Driver/Src/stm32l5xx_hal_rtc_ex.c ****   /* Process Locked */
1210:../../Drivers/STM32L5xx_HAL_Driver/Src/stm32l5xx_hal_rtc_ex.c ****   __HAL_LOCK(hrtc);
 2164              		.loc 1 1210 3 view .LVU714
 2165              		.loc 1 1210 3 view .LVU715
 2166 0000 90F82430 		ldrb	r3, [r0, #36]	@ zero_extendqisi2
 2167 0004 012B     		cmp	r3, #1
 2168 0006 23D0     		beq	.L155
1206:../../Drivers/STM32L5xx_HAL_Driver/Src/stm32l5xx_hal_rtc_ex.c ****   HAL_StatusTypeDef status;
 2169              		.loc 1 1206 1 is_stmt 0 discriminator 2 view .LVU716
 2170 0008 10B5     		push	{r4, lr}
 2171              	.LCFI12:
 2172              		.cfi_def_cfa_offset 8
 2173              		.cfi_offset 4, -8
 2174              		.cfi_offset 14, -4
 2175 000a 0446     		mov	r4, r0
 2176              		.loc 1 1210 3 is_stmt 1 discriminator 2 view .LVU717
 2177 000c 0123     		movs	r3, #1
 2178 000e 80F82430 		strb	r3, [r0, #36]
 2179              		.loc 1 1210 3 discriminator 2 view .LVU718
1211:../../Drivers/STM32L5xx_HAL_Driver/Src/stm32l5xx_hal_rtc_ex.c **** 
1212:../../Drivers/STM32L5xx_HAL_Driver/Src/stm32l5xx_hal_rtc_ex.c ****   hrtc->State = HAL_RTC_STATE_BUSY;
 2180              		.loc 1 1212 3 discriminator 2 view .LVU719
 2181              		.loc 1 1212 15 is_stmt 0 discriminator 2 view .LVU720
 2182 0012 0223     		movs	r3, #2
 2183 0014 80F82530 		strb	r3, [r0, #37]
1213:../../Drivers/STM32L5xx_HAL_Driver/Src/stm32l5xx_hal_rtc_ex.c **** 
1214:../../Drivers/STM32L5xx_HAL_Driver/Src/stm32l5xx_hal_rtc_ex.c ****   /* Disable the write protection for RTC registers */
1215:../../Drivers/STM32L5xx_HAL_Driver/Src/stm32l5xx_hal_rtc_ex.c ****   __HAL_RTC_WRITEPROTECTION_DISABLE(hrtc);
 2184              		.loc 1 1215 3 is_stmt 1 discriminator 2 view .LVU721
 2185              		.loc 1 1215 3 discriminator 2 view .LVU722
 2186 0018 0E4B     		ldr	r3, .L161
 2187 001a CA22     		movs	r2, #202
 2188 001c 5A62     		str	r2, [r3, #36]
 2189              		.loc 1 1215 3 discriminator 2 view .LVU723
ARM GAS  C:\Users\carlos\AppData\Local\Temp\ccaMGGVT.s 			page 63


 2190 001e 5322     		movs	r2, #83
 2191 0020 5A62     		str	r2, [r3, #36]
 2192              		.loc 1 1215 3 discriminator 2 view .LVU724
1216:../../Drivers/STM32L5xx_HAL_Driver/Src/stm32l5xx_hal_rtc_ex.c **** 
1217:../../Drivers/STM32L5xx_HAL_Driver/Src/stm32l5xx_hal_rtc_ex.c ****   /* Enter Initialization mode */
1218:../../Drivers/STM32L5xx_HAL_Driver/Src/stm32l5xx_hal_rtc_ex.c ****   status = RTC_EnterInitMode(hrtc);
 2193              		.loc 1 1218 3 discriminator 2 view .LVU725
 2194              		.loc 1 1218 12 is_stmt 0 discriminator 2 view .LVU726
 2195 0022 FFF7FEFF 		bl	RTC_EnterInitMode
 2196              	.LVL138:
1219:../../Drivers/STM32L5xx_HAL_Driver/Src/stm32l5xx_hal_rtc_ex.c ****   if (status == HAL_OK)
 2197              		.loc 1 1219 3 is_stmt 1 discriminator 2 view .LVU727
 2198              		.loc 1 1219 6 is_stmt 0 discriminator 2 view .LVU728
 2199 0026 50B1     		cbz	r0, .L160
 2200              	.L153:
1220:../../Drivers/STM32L5xx_HAL_Driver/Src/stm32l5xx_hal_rtc_ex.c ****   {
1221:../../Drivers/STM32L5xx_HAL_Driver/Src/stm32l5xx_hal_rtc_ex.c ****     /* Disable clockref detection */
1222:../../Drivers/STM32L5xx_HAL_Driver/Src/stm32l5xx_hal_rtc_ex.c ****     CLEAR_BIT(RTC->CR, RTC_CR_REFCKON);
1223:../../Drivers/STM32L5xx_HAL_Driver/Src/stm32l5xx_hal_rtc_ex.c **** 
1224:../../Drivers/STM32L5xx_HAL_Driver/Src/stm32l5xx_hal_rtc_ex.c ****     /* Exit Initialization mode */
1225:../../Drivers/STM32L5xx_HAL_Driver/Src/stm32l5xx_hal_rtc_ex.c ****     status = RTC_ExitInitMode(hrtc);
1226:../../Drivers/STM32L5xx_HAL_Driver/Src/stm32l5xx_hal_rtc_ex.c ****   }
1227:../../Drivers/STM32L5xx_HAL_Driver/Src/stm32l5xx_hal_rtc_ex.c **** 
1228:../../Drivers/STM32L5xx_HAL_Driver/Src/stm32l5xx_hal_rtc_ex.c ****   /* Enable the write protection for RTC registers */
1229:../../Drivers/STM32L5xx_HAL_Driver/Src/stm32l5xx_hal_rtc_ex.c ****   __HAL_RTC_WRITEPROTECTION_ENABLE(hrtc);
 2201              		.loc 1 1229 3 is_stmt 1 view .LVU729
 2202              		.loc 1 1229 3 view .LVU730
 2203 0028 0A4B     		ldr	r3, .L161
 2204 002a FF22     		movs	r2, #255
 2205 002c 5A62     		str	r2, [r3, #36]
 2206              		.loc 1 1229 3 view .LVU731
1230:../../Drivers/STM32L5xx_HAL_Driver/Src/stm32l5xx_hal_rtc_ex.c **** 
1231:../../Drivers/STM32L5xx_HAL_Driver/Src/stm32l5xx_hal_rtc_ex.c ****   if (status == HAL_OK)
 2207              		.loc 1 1231 3 view .LVU732
 2208              		.loc 1 1231 6 is_stmt 0 view .LVU733
 2209 002e 10B9     		cbnz	r0, .L154
1232:../../Drivers/STM32L5xx_HAL_Driver/Src/stm32l5xx_hal_rtc_ex.c ****   {
1233:../../Drivers/STM32L5xx_HAL_Driver/Src/stm32l5xx_hal_rtc_ex.c ****     hrtc->State = HAL_RTC_STATE_READY;
 2210              		.loc 1 1233 5 is_stmt 1 view .LVU734
 2211              		.loc 1 1233 17 is_stmt 0 view .LVU735
 2212 0030 0123     		movs	r3, #1
 2213 0032 84F82530 		strb	r3, [r4, #37]
 2214              	.L154:
1234:../../Drivers/STM32L5xx_HAL_Driver/Src/stm32l5xx_hal_rtc_ex.c ****   }
1235:../../Drivers/STM32L5xx_HAL_Driver/Src/stm32l5xx_hal_rtc_ex.c **** 
1236:../../Drivers/STM32L5xx_HAL_Driver/Src/stm32l5xx_hal_rtc_ex.c ****   /* Process Unlocked */
1237:../../Drivers/STM32L5xx_HAL_Driver/Src/stm32l5xx_hal_rtc_ex.c ****   __HAL_UNLOCK(hrtc);
 2215              		.loc 1 1237 3 is_stmt 1 view .LVU736
 2216              		.loc 1 1237 3 view .LVU737
 2217 0036 0023     		movs	r3, #0
 2218 0038 84F82430 		strb	r3, [r4, #36]
 2219              		.loc 1 1237 3 view .LVU738
1238:../../Drivers/STM32L5xx_HAL_Driver/Src/stm32l5xx_hal_rtc_ex.c **** 
1239:../../Drivers/STM32L5xx_HAL_Driver/Src/stm32l5xx_hal_rtc_ex.c ****   return status;
 2220              		.loc 1 1239 3 view .LVU739
1240:../../Drivers/STM32L5xx_HAL_Driver/Src/stm32l5xx_hal_rtc_ex.c **** }
 2221              		.loc 1 1240 1 is_stmt 0 view .LVU740
ARM GAS  C:\Users\carlos\AppData\Local\Temp\ccaMGGVT.s 			page 64


 2222 003c 10BD     		pop	{r4, pc}
 2223              	.LVL139:
 2224              	.L160:
1222:../../Drivers/STM32L5xx_HAL_Driver/Src/stm32l5xx_hal_rtc_ex.c **** 
 2225              		.loc 1 1222 5 is_stmt 1 view .LVU741
 2226 003e 054A     		ldr	r2, .L161
 2227 0040 9369     		ldr	r3, [r2, #24]
 2228 0042 23F01003 		bic	r3, r3, #16
 2229 0046 9361     		str	r3, [r2, #24]
1225:../../Drivers/STM32L5xx_HAL_Driver/Src/stm32l5xx_hal_rtc_ex.c ****   }
 2230              		.loc 1 1225 5 view .LVU742
1225:../../Drivers/STM32L5xx_HAL_Driver/Src/stm32l5xx_hal_rtc_ex.c ****   }
 2231              		.loc 1 1225 14 is_stmt 0 view .LVU743
 2232 0048 2046     		mov	r0, r4
 2233              	.LVL140:
1225:../../Drivers/STM32L5xx_HAL_Driver/Src/stm32l5xx_hal_rtc_ex.c ****   }
 2234              		.loc 1 1225 14 view .LVU744
 2235 004a FFF7FEFF 		bl	RTC_ExitInitMode
 2236              	.LVL141:
1225:../../Drivers/STM32L5xx_HAL_Driver/Src/stm32l5xx_hal_rtc_ex.c ****   }
 2237              		.loc 1 1225 14 view .LVU745
 2238 004e EBE7     		b	.L153
 2239              	.LVL142:
 2240              	.L155:
 2241              	.LCFI13:
 2242              		.cfi_def_cfa_offset 0
 2243              		.cfi_restore 4
 2244              		.cfi_restore 14
1210:../../Drivers/STM32L5xx_HAL_Driver/Src/stm32l5xx_hal_rtc_ex.c **** 
 2245              		.loc 1 1210 3 view .LVU746
 2246 0050 0220     		movs	r0, #2
 2247              	.LVL143:
 2248              		.loc 1 1240 1 view .LVU747
 2249 0052 7047     		bx	lr
 2250              	.L162:
 2251              		.align	2
 2252              	.L161:
 2253 0054 00280050 		.word	1342187520
 2254              		.cfi_endproc
 2255              	.LFE224:
 2257              		.section	.text.HAL_RTCEx_EnableBypassShadow,"ax",%progbits
 2258              		.align	1
 2259              		.global	HAL_RTCEx_EnableBypassShadow
 2260              		.syntax unified
 2261              		.thumb
 2262              		.thumb_func
 2263              		.fpu fpv4-sp-d16
 2265              	HAL_RTCEx_EnableBypassShadow:
 2266              	.LVL144:
 2267              	.LFB225:
1241:../../Drivers/STM32L5xx_HAL_Driver/Src/stm32l5xx_hal_rtc_ex.c **** 
1242:../../Drivers/STM32L5xx_HAL_Driver/Src/stm32l5xx_hal_rtc_ex.c **** /**
1243:../../Drivers/STM32L5xx_HAL_Driver/Src/stm32l5xx_hal_rtc_ex.c ****   * @brief  Enable the Bypass Shadow feature.
1244:../../Drivers/STM32L5xx_HAL_Driver/Src/stm32l5xx_hal_rtc_ex.c ****   * @note   When the Bypass Shadow is enabled the calendar value are taken
1245:../../Drivers/STM32L5xx_HAL_Driver/Src/stm32l5xx_hal_rtc_ex.c ****   *         directly from the Calendar counter.
1246:../../Drivers/STM32L5xx_HAL_Driver/Src/stm32l5xx_hal_rtc_ex.c ****   * @param  hrtc RTC handle
1247:../../Drivers/STM32L5xx_HAL_Driver/Src/stm32l5xx_hal_rtc_ex.c ****   * @retval HAL status
ARM GAS  C:\Users\carlos\AppData\Local\Temp\ccaMGGVT.s 			page 65


1248:../../Drivers/STM32L5xx_HAL_Driver/Src/stm32l5xx_hal_rtc_ex.c ****   */
1249:../../Drivers/STM32L5xx_HAL_Driver/Src/stm32l5xx_hal_rtc_ex.c **** HAL_StatusTypeDef HAL_RTCEx_EnableBypassShadow(RTC_HandleTypeDef *hrtc)
1250:../../Drivers/STM32L5xx_HAL_Driver/Src/stm32l5xx_hal_rtc_ex.c **** {
 2268              		.loc 1 1250 1 is_stmt 1 view -0
 2269              		.cfi_startproc
 2270              		@ args = 0, pretend = 0, frame = 0
 2271              		@ frame_needed = 0, uses_anonymous_args = 0
 2272              		@ link register save eliminated.
1251:../../Drivers/STM32L5xx_HAL_Driver/Src/stm32l5xx_hal_rtc_ex.c ****   /* Process Locked */
1252:../../Drivers/STM32L5xx_HAL_Driver/Src/stm32l5xx_hal_rtc_ex.c ****   __HAL_LOCK(hrtc);
 2273              		.loc 1 1252 3 view .LVU749
 2274              		.loc 1 1252 3 view .LVU750
 2275 0000 90F82430 		ldrb	r3, [r0, #36]	@ zero_extendqisi2
 2276 0004 012B     		cmp	r3, #1
 2277 0006 17D0     		beq	.L165
 2278              		.loc 1 1252 3 discriminator 2 view .LVU751
 2279 0008 0121     		movs	r1, #1
 2280 000a 80F82410 		strb	r1, [r0, #36]
 2281              		.loc 1 1252 3 discriminator 2 view .LVU752
1253:../../Drivers/STM32L5xx_HAL_Driver/Src/stm32l5xx_hal_rtc_ex.c **** 
1254:../../Drivers/STM32L5xx_HAL_Driver/Src/stm32l5xx_hal_rtc_ex.c ****   hrtc->State = HAL_RTC_STATE_BUSY;
 2282              		.loc 1 1254 3 discriminator 2 view .LVU753
 2283              		.loc 1 1254 15 is_stmt 0 discriminator 2 view .LVU754
 2284 000e 0223     		movs	r3, #2
 2285 0010 80F82530 		strb	r3, [r0, #37]
1255:../../Drivers/STM32L5xx_HAL_Driver/Src/stm32l5xx_hal_rtc_ex.c **** 
1256:../../Drivers/STM32L5xx_HAL_Driver/Src/stm32l5xx_hal_rtc_ex.c ****   /* Disable the write protection for RTC registers */
1257:../../Drivers/STM32L5xx_HAL_Driver/Src/stm32l5xx_hal_rtc_ex.c ****   __HAL_RTC_WRITEPROTECTION_DISABLE(hrtc);
 2286              		.loc 1 1257 3 is_stmt 1 discriminator 2 view .LVU755
 2287              		.loc 1 1257 3 discriminator 2 view .LVU756
 2288 0014 094B     		ldr	r3, .L166
 2289 0016 CA22     		movs	r2, #202
 2290 0018 5A62     		str	r2, [r3, #36]
 2291              		.loc 1 1257 3 discriminator 2 view .LVU757
 2292 001a 5322     		movs	r2, #83
 2293 001c 5A62     		str	r2, [r3, #36]
 2294              		.loc 1 1257 3 discriminator 2 view .LVU758
1258:../../Drivers/STM32L5xx_HAL_Driver/Src/stm32l5xx_hal_rtc_ex.c **** 
1259:../../Drivers/STM32L5xx_HAL_Driver/Src/stm32l5xx_hal_rtc_ex.c ****   /* Set the BYPSHAD bit */
1260:../../Drivers/STM32L5xx_HAL_Driver/Src/stm32l5xx_hal_rtc_ex.c ****   SET_BIT(RTC->CR, RTC_CR_BYPSHAD);
 2295              		.loc 1 1260 3 discriminator 2 view .LVU759
 2296 001e 9A69     		ldr	r2, [r3, #24]
 2297 0020 42F02002 		orr	r2, r2, #32
 2298 0024 9A61     		str	r2, [r3, #24]
1261:../../Drivers/STM32L5xx_HAL_Driver/Src/stm32l5xx_hal_rtc_ex.c **** 
1262:../../Drivers/STM32L5xx_HAL_Driver/Src/stm32l5xx_hal_rtc_ex.c ****   /* Enable the write protection for RTC registers */
1263:../../Drivers/STM32L5xx_HAL_Driver/Src/stm32l5xx_hal_rtc_ex.c ****   __HAL_RTC_WRITEPROTECTION_ENABLE(hrtc);
 2299              		.loc 1 1263 3 discriminator 2 view .LVU760
 2300              		.loc 1 1263 3 discriminator 2 view .LVU761
 2301 0026 FF22     		movs	r2, #255
 2302 0028 5A62     		str	r2, [r3, #36]
 2303              		.loc 1 1263 3 discriminator 2 view .LVU762
1264:../../Drivers/STM32L5xx_HAL_Driver/Src/stm32l5xx_hal_rtc_ex.c **** 
1265:../../Drivers/STM32L5xx_HAL_Driver/Src/stm32l5xx_hal_rtc_ex.c ****   /* Change RTC state */
1266:../../Drivers/STM32L5xx_HAL_Driver/Src/stm32l5xx_hal_rtc_ex.c ****   hrtc->State = HAL_RTC_STATE_READY;
 2304              		.loc 1 1266 3 discriminator 2 view .LVU763
 2305              		.loc 1 1266 15 is_stmt 0 discriminator 2 view .LVU764
ARM GAS  C:\Users\carlos\AppData\Local\Temp\ccaMGGVT.s 			page 66


 2306 002a 80F82510 		strb	r1, [r0, #37]
1267:../../Drivers/STM32L5xx_HAL_Driver/Src/stm32l5xx_hal_rtc_ex.c **** 
1268:../../Drivers/STM32L5xx_HAL_Driver/Src/stm32l5xx_hal_rtc_ex.c ****   /* Process Unlocked */
1269:../../Drivers/STM32L5xx_HAL_Driver/Src/stm32l5xx_hal_rtc_ex.c ****   __HAL_UNLOCK(hrtc);
 2307              		.loc 1 1269 3 is_stmt 1 discriminator 2 view .LVU765
 2308              		.loc 1 1269 3 discriminator 2 view .LVU766
 2309 002e 0023     		movs	r3, #0
 2310 0030 80F82430 		strb	r3, [r0, #36]
 2311              		.loc 1 1269 3 discriminator 2 view .LVU767
1270:../../Drivers/STM32L5xx_HAL_Driver/Src/stm32l5xx_hal_rtc_ex.c **** 
1271:../../Drivers/STM32L5xx_HAL_Driver/Src/stm32l5xx_hal_rtc_ex.c ****   return HAL_OK;
 2312              		.loc 1 1271 3 discriminator 2 view .LVU768
 2313              		.loc 1 1271 10 is_stmt 0 discriminator 2 view .LVU769
 2314 0034 1846     		mov	r0, r3
 2315              	.LVL145:
 2316              		.loc 1 1271 10 discriminator 2 view .LVU770
 2317 0036 7047     		bx	lr
 2318              	.LVL146:
 2319              	.L165:
1252:../../Drivers/STM32L5xx_HAL_Driver/Src/stm32l5xx_hal_rtc_ex.c **** 
 2320              		.loc 1 1252 3 view .LVU771
 2321 0038 0220     		movs	r0, #2
 2322              	.LVL147:
1272:../../Drivers/STM32L5xx_HAL_Driver/Src/stm32l5xx_hal_rtc_ex.c **** }
 2323              		.loc 1 1272 1 view .LVU772
 2324 003a 7047     		bx	lr
 2325              	.L167:
 2326              		.align	2
 2327              	.L166:
 2328 003c 00280050 		.word	1342187520
